
C:/Users/User/Desktop/Lab11part3/pagetable.axf:     file format elf32-littlearm


Disassembly of section .text:

00000000 <CONFIG_VIRTUAL_MEMORY>:
      .equ  TRANS_TABLE_N, 0
      .equ  SECTION_SIZE, 0x100000

      .global CONFIG_VIRTUAL_MEMORY
CONFIG_VIRTUAL_MEMORY:
      PUSH {R4-R9}
       0:	e92d03f0 	push	{r4, r5, r6, r7, r8, r9}

      /* Verify System Control Register contents */
      MRC p15, 0, R0, c1, c0, 0 /* Read SCTLR into Rt */
       4:	ee110f10 	mrc	15, 0, r0, cr1, cr0, {0}
      LDR R1, =0x00C5187A
       8:	e59f10a8 	ldr	r1, [pc, #168]	; b8 <CPT_RETURN+0x8>
      CMP R0, R1
       c:	e1500001 	cmp	r0, r1
      BNE CPT_ERROR
      10:	1a000025 	bne	ac <CPT_ERROR>

      LDR R6, =0x100000 /* address to try to read after MMU configured */
      14:	e3a06601 	mov	r6, #1048576	; 0x100000
      LDR R7, [R6]      /* R7 is contents of word at physical address 0x100000 */
      18:	e5967000 	ldr	r7, [r6]
      LDR R8, =0x200000 /* address to try to read after MMU configured */
      1c:	e3a08602 	mov	r8, #2097152	; 0x200000
      LDR R9, [R8]      /* R9 has contents of word at physical address 0x200000 */
      20:	e5989000 	ldr	r9, [r8]

      /* initialize level 1 translation table */
               /*1111111111          */
               /*98765432109876543210*/
      LDR R1, =0b10000001110000001110    /* lower 20 bits of section descriptor for cacheable sections */
      24:	e59f1090 	ldr	r1, [pc, #144]	; bc <CPT_RETURN+0xc>
      LDR R2, =0b10000000110000000010    /* lower 20 bits of section descriptor for device sections */
      28:	e59f2090 	ldr	r2, [pc, #144]	; c0 <CPT_RETURN+0x10>
      LDR R3, =SECTION_SIZE
      2c:	e3a03601 	mov	r3, #1048576	; 0x100000
      LDR R4, =TRANS_TABLE_0_BASE
      30:	e3a04201 	mov	r4, #268435456	; 0x10000000
      MOV R0, #0  /* loop counter */
      34:	e3a00000 	mov	r0, #0

00000038 <CPT_L1>:
CPT_L1: 
      MUL   R5, R0, R3                     /* physical address of section */
      38:	e0050390 	mul	r5, r0, r3
      CMP   R0, #UNCACHABLE_START 
      3c:	e3500b01 	cmp	r0, #1024	; 0x400
      ORRLT R5, R5, R1
      40:	b1855001 	orrlt	r5, r5, r1
      ORRGE R5, R5, R2
      44:	a1855002 	orrge	r5, r5, r2
      STR   R5, [R4, R0, LSL #2]
      48:	e7845100 	str	r5, [r4, r0, lsl #2]
      ADD   R0, R0, #1
      4c:	e2800001 	add	r0, r0, #1
      CMP   R0, #0x1000
      50:	e3500a01 	cmp	r0, #4096	; 0x1000
      BLT   CPT_L1
      54:	bafffff7 	blt	38 <CPT_L1>

      /* for testing address translation: remap second two pages */
      ADD R5, R1, R3
      58:	e0815003 	add	r5, r1, r3
      STR R5, [R4, #8]  /* virtual page 2 => physical page 1 */
      5c:	e5845008 	str	r5, [r4, #8]
      ADD R5, R1, R3, LSL #1
      60:	e0815083 	add	r5, r1, r3, lsl #1
      STR R5, [R4, #4]  /* virtual page 1 => physical page 2 */
      64:	e5845004 	str	r5, [r4, #4]

      /* set Translation Table Base Control Register */
      MOV R0, #TRANS_TABLE_N
      68:	e3a00000 	mov	r0, #0
      MCR p15, 0, R0, c2, c0, 2 /* TTBCR.N = 0 */
      6c:	ee020f50 	mcr	15, 0, r0, cr2, cr0, {2}

      /* set Translation Table Base Register 0 */
      LDR R0,=TRANS_TABLE_0_BASE 
      70:	e3a00201 	mov	r0, #268435456	; 0x10000000
      MCR p15, 0, R0, c2, c0, 0 /* TTBR0 = TRANS_TABLE_0_BASE */
      74:	ee020f10 	mcr	15, 0, r0, cr2, cr0, {0}

      /* set Domain Access Control Register */
      MOV R0, #1
      78:	e3a00001 	mov	r0, #1
      MCR p15, 0, R0, c3, c0, 0 /* Domain 0 is client */
      7c:	ee030f10 	mcr	15, 0, r0, cr3, cr0, {0}

      /* set Context ID Register */
      MOV R0, #0
      80:	e3a00000 	mov	r0, #0
      MCR p15, 0, R0, c13, c0, 1 /* PROCID = 0, ACID = 0 */
      84:	ee0d0f30 	mcr	15, 0, r0, cr13, cr0, {1}

      /* enable data cache and MMU */
      MRC p15, 0, R0, c1, c0, 0 /* Read SCTLR into Rt */
      88:	ee110f10 	mrc	15, 0, r0, cr1, cr0, {0}
      ORR R0, R0, #0b101
      8c:	e3800005 	orr	r0, r0, #5
      MCR p15, 0, R0, c1, c0, 0 /* Write Rt to SCTLR */ 
      90:	ee010f10 	mcr	15, 0, r0, cr1, cr0, {0}

      ISB
      94:	f57ff06f 	isb	sy

      LDR   R1, [R6] /* R1 has contents of memory at virtual address 0x100000 
      98:	e5961000 	ldr	r1, [r6]
                        which should be physical address 0x200000 */

      CMP   R1, R9   /* R1 should match R9 if address translation worked */
      9c:	e1510009 	cmp	r1, r9
      BNE   CPT_ERROR 
      a0:	1a000001 	bne	ac <CPT_ERROR>

      MOV   R0, #0
      a4:	e3a00000 	mov	r0, #0
      B     CPT_RETURN
      a8:	ea000000 	b	b0 <CPT_RETURN>

000000ac <CPT_ERROR>:
CPT_ERROR:
      MOV   R0, #1
      ac:	e3a00001 	mov	r0, #1

000000b0 <CPT_RETURN>:
CPT_RETURN:
      POP   {R4-R9}
      b0:	e8bd03f0 	pop	{r4, r5, r6, r7, r8, r9}
      BX    LR
      b4:	e12fff1e 	bx	lr
      b8:	00c5187a 	.word	0x00c5187a
      bc:	00081c0e 	.word	0x00081c0e
      c0:	00080c02 	.word	0x00080c02

000000c4 <_start>:

.text
.globl _start
_start:

	BL CONFIG_VIRTUAL_MEMORY
      c4:	ebffffcd 	bl	0 <CONFIG_VIRTUAL_MEMORY>

	// Step 1-3: 
	//configure PMN0 to count cycles
	MOV R0, #0 // Write 0 into R0 then PMSELR
      c8:	e3a00000 	mov	r0, #0
	MCR p15, 0, R0, c9, c12, 5 // Write 0 into PMSELR selects PMN0
      cc:	ee090fbc 	mcr	15, 0, r0, cr9, cr12, {5}
	MOV R1, #0x11 // Event 0x11 is CPU cycles
      d0:	e3a01011 	mov	r1, #17
	MCR p15, 0, R1, c9, c13, 1 // Write 0x11 into PMXEVTYPER (PMN0 measure CPU cycles)
      d4:	ee091f3d 	mcr	15, 0, r1, cr9, cr13, {1}

	//configure PMN1 to calculate Cache misses
	MOV R0, #1
      d8:	e3a00001 	mov	r0, #1
	MCR p15, 0, R0, c9, c12, 5 // Write 1 into PMSELR selects PMN1
      dc:	ee090fbc 	mcr	15, 0, r0, cr9, cr12, {5}
	MOV R1, #0x3 // Event 0x3 is Level 1 data cache misses
      e0:	e3a01003 	mov	r1, #3
	MCR p15, 0, R1, c9, c13, 1 // Write 0x3 into PMXEVTYPER (PMN1 measure Level 1 data cache misses)
      e4:	ee091f3d 	mcr	15, 0, r1, cr9, cr13, {1}


	//configure PMN2 to calculate Number of load instructions executed
	MOV R0,  #2
      e8:	e3a00002 	mov	r0, #2
	MCR p15, 0, R0, c9, c12, 5 // Write 2 into PMSELR selects PMN2
      ec:	ee090fbc 	mcr	15, 0, r0, cr9, cr12, {5}
	MOV R1, #0x6 // Event 0x6 is Number of load instructions executed
      f0:	e3a01006 	mov	r1, #6
	MCR p15, 0, R1, c9, c13, 1 // Write 0x6 into PMXEVTYPER (PMN2 measure Number of load instructions executed)
      f4:	ee091f3d 	mcr	15, 0, r1, cr9, cr13, {1}


// Step 4: 
	//enable PMN0-PMN2
	mov R0, #0b111 // PMN0-2 is bit 0 of PMCNTENSET
      f8:	e3a00007 	mov	r0, #7
	MCR p15, 0, R0, c9, c12, 1 // Setting bit 0-2 of PMCNTENSET enables PMN0-2
      fc:	ee090f3c 	mcr	15, 0, r0, cr9, cr12, {1}

	// Step 5: 
	//clear all counters and start counters
	mov r0, #3 // bits 0 (start counters) and 1 (reset counters)
     100:	e3a00003 	mov	r0, #3
	MCR p15, 0, r0, c9, c12, 0 // Setting PMCR to 3
     104:	ee090f1c 	mcr	15, 0, r0, cr9, cr12, {0}

	//Step 6: code we wish to profile using hardware counters

	mov r0, #128
     108:	e3a00080 	mov	r0, #128	; 0x80
	ldr r1, =Array_A128
     10c:	e59f1038 	ldr	r1, [pc, #56]	; 14c <end+0x4>
	ldr r2, =Array_B128
     110:	e59f2038 	ldr	r2, [pc, #56]	; 150 <end+0x8>
	ldr r3, =Array_C128
     114:	e59f3038 	ldr	r3, [pc, #56]	; 154 <end+0xc>


	bl dgemm
     118:	eb00000e 	bl	158 <dgemm>

	// Step 7: stop counters
	mov r0, #0
     11c:	e3a00000 	mov	r0, #0
	MCR p15, 0, r0, c9, c12, 0 // Write 0 to PMCR to stop counters
     120:	ee090f1c 	mcr	15, 0, r0, cr9, cr12, {0}
	// Step 8-10: Select PMN0-PMN2 and read out result into R3-5
	mov r0, #0 // PMN0
     124:	e3a00000 	mov	r0, #0
	MCR p15, 0, R0, c9, c12, 5 // Write 0 to PMSELR
     128:	ee090fbc 	mcr	15, 0, r0, cr9, cr12, {5}
	MRC p15, 0, R3, c9, c13, 2 // Read PMXEVCNTR into R3
     12c:	ee193f5d 	mrc	15, 0, r3, cr9, cr13, {2}

	mov r0, #1 // PMN1
     130:	e3a00001 	mov	r0, #1
	MCR p15, 0, R0, c9, c12, 5 // Write 1 to PMSELR
     134:	ee090fbc 	mcr	15, 0, r0, cr9, cr12, {5}
	MRC p15, 0, R4, c9, c13, 2 // Read PMXEVCNTR into R4
     138:	ee194f5d 	mrc	15, 0, r4, cr9, cr13, {2}

	mov r0, #2 // PMN2
     13c:	e3a00002 	mov	r0, #2
	MCR p15, 0, R0, c9, c12, 5 // Write 2 to PMSELR
     140:	ee090fbc 	mcr	15, 0, r0, cr9, cr12, {5}
	MRC p15, 0, R5, c9, c13, 2 // Read PMXEVCNTR into R5
     144:	ee195f5d 	mrc	15, 0, r5, cr9, cr13, {2}

00000148 <end>:

end: b end // wait here
     148:	eafffffe 	b	148 <end>
     14c:	0000021c 	.word	0x0000021c
     150:	0002021c 	.word	0x0002021c
     154:	0004021c 	.word	0x0004021c

00000158 <dgemm>:
    local vars:
    r5 = sj
    r4 = si
    r12 = sk
     */
     mov r5, #0
     158:	e3a05000 	mov	r5, #0

0000015c <dgemm_L1>:
dgemm_L1:
    mov r4, #0
     15c:	e3a04000 	mov	r4, #0

00000160 <dgemm_L2>:
dgemm_L2:
    mov r12, #0
     160:	e3a0c000 	mov	r12, #0

00000164 <dgemm_L3>:
dgemm_L3:
    BL do_block //branch to different function
     164:	eb000009 	bl	190 <do_block>
    add r12, r12, #32 //sk = sk + blocksize
     168:	e28cc020 	add	r12, r12, #32
    cmp r12, r0 
     16c:	e15c0000 	cmp	r12, r0
    blt dgemm_L3
     170:	bafffffb 	blt	164 <dgemm_L3>

    //continue on dgemm_L2
    add r4, r4, #32 //si = si + blocksize
     174:	e2844020 	add	r4, r4, #32
    cmp r4, r0
     178:	e1540000 	cmp	r4, r0
    blt dgemm_L2
     17c:	bafffff7 	blt	160 <dgemm_L2>

    //continue on dgemm_L1
    add r5, r5, #32 //sj = sj + blocksize
     180:	e2855020 	add	r5, r5, #32
    cmp r5, r0
     184:	e1550000 	cmp	r5, r0
    blt dgemm_L1
     188:	bafffff3 	blt	15c <dgemm_L1>

    //otherwise
    mov pc, lr
     18c:	e1a0f00e 	mov	pc, lr

00000190 <do_block>:
    d2 = aij
    d3 = bij
    d4 = aij * bij
     */
    //mov r7, #32 //BLOCKSiZE
    mov r8, r4 //i = si
     190:	e1a08004 	mov	r8, r4

00000194 <do_block_L1>:

do_block_L1:
    mov r9, r5 //j = sj
     194:	e1a09005 	mov	r9, r5

00000198 <do_block_L2>:
do_block_L2:
    ADD r10, r9, r8, LSL #5 //cijAddr = i*size + j
     198:	e089a288 	add	r10, r9, r8, lsl #5
    ADD r10, r3, r10, LSL #3 //cijAddr = byte address of c[i][j]
     19c:	e083a18a 	add	r10, r3, r10, lsl #3
     1a0:	ed9a0b00 	.word	0xed9a0b00
    .word 0b11101101100110100000101100000000
    //FLDD d0, [r10, #0] //d0 = 8 bytes of c[i][j]
    mul r11, r9, r0 //j*n
     1a4:	e00b0099 	mul	r11, r9, r0
    add r11, r11, r8 //i+j*n
     1a8:	e08bb008 	add	r11, r11, r8
     1ac:	ed9b1b00 	.word	0xed9b1b00
    .word 0b11101101100110110001101100000000
    //FLDD d1, [r1, r11] // double cij = C[i+j*n]
    mov r12, r6 //k = sk
     1b0:	e1a0c006 	mov	r12, r6

000001b4 <do_block_L3>:
do_block_L3:
    mul r11, r12, r0 //k*n
     1b4:	e00b009c 	mul	r11, r12, r0
    add r11, r11, r8 //i+k*n
     1b8:	e08bb008 	add	r11, r11, r8
    add r11, r1, r11, LSL#3
     1bc:	e081b18b 	add	r11, r1, r11, lsl #3
     1c0:	ed9b2b00 	.word	0xed9b2b00
    .word 0b11101101100110110010101100000000
    //FLDD d2, [r11, #0] //load a[i+k*n] into d2 = aij
    mul r11, r9, r0 ///j*n
     1c4:	e00b0099 	mul	r11, r9, r0
    add r11, r11, r12 //k+j*n
     1c8:	e08bb00c 	add	r11, r11, r12
     1cc:	ed9b3b00 	.word	0xed9b3b00
     1d0:	ee234b02 	.word	0xee234b02
     1d4:	ee311b04 	.word	0xee311b04
    //FLDD d3, [r11, #0] //load b[k+j*n] into d3 = bij
    .word 0b11101110001000110100101100000010
   // FMULD d4, d3, d2 
    .word 0b11101110001100010001101100000100
    //FADDD d1, d1, d4 //cij = cij + (aij * bij)
    add r12, r12, #1 //k++
     1d8:	e28cc001 	add	r12, r12, #1
    add r7, r6, #32 //r7 = blocksize + sk
     1dc:	e2867020 	add	r7, r6, #32
    cmp r12, r7
     1e0:	e15c0007 	cmp	r12, r7
    blt do_block_L3 //loop back to do_block_L3 if k < blocksize + sk
     1e4:	bafffff2 	blt	1b4 <do_block_L3>

    //continue on do_block_L2
    mul r11, r9, r0 //j*n
     1e8:	e00b0099 	mul	r11, r9, r0
    add r11, r11, r8 //i+j*n
     1ec:	e08bb008 	add	r11, r11, r8
    add r11, r11, LSL #3
     1f0:	e08bb18b 	add	r11, r11, r11, lsl #3
     1f4:	ed9b1b00 	.word	0xed9b1b00
    .word 0b11101101100110110001101100000000
    //FSTD d1, [r11, #0] //C[i+j*n] = cij
    add r7, r5, #32 //s7 = blocksize + sj
     1f8:	e2857020 	add	r7, r5, #32
    add r9, r9, #1 //j++
     1fc:	e2899001 	add	r9, r9, #1
    cmp r9, r7 
     200:	e1590007 	cmp	r9, r7
    blt do_block_L2 //loop back to do_block_L2 if j < blocksize + sj
     204:	baffffe3 	blt	198 <do_block_L2>

    //continue on do_block_L1
    add r7, r4, #32 //r7 = blocksize + si
     208:	e2847020 	add	r7, r4, #32
    add r4, r4, #1 //i++
     20c:	e2844001 	add	r4, r4, #1
    cmp r4, r7
     210:	e1540007 	cmp	r4, r7
    blt do_block_L1 //loop back to do_block_L1 if i < blocksize + si
     214:	baffffde 	blt	194 <do_block_L1>
    

    mov pc, lr
     218:	e1a0f00e 	mov	pc, lr

0000021c <Array_A128>:
     21c:	9374bc6a 	.word	0x9374bc6a
     220:	3ff00418 	.word	0x3ff00418
     224:	26e978d5 	.word	0x26e978d5
     228:	3ff00831 	.word	0x3ff00831
     22c:	ba5e353f 	.word	0xba5e353f
     230:	3ff00c49 	.word	0x3ff00c49
     234:	4dd2f1aa 	.word	0x4dd2f1aa
     238:	3ff01062 	.word	0x3ff01062
     23c:	e147ae14 	.word	0xe147ae14
     240:	3ff0147a 	.word	0x3ff0147a
     244:	74bc6a7f 	.word	0x74bc6a7f
     248:	3ff01893 	.word	0x3ff01893
     24c:	083126e9 	.word	0x083126e9
     250:	3ff01cac 	.word	0x3ff01cac
     254:	9ba5e354 	.word	0x9ba5e354
     258:	3ff020c4 	.word	0x3ff020c4
     25c:	2f1a9fbe 	.word	0x2f1a9fbe
     260:	3ff024dd 	.word	0x3ff024dd
     264:	c28f5c29 	.word	0xc28f5c29
     268:	3ff028f5 	.word	0x3ff028f5
     26c:	56041893 	.word	0x56041893
     270:	3ff02d0e 	.word	0x3ff02d0e
     274:	e978d4fe 	.word	0xe978d4fe
     278:	3ff03126 	.word	0x3ff03126
     27c:	7ced9168 	.word	0x7ced9168
     280:	3ff0353f 	.word	0x3ff0353f
     284:	10624dd3 	.word	0x10624dd3
     288:	3ff03958 	.word	0x3ff03958
     28c:	a3d70a3d 	.word	0xa3d70a3d
     290:	3ff03d70 	.word	0x3ff03d70
     294:	374bc6a8 	.word	0x374bc6a8
     298:	3ff04189 	.word	0x3ff04189
     29c:	cac08312 	.word	0xcac08312
     2a0:	3ff045a1 	.word	0x3ff045a1
     2a4:	5e353f7d 	.word	0x5e353f7d
     2a8:	3ff049ba 	.word	0x3ff049ba
     2ac:	f1a9fbe7 	.word	0xf1a9fbe7
     2b0:	3ff04dd2 	.word	0x3ff04dd2
     2b4:	851eb852 	.word	0x851eb852
     2b8:	3ff051eb 	.word	0x3ff051eb
     2bc:	189374bc 	.word	0x189374bc
     2c0:	3ff05604 	.word	0x3ff05604
     2c4:	ac083127 	.word	0xac083127
     2c8:	3ff05a1c 	.word	0x3ff05a1c
     2cc:	3f7ced91 	.word	0x3f7ced91
     2d0:	3ff05e35 	.word	0x3ff05e35
     2d4:	d2f1a9fc 	.word	0xd2f1a9fc
     2d8:	3ff0624d 	.word	0x3ff0624d
     2dc:	66666666 	.word	0x66666666
     2e0:	3ff06666 	.word	0x3ff06666
     2e4:	f9db22d1 	.word	0xf9db22d1
     2e8:	3ff06a7e 	.word	0x3ff06a7e
     2ec:	8d4fdf3b 	.word	0x8d4fdf3b
     2f0:	3ff06e97 	.word	0x3ff06e97
     2f4:	20c49ba6 	.word	0x20c49ba6
     2f8:	3ff072b0 	.word	0x3ff072b0
     2fc:	b4395810 	.word	0xb4395810
     300:	3ff076c8 	.word	0x3ff076c8
     304:	47ae147b 	.word	0x47ae147b
     308:	3ff07ae1 	.word	0x3ff07ae1
     30c:	db22d0e5 	.word	0xdb22d0e5
     310:	3ff07ef9 	.word	0x3ff07ef9
     314:	6e978d50 	.word	0x6e978d50
     318:	3ff08312 	.word	0x3ff08312
     31c:	020c49ba 	.word	0x020c49ba
     320:	3ff0872b 	.word	0x3ff0872b
     324:	95810625 	.word	0x95810625
     328:	3ff08b43 	.word	0x3ff08b43
     32c:	28f5c28f 	.word	0x28f5c28f
     330:	3ff08f5c 	.word	0x3ff08f5c
     334:	bc6a7efa 	.word	0xbc6a7efa
     338:	3ff09374 	.word	0x3ff09374
     33c:	4fdf3b64 	.word	0x4fdf3b64
     340:	3ff0978d 	.word	0x3ff0978d
     344:	e353f7cf 	.word	0xe353f7cf
     348:	3ff09ba5 	.word	0x3ff09ba5
     34c:	76c8b439 	.word	0x76c8b439
     350:	3ff09fbe 	.word	0x3ff09fbe
     354:	0a3d70a4 	.word	0x0a3d70a4
     358:	3ff0a3d7 	.word	0x3ff0a3d7
     35c:	9db22d0e 	.word	0x9db22d0e
     360:	3ff0a7ef 	.word	0x3ff0a7ef
     364:	3126e979 	.word	0x3126e979
     368:	3ff0ac08 	.word	0x3ff0ac08
     36c:	c49ba5e3 	.word	0xc49ba5e3
     370:	3ff0b020 	.word	0x3ff0b020
     374:	5810624e 	.word	0x5810624e
     378:	3ff0b439 	.word	0x3ff0b439
     37c:	eb851eb8 	.word	0xeb851eb8
     380:	3ff0b851 	.word	0x3ff0b851
     384:	7ef9db23 	.word	0x7ef9db23
     388:	3ff0bc6a 	.word	0x3ff0bc6a
     38c:	126e978d 	.word	0x126e978d
     390:	3ff0c083 	.word	0x3ff0c083
     394:	a5e353f8 	.word	0xa5e353f8
     398:	3ff0c49b 	.word	0x3ff0c49b
     39c:	39581062 	.word	0x39581062
     3a0:	3ff0c8b4 	.word	0x3ff0c8b4
     3a4:	cccccccd 	.word	0xcccccccd
     3a8:	3ff0cccc 	.word	0x3ff0cccc
     3ac:	60418937 	.word	0x60418937
     3b0:	3ff0d0e5 	.word	0x3ff0d0e5
     3b4:	f3b645a2 	.word	0xf3b645a2
     3b8:	3ff0d4fd 	.word	0x3ff0d4fd
     3bc:	872b020c 	.word	0x872b020c
     3c0:	3ff0d916 	.word	0x3ff0d916
     3c4:	1a9fbe77 	.word	0x1a9fbe77
     3c8:	3ff0dd2f 	.word	0x3ff0dd2f
     3cc:	ae147ae1 	.word	0xae147ae1
     3d0:	3ff0e147 	.word	0x3ff0e147
     3d4:	4189374c 	.word	0x4189374c
     3d8:	3ff0e560 	.word	0x3ff0e560
     3dc:	d4fdf3b6 	.word	0xd4fdf3b6
     3e0:	3ff0e978 	.word	0x3ff0e978
     3e4:	6872b021 	.word	0x6872b021
     3e8:	3ff0ed91 	.word	0x3ff0ed91
     3ec:	fbe76c8b 	.word	0xfbe76c8b
     3f0:	3ff0f1a9 	.word	0x3ff0f1a9
     3f4:	8f5c28f6 	.word	0x8f5c28f6
     3f8:	3ff0f5c2 	.word	0x3ff0f5c2
     3fc:	22d0e560 	.word	0x22d0e560
     400:	3ff0f9db 	.word	0x3ff0f9db
     404:	b645a1cb 	.word	0xb645a1cb
     408:	3ff0fdf3 	.word	0x3ff0fdf3
     40c:	49ba5e35 	.word	0x49ba5e35
     410:	3ff1020c 	.word	0x3ff1020c
     414:	dd2f1aa0 	.word	0xdd2f1aa0
     418:	3ff10624 	.word	0x3ff10624
     41c:	70a3d70a 	.word	0x70a3d70a
     420:	3ff10a3d 	.word	0x3ff10a3d
     424:	04189375 	.word	0x04189375
     428:	3ff10e56 	.word	0x3ff10e56
     42c:	978d4fdf 	.word	0x978d4fdf
     430:	3ff1126e 	.word	0x3ff1126e
     434:	2b020c4a 	.word	0x2b020c4a
     438:	3ff11687 	.word	0x3ff11687
     43c:	be76c8b4 	.word	0xbe76c8b4
     440:	3ff11a9f 	.word	0x3ff11a9f
     444:	51eb851f 	.word	0x51eb851f
     448:	3ff11eb8 	.word	0x3ff11eb8
     44c:	e5604189 	.word	0xe5604189
     450:	3ff122d0 	.word	0x3ff122d0
     454:	78d4fdf4 	.word	0x78d4fdf4
     458:	3ff126e9 	.word	0x3ff126e9
     45c:	0c49ba5e 	.word	0x0c49ba5e
     460:	3ff12b02 	.word	0x3ff12b02
     464:	9fbe76c9 	.word	0x9fbe76c9
     468:	3ff12f1a 	.word	0x3ff12f1a
     46c:	33333333 	.word	0x33333333
     470:	3ff13333 	.word	0x3ff13333
     474:	c6a7ef9e 	.word	0xc6a7ef9e
     478:	3ff1374b 	.word	0x3ff1374b
     47c:	5a1cac08 	.word	0x5a1cac08
     480:	3ff13b64 	.word	0x3ff13b64
     484:	ed916873 	.word	0xed916873
     488:	3ff13f7c 	.word	0x3ff13f7c
     48c:	810624dd 	.word	0x810624dd
     490:	3ff14395 	.word	0x3ff14395
     494:	147ae148 	.word	0x147ae148
     498:	3ff147ae 	.word	0x3ff147ae
     49c:	a7ef9db2 	.word	0xa7ef9db2
     4a0:	3ff14bc6 	.word	0x3ff14bc6
     4a4:	3b645a1d 	.word	0x3b645a1d
     4a8:	3ff14fdf 	.word	0x3ff14fdf
     4ac:	ced91687 	.word	0xced91687
     4b0:	3ff153f7 	.word	0x3ff153f7
     4b4:	624dd2f2 	.word	0x624dd2f2
     4b8:	3ff15810 	.word	0x3ff15810
     4bc:	f5c28f5c 	.word	0xf5c28f5c
     4c0:	3ff15c28 	.word	0x3ff15c28
     4c4:	89374bc7 	.word	0x89374bc7
     4c8:	3ff16041 	.word	0x3ff16041
     4cc:	1cac0831 	.word	0x1cac0831
     4d0:	3ff1645a 	.word	0x3ff1645a
     4d4:	b020c49c 	.word	0xb020c49c
     4d8:	3ff16872 	.word	0x3ff16872
     4dc:	43958106 	.word	0x43958106
     4e0:	3ff16c8b 	.word	0x3ff16c8b
     4e4:	d70a3d71 	.word	0xd70a3d71
     4e8:	3ff170a3 	.word	0x3ff170a3
     4ec:	6a7ef9db 	.word	0x6a7ef9db
     4f0:	3ff174bc 	.word	0x3ff174bc
     4f4:	fdf3b646 	.word	0xfdf3b646
     4f8:	3ff178d4 	.word	0x3ff178d4
     4fc:	916872b0 	.word	0x916872b0
     500:	3ff17ced 	.word	0x3ff17ced
     504:	24dd2f1b 	.word	0x24dd2f1b
     508:	3ff18106 	.word	0x3ff18106
     50c:	b851eb85 	.word	0xb851eb85
     510:	3ff1851e 	.word	0x3ff1851e
     514:	4bc6a7f0 	.word	0x4bc6a7f0
     518:	3ff18937 	.word	0x3ff18937
     51c:	df3b645a 	.word	0xdf3b645a
     520:	3ff18d4f 	.word	0x3ff18d4f
     524:	72b020c5 	.word	0x72b020c5
     528:	3ff19168 	.word	0x3ff19168
     52c:	0624dd2f 	.word	0x0624dd2f
     530:	3ff19581 	.word	0x3ff19581
     534:	9999999a 	.word	0x9999999a
     538:	3ff19999 	.word	0x3ff19999
     53c:	2d0e5604 	.word	0x2d0e5604
     540:	3ff19db2 	.word	0x3ff19db2
     544:	c083126f 	.word	0xc083126f
     548:	3ff1a1ca 	.word	0x3ff1a1ca
     54c:	53f7ced9 	.word	0x53f7ced9
     550:	3ff1a5e3 	.word	0x3ff1a5e3
     554:	e76c8b44 	.word	0xe76c8b44
     558:	3ff1a9fb 	.word	0x3ff1a9fb
     55c:	7ae147ae 	.word	0x7ae147ae
     560:	3ff1ae14 	.word	0x3ff1ae14
     564:	0e560419 	.word	0x0e560419
     568:	3ff1b22d 	.word	0x3ff1b22d
     56c:	a1cac083 	.word	0xa1cac083
     570:	3ff1b645 	.word	0x3ff1b645
     574:	353f7cee 	.word	0x353f7cee
     578:	3ff1ba5e 	.word	0x3ff1ba5e
     57c:	c8b43958 	.word	0xc8b43958
     580:	3ff1be76 	.word	0x3ff1be76
     584:	5c28f5c3 	.word	0x5c28f5c3
     588:	3ff1c28f 	.word	0x3ff1c28f
     58c:	ef9db22d 	.word	0xef9db22d
     590:	3ff1c6a7 	.word	0x3ff1c6a7
     594:	83126e98 	.word	0x83126e98
     598:	3ff1cac0 	.word	0x3ff1cac0
     59c:	16872b02 	.word	0x16872b02
     5a0:	3ff1ced9 	.word	0x3ff1ced9
     5a4:	a9fbe76d 	.word	0xa9fbe76d
     5a8:	3ff1d2f1 	.word	0x3ff1d2f1
     5ac:	3d70a3d7 	.word	0x3d70a3d7
     5b0:	3ff1d70a 	.word	0x3ff1d70a
     5b4:	d0e56042 	.word	0xd0e56042
     5b8:	3ff1db22 	.word	0x3ff1db22
     5bc:	645a1cac 	.word	0x645a1cac
     5c0:	3ff1df3b 	.word	0x3ff1df3b
     5c4:	f7ced917 	.word	0xf7ced917
     5c8:	3ff1e353 	.word	0x3ff1e353
     5cc:	8b439581 	.word	0x8b439581
     5d0:	3ff1e76c 	.word	0x3ff1e76c
     5d4:	1eb851ec 	.word	0x1eb851ec
     5d8:	3ff1eb85 	.word	0x3ff1eb85
     5dc:	b22d0e56 	.word	0xb22d0e56
     5e0:	3ff1ef9d 	.word	0x3ff1ef9d
     5e4:	45a1cac1 	.word	0x45a1cac1
     5e8:	3ff1f3b6 	.word	0x3ff1f3b6
     5ec:	d916872b 	.word	0xd916872b
     5f0:	3ff1f7ce 	.word	0x3ff1f7ce
     5f4:	6c8b4396 	.word	0x6c8b4396
     5f8:	3ff1fbe7 	.word	0x3ff1fbe7
     5fc:	00000000 	.word	0x00000000
     600:	3ff20000 	.word	0x3ff20000
     604:	9374bc6a 	.word	0x9374bc6a
     608:	3ff20418 	.word	0x3ff20418
     60c:	26e978d5 	.word	0x26e978d5
     610:	3ff20831 	.word	0x3ff20831
     614:	ba5e353f 	.word	0xba5e353f
     618:	3ff20c49 	.word	0x3ff20c49
     61c:	49ba5e35 	.word	0x49ba5e35
     620:	4000020c 	.word	0x4000020c
     624:	9374bc6a 	.word	0x9374bc6a
     628:	40000418 	.word	0x40000418
     62c:	dd2f1aa0 	.word	0xdd2f1aa0
     630:	40000624 	.word	0x40000624
     634:	26e978d5 	.word	0x26e978d5
     638:	40000831 	.word	0x40000831
     63c:	70a3d70a 	.word	0x70a3d70a
     640:	40000a3d 	.word	0x40000a3d
     644:	ba5e353f 	.word	0xba5e353f
     648:	40000c49 	.word	0x40000c49
     64c:	04189375 	.word	0x04189375
     650:	40000e56 	.word	0x40000e56
     654:	4dd2f1aa 	.word	0x4dd2f1aa
     658:	40001062 	.word	0x40001062
     65c:	978d4fdf 	.word	0x978d4fdf
     660:	4000126e 	.word	0x4000126e
     664:	e147ae14 	.word	0xe147ae14
     668:	4000147a 	.word	0x4000147a
     66c:	2b020c4a 	.word	0x2b020c4a
     670:	40001687 	.word	0x40001687
     674:	74bc6a7f 	.word	0x74bc6a7f
     678:	40001893 	.word	0x40001893
     67c:	be76c8b4 	.word	0xbe76c8b4
     680:	40001a9f 	.word	0x40001a9f
     684:	083126e9 	.word	0x083126e9
     688:	40001cac 	.word	0x40001cac
     68c:	51eb851f 	.word	0x51eb851f
     690:	40001eb8 	.word	0x40001eb8
     694:	9ba5e354 	.word	0x9ba5e354
     698:	400020c4 	.word	0x400020c4
     69c:	e5604189 	.word	0xe5604189
     6a0:	400022d0 	.word	0x400022d0
     6a4:	2f1a9fbe 	.word	0x2f1a9fbe
     6a8:	400024dd 	.word	0x400024dd
     6ac:	78d4fdf4 	.word	0x78d4fdf4
     6b0:	400026e9 	.word	0x400026e9
     6b4:	c28f5c29 	.word	0xc28f5c29
     6b8:	400028f5 	.word	0x400028f5
     6bc:	0c49ba5e 	.word	0x0c49ba5e
     6c0:	40002b02 	.word	0x40002b02
     6c4:	56041893 	.word	0x56041893
     6c8:	40002d0e 	.word	0x40002d0e
     6cc:	9fbe76c9 	.word	0x9fbe76c9
     6d0:	40002f1a 	.word	0x40002f1a
     6d4:	e978d4fe 	.word	0xe978d4fe
     6d8:	40003126 	.word	0x40003126
     6dc:	33333333 	.word	0x33333333
     6e0:	40003333 	.word	0x40003333
     6e4:	7ced9168 	.word	0x7ced9168
     6e8:	4000353f 	.word	0x4000353f
     6ec:	c6a7ef9e 	.word	0xc6a7ef9e
     6f0:	4000374b 	.word	0x4000374b
     6f4:	10624dd3 	.word	0x10624dd3
     6f8:	40003958 	.word	0x40003958
     6fc:	5a1cac08 	.word	0x5a1cac08
     700:	40003b64 	.word	0x40003b64
     704:	a3d70a3d 	.word	0xa3d70a3d
     708:	40003d70 	.word	0x40003d70
     70c:	ed916873 	.word	0xed916873
     710:	40003f7c 	.word	0x40003f7c
     714:	374bc6a8 	.word	0x374bc6a8
     718:	40004189 	.word	0x40004189
     71c:	810624dd 	.word	0x810624dd
     720:	40004395 	.word	0x40004395
     724:	cac08312 	.word	0xcac08312
     728:	400045a1 	.word	0x400045a1
     72c:	147ae148 	.word	0x147ae148
     730:	400047ae 	.word	0x400047ae
     734:	5e353f7d 	.word	0x5e353f7d
     738:	400049ba 	.word	0x400049ba
     73c:	a7ef9db2 	.word	0xa7ef9db2
     740:	40004bc6 	.word	0x40004bc6
     744:	f1a9fbe7 	.word	0xf1a9fbe7
     748:	40004dd2 	.word	0x40004dd2
     74c:	3b645a1d 	.word	0x3b645a1d
     750:	40004fdf 	.word	0x40004fdf
     754:	851eb852 	.word	0x851eb852
     758:	400051eb 	.word	0x400051eb
     75c:	ced91687 	.word	0xced91687
     760:	400053f7 	.word	0x400053f7
     764:	189374bc 	.word	0x189374bc
     768:	40005604 	.word	0x40005604
     76c:	624dd2f2 	.word	0x624dd2f2
     770:	40005810 	.word	0x40005810
     774:	ac083127 	.word	0xac083127
     778:	40005a1c 	.word	0x40005a1c
     77c:	f5c28f5c 	.word	0xf5c28f5c
     780:	40005c28 	.word	0x40005c28
     784:	3f7ced91 	.word	0x3f7ced91
     788:	40005e35 	.word	0x40005e35
     78c:	89374bc7 	.word	0x89374bc7
     790:	40006041 	.word	0x40006041
     794:	d2f1a9fc 	.word	0xd2f1a9fc
     798:	4000624d 	.word	0x4000624d
     79c:	1cac0831 	.word	0x1cac0831
     7a0:	4000645a 	.word	0x4000645a
     7a4:	66666666 	.word	0x66666666
     7a8:	40006666 	.word	0x40006666
     7ac:	b020c49c 	.word	0xb020c49c
     7b0:	40006872 	.word	0x40006872
     7b4:	f9db22d1 	.word	0xf9db22d1
     7b8:	40006a7e 	.word	0x40006a7e
     7bc:	43958106 	.word	0x43958106
     7c0:	40006c8b 	.word	0x40006c8b
     7c4:	8d4fdf3b 	.word	0x8d4fdf3b
     7c8:	40006e97 	.word	0x40006e97
     7cc:	d70a3d71 	.word	0xd70a3d71
     7d0:	400070a3 	.word	0x400070a3
     7d4:	20c49ba6 	.word	0x20c49ba6
     7d8:	400072b0 	.word	0x400072b0
     7dc:	6a7ef9db 	.word	0x6a7ef9db
     7e0:	400074bc 	.word	0x400074bc
     7e4:	b4395810 	.word	0xb4395810
     7e8:	400076c8 	.word	0x400076c8
     7ec:	fdf3b646 	.word	0xfdf3b646
     7f0:	400078d4 	.word	0x400078d4
     7f4:	47ae147b 	.word	0x47ae147b
     7f8:	40007ae1 	.word	0x40007ae1
     7fc:	916872b0 	.word	0x916872b0
     800:	40007ced 	.word	0x40007ced
     804:	db22d0e5 	.word	0xdb22d0e5
     808:	40007ef9 	.word	0x40007ef9
     80c:	24dd2f1b 	.word	0x24dd2f1b
     810:	40008106 	.word	0x40008106
     814:	6e978d50 	.word	0x6e978d50
     818:	40008312 	.word	0x40008312
     81c:	b851eb85 	.word	0xb851eb85
     820:	4000851e 	.word	0x4000851e
     824:	020c49ba 	.word	0x020c49ba
     828:	4000872b 	.word	0x4000872b
     82c:	4bc6a7f0 	.word	0x4bc6a7f0
     830:	40008937 	.word	0x40008937
     834:	95810625 	.word	0x95810625
     838:	40008b43 	.word	0x40008b43
     83c:	df3b645a 	.word	0xdf3b645a
     840:	40008d4f 	.word	0x40008d4f
     844:	28f5c28f 	.word	0x28f5c28f
     848:	40008f5c 	.word	0x40008f5c
     84c:	72b020c5 	.word	0x72b020c5
     850:	40009168 	.word	0x40009168
     854:	bc6a7efa 	.word	0xbc6a7efa
     858:	40009374 	.word	0x40009374
     85c:	0624dd2f 	.word	0x0624dd2f
     860:	40009581 	.word	0x40009581
     864:	4fdf3b64 	.word	0x4fdf3b64
     868:	4000978d 	.word	0x4000978d
     86c:	9999999a 	.word	0x9999999a
     870:	40009999 	.word	0x40009999
     874:	e353f7cf 	.word	0xe353f7cf
     878:	40009ba5 	.word	0x40009ba5
     87c:	2d0e5604 	.word	0x2d0e5604
     880:	40009db2 	.word	0x40009db2
     884:	76c8b439 	.word	0x76c8b439
     888:	40009fbe 	.word	0x40009fbe
     88c:	c083126f 	.word	0xc083126f
     890:	4000a1ca 	.word	0x4000a1ca
     894:	0a3d70a4 	.word	0x0a3d70a4
     898:	4000a3d7 	.word	0x4000a3d7
     89c:	53f7ced9 	.word	0x53f7ced9
     8a0:	4000a5e3 	.word	0x4000a5e3
     8a4:	9db22d0e 	.word	0x9db22d0e
     8a8:	4000a7ef 	.word	0x4000a7ef
     8ac:	e76c8b44 	.word	0xe76c8b44
     8b0:	4000a9fb 	.word	0x4000a9fb
     8b4:	3126e979 	.word	0x3126e979
     8b8:	4000ac08 	.word	0x4000ac08
     8bc:	7ae147ae 	.word	0x7ae147ae
     8c0:	4000ae14 	.word	0x4000ae14
     8c4:	c49ba5e3 	.word	0xc49ba5e3
     8c8:	4000b020 	.word	0x4000b020
     8cc:	0e560419 	.word	0x0e560419
     8d0:	4000b22d 	.word	0x4000b22d
     8d4:	5810624e 	.word	0x5810624e
     8d8:	4000b439 	.word	0x4000b439
     8dc:	a1cac083 	.word	0xa1cac083
     8e0:	4000b645 	.word	0x4000b645
     8e4:	eb851eb8 	.word	0xeb851eb8
     8e8:	4000b851 	.word	0x4000b851
     8ec:	353f7cee 	.word	0x353f7cee
     8f0:	4000ba5e 	.word	0x4000ba5e
     8f4:	7ef9db23 	.word	0x7ef9db23
     8f8:	4000bc6a 	.word	0x4000bc6a
     8fc:	c8b43958 	.word	0xc8b43958
     900:	4000be76 	.word	0x4000be76
     904:	126e978d 	.word	0x126e978d
     908:	4000c083 	.word	0x4000c083
     90c:	5c28f5c3 	.word	0x5c28f5c3
     910:	4000c28f 	.word	0x4000c28f
     914:	a5e353f8 	.word	0xa5e353f8
     918:	4000c49b 	.word	0x4000c49b
     91c:	ef9db22d 	.word	0xef9db22d
     920:	4000c6a7 	.word	0x4000c6a7
     924:	39581062 	.word	0x39581062
     928:	4000c8b4 	.word	0x4000c8b4
     92c:	83126e98 	.word	0x83126e98
     930:	4000cac0 	.word	0x4000cac0
     934:	cccccccd 	.word	0xcccccccd
     938:	4000cccc 	.word	0x4000cccc
     93c:	16872b02 	.word	0x16872b02
     940:	4000ced9 	.word	0x4000ced9
     944:	60418937 	.word	0x60418937
     948:	4000d0e5 	.word	0x4000d0e5
     94c:	a9fbe76d 	.word	0xa9fbe76d
     950:	4000d2f1 	.word	0x4000d2f1
     954:	f3b645a2 	.word	0xf3b645a2
     958:	4000d4fd 	.word	0x4000d4fd
     95c:	3d70a3d7 	.word	0x3d70a3d7
     960:	4000d70a 	.word	0x4000d70a
     964:	872b020c 	.word	0x872b020c
     968:	4000d916 	.word	0x4000d916
     96c:	d0e56042 	.word	0xd0e56042
     970:	4000db22 	.word	0x4000db22
     974:	1a9fbe77 	.word	0x1a9fbe77
     978:	4000dd2f 	.word	0x4000dd2f
     97c:	645a1cac 	.word	0x645a1cac
     980:	4000df3b 	.word	0x4000df3b
     984:	ae147ae1 	.word	0xae147ae1
     988:	4000e147 	.word	0x4000e147
     98c:	f7ced917 	.word	0xf7ced917
     990:	4000e353 	.word	0x4000e353
     994:	4189374c 	.word	0x4189374c
     998:	4000e560 	.word	0x4000e560
     99c:	8b439581 	.word	0x8b439581
     9a0:	4000e76c 	.word	0x4000e76c
     9a4:	d4fdf3b6 	.word	0xd4fdf3b6
     9a8:	4000e978 	.word	0x4000e978
     9ac:	1eb851ec 	.word	0x1eb851ec
     9b0:	4000eb85 	.word	0x4000eb85
     9b4:	6872b021 	.word	0x6872b021
     9b8:	4000ed91 	.word	0x4000ed91
     9bc:	b22d0e56 	.word	0xb22d0e56
     9c0:	4000ef9d 	.word	0x4000ef9d
     9c4:	fbe76c8b 	.word	0xfbe76c8b
     9c8:	4000f1a9 	.word	0x4000f1a9
     9cc:	45a1cac1 	.word	0x45a1cac1
     9d0:	4000f3b6 	.word	0x4000f3b6
     9d4:	8f5c28f6 	.word	0x8f5c28f6
     9d8:	4000f5c2 	.word	0x4000f5c2
     9dc:	d916872b 	.word	0xd916872b
     9e0:	4000f7ce 	.word	0x4000f7ce
     9e4:	22d0e560 	.word	0x22d0e560
     9e8:	4000f9db 	.word	0x4000f9db
     9ec:	6c8b4396 	.word	0x6c8b4396
     9f0:	4000fbe7 	.word	0x4000fbe7
     9f4:	b645a1cb 	.word	0xb645a1cb
     9f8:	4000fdf3 	.word	0x4000fdf3
     9fc:	00000000 	.word	0x00000000
     a00:	40010000 	.word	0x40010000
     a04:	49ba5e35 	.word	0x49ba5e35
     a08:	4001020c 	.word	0x4001020c
     a0c:	9374bc6a 	.word	0x9374bc6a
     a10:	40010418 	.word	0x40010418
     a14:	dd2f1aa0 	.word	0xdd2f1aa0
     a18:	40010624 	.word	0x40010624
     a1c:	49ba5e35 	.word	0x49ba5e35
     a20:	4008020c 	.word	0x4008020c
     a24:	9374bc6a 	.word	0x9374bc6a
     a28:	40080418 	.word	0x40080418
     a2c:	dd2f1aa0 	.word	0xdd2f1aa0
     a30:	40080624 	.word	0x40080624
     a34:	26e978d5 	.word	0x26e978d5
     a38:	40080831 	.word	0x40080831
     a3c:	70a3d70a 	.word	0x70a3d70a
     a40:	40080a3d 	.word	0x40080a3d
     a44:	ba5e353f 	.word	0xba5e353f
     a48:	40080c49 	.word	0x40080c49
     a4c:	04189375 	.word	0x04189375
     a50:	40080e56 	.word	0x40080e56
     a54:	4dd2f1aa 	.word	0x4dd2f1aa
     a58:	40081062 	.word	0x40081062
     a5c:	978d4fdf 	.word	0x978d4fdf
     a60:	4008126e 	.word	0x4008126e
     a64:	e147ae14 	.word	0xe147ae14
     a68:	4008147a 	.word	0x4008147a
     a6c:	2b020c4a 	.word	0x2b020c4a
     a70:	40081687 	.word	0x40081687
     a74:	74bc6a7f 	.word	0x74bc6a7f
     a78:	40081893 	.word	0x40081893
     a7c:	be76c8b4 	.word	0xbe76c8b4
     a80:	40081a9f 	.word	0x40081a9f
     a84:	083126e9 	.word	0x083126e9
     a88:	40081cac 	.word	0x40081cac
     a8c:	51eb851f 	.word	0x51eb851f
     a90:	40081eb8 	.word	0x40081eb8
     a94:	9ba5e354 	.word	0x9ba5e354
     a98:	400820c4 	.word	0x400820c4
     a9c:	e5604189 	.word	0xe5604189
     aa0:	400822d0 	.word	0x400822d0
     aa4:	2f1a9fbe 	.word	0x2f1a9fbe
     aa8:	400824dd 	.word	0x400824dd
     aac:	78d4fdf4 	.word	0x78d4fdf4
     ab0:	400826e9 	.word	0x400826e9
     ab4:	c28f5c29 	.word	0xc28f5c29
     ab8:	400828f5 	.word	0x400828f5
     abc:	0c49ba5e 	.word	0x0c49ba5e
     ac0:	40082b02 	.word	0x40082b02
     ac4:	56041893 	.word	0x56041893
     ac8:	40082d0e 	.word	0x40082d0e
     acc:	9fbe76c9 	.word	0x9fbe76c9
     ad0:	40082f1a 	.word	0x40082f1a
     ad4:	e978d4fe 	.word	0xe978d4fe
     ad8:	40083126 	.word	0x40083126
     adc:	33333333 	.word	0x33333333
     ae0:	40083333 	.word	0x40083333
     ae4:	7ced9168 	.word	0x7ced9168
     ae8:	4008353f 	.word	0x4008353f
     aec:	c6a7ef9e 	.word	0xc6a7ef9e
     af0:	4008374b 	.word	0x4008374b
     af4:	10624dd3 	.word	0x10624dd3
     af8:	40083958 	.word	0x40083958
     afc:	5a1cac08 	.word	0x5a1cac08
     b00:	40083b64 	.word	0x40083b64
     b04:	a3d70a3d 	.word	0xa3d70a3d
     b08:	40083d70 	.word	0x40083d70
     b0c:	ed916873 	.word	0xed916873
     b10:	40083f7c 	.word	0x40083f7c
     b14:	374bc6a8 	.word	0x374bc6a8
     b18:	40084189 	.word	0x40084189
     b1c:	810624dd 	.word	0x810624dd
     b20:	40084395 	.word	0x40084395
     b24:	cac08312 	.word	0xcac08312
     b28:	400845a1 	.word	0x400845a1
     b2c:	147ae148 	.word	0x147ae148
     b30:	400847ae 	.word	0x400847ae
     b34:	5e353f7d 	.word	0x5e353f7d
     b38:	400849ba 	.word	0x400849ba
     b3c:	a7ef9db2 	.word	0xa7ef9db2
     b40:	40084bc6 	.word	0x40084bc6
     b44:	f1a9fbe7 	.word	0xf1a9fbe7
     b48:	40084dd2 	.word	0x40084dd2
     b4c:	3b645a1d 	.word	0x3b645a1d
     b50:	40084fdf 	.word	0x40084fdf
     b54:	851eb852 	.word	0x851eb852
     b58:	400851eb 	.word	0x400851eb
     b5c:	ced91687 	.word	0xced91687
     b60:	400853f7 	.word	0x400853f7
     b64:	189374bc 	.word	0x189374bc
     b68:	40085604 	.word	0x40085604
     b6c:	624dd2f2 	.word	0x624dd2f2
     b70:	40085810 	.word	0x40085810
     b74:	ac083127 	.word	0xac083127
     b78:	40085a1c 	.word	0x40085a1c
     b7c:	f5c28f5c 	.word	0xf5c28f5c
     b80:	40085c28 	.word	0x40085c28
     b84:	3f7ced91 	.word	0x3f7ced91
     b88:	40085e35 	.word	0x40085e35
     b8c:	89374bc7 	.word	0x89374bc7
     b90:	40086041 	.word	0x40086041
     b94:	d2f1a9fc 	.word	0xd2f1a9fc
     b98:	4008624d 	.word	0x4008624d
     b9c:	1cac0831 	.word	0x1cac0831
     ba0:	4008645a 	.word	0x4008645a
     ba4:	66666666 	.word	0x66666666
     ba8:	40086666 	.word	0x40086666
     bac:	b020c49c 	.word	0xb020c49c
     bb0:	40086872 	.word	0x40086872
     bb4:	f9db22d1 	.word	0xf9db22d1
     bb8:	40086a7e 	.word	0x40086a7e
     bbc:	43958106 	.word	0x43958106
     bc0:	40086c8b 	.word	0x40086c8b
     bc4:	8d4fdf3b 	.word	0x8d4fdf3b
     bc8:	40086e97 	.word	0x40086e97
     bcc:	d70a3d71 	.word	0xd70a3d71
     bd0:	400870a3 	.word	0x400870a3
     bd4:	20c49ba6 	.word	0x20c49ba6
     bd8:	400872b0 	.word	0x400872b0
     bdc:	6a7ef9db 	.word	0x6a7ef9db
     be0:	400874bc 	.word	0x400874bc
     be4:	b4395810 	.word	0xb4395810
     be8:	400876c8 	.word	0x400876c8
     bec:	fdf3b646 	.word	0xfdf3b646
     bf0:	400878d4 	.word	0x400878d4
     bf4:	47ae147b 	.word	0x47ae147b
     bf8:	40087ae1 	.word	0x40087ae1
     bfc:	916872b0 	.word	0x916872b0
     c00:	40087ced 	.word	0x40087ced
     c04:	db22d0e5 	.word	0xdb22d0e5
     c08:	40087ef9 	.word	0x40087ef9
     c0c:	24dd2f1b 	.word	0x24dd2f1b
     c10:	40088106 	.word	0x40088106
     c14:	6e978d50 	.word	0x6e978d50
     c18:	40088312 	.word	0x40088312
     c1c:	b851eb85 	.word	0xb851eb85
     c20:	4008851e 	.word	0x4008851e
     c24:	020c49ba 	.word	0x020c49ba
     c28:	4008872b 	.word	0x4008872b
     c2c:	4bc6a7f0 	.word	0x4bc6a7f0
     c30:	40088937 	.word	0x40088937
     c34:	95810625 	.word	0x95810625
     c38:	40088b43 	.word	0x40088b43
     c3c:	df3b645a 	.word	0xdf3b645a
     c40:	40088d4f 	.word	0x40088d4f
     c44:	28f5c28f 	.word	0x28f5c28f
     c48:	40088f5c 	.word	0x40088f5c
     c4c:	72b020c5 	.word	0x72b020c5
     c50:	40089168 	.word	0x40089168
     c54:	bc6a7efa 	.word	0xbc6a7efa
     c58:	40089374 	.word	0x40089374
     c5c:	0624dd2f 	.word	0x0624dd2f
     c60:	40089581 	.word	0x40089581
     c64:	4fdf3b64 	.word	0x4fdf3b64
     c68:	4008978d 	.word	0x4008978d
     c6c:	9999999a 	.word	0x9999999a
     c70:	40089999 	.word	0x40089999
     c74:	e353f7cf 	.word	0xe353f7cf
     c78:	40089ba5 	.word	0x40089ba5
     c7c:	2d0e5604 	.word	0x2d0e5604
     c80:	40089db2 	.word	0x40089db2
     c84:	76c8b439 	.word	0x76c8b439
     c88:	40089fbe 	.word	0x40089fbe
     c8c:	c083126f 	.word	0xc083126f
     c90:	4008a1ca 	.word	0x4008a1ca
     c94:	0a3d70a4 	.word	0x0a3d70a4
     c98:	4008a3d7 	.word	0x4008a3d7
     c9c:	53f7ced9 	.word	0x53f7ced9
     ca0:	4008a5e3 	.word	0x4008a5e3
     ca4:	9db22d0e 	.word	0x9db22d0e
     ca8:	4008a7ef 	.word	0x4008a7ef
     cac:	e76c8b44 	.word	0xe76c8b44
     cb0:	4008a9fb 	.word	0x4008a9fb
     cb4:	3126e979 	.word	0x3126e979
     cb8:	4008ac08 	.word	0x4008ac08
     cbc:	7ae147ae 	.word	0x7ae147ae
     cc0:	4008ae14 	.word	0x4008ae14
     cc4:	c49ba5e3 	.word	0xc49ba5e3
     cc8:	4008b020 	.word	0x4008b020
     ccc:	0e560419 	.word	0x0e560419
     cd0:	4008b22d 	.word	0x4008b22d
     cd4:	5810624e 	.word	0x5810624e
     cd8:	4008b439 	.word	0x4008b439
     cdc:	a1cac083 	.word	0xa1cac083
     ce0:	4008b645 	.word	0x4008b645
     ce4:	eb851eb8 	.word	0xeb851eb8
     ce8:	4008b851 	.word	0x4008b851
     cec:	353f7cee 	.word	0x353f7cee
     cf0:	4008ba5e 	.word	0x4008ba5e
     cf4:	7ef9db23 	.word	0x7ef9db23
     cf8:	4008bc6a 	.word	0x4008bc6a
     cfc:	c8b43958 	.word	0xc8b43958
     d00:	4008be76 	.word	0x4008be76
     d04:	126e978d 	.word	0x126e978d
     d08:	4008c083 	.word	0x4008c083
     d0c:	5c28f5c3 	.word	0x5c28f5c3
     d10:	4008c28f 	.word	0x4008c28f
     d14:	a5e353f8 	.word	0xa5e353f8
     d18:	4008c49b 	.word	0x4008c49b
     d1c:	ef9db22d 	.word	0xef9db22d
     d20:	4008c6a7 	.word	0x4008c6a7
     d24:	39581062 	.word	0x39581062
     d28:	4008c8b4 	.word	0x4008c8b4
     d2c:	83126e98 	.word	0x83126e98
     d30:	4008cac0 	.word	0x4008cac0
     d34:	cccccccd 	.word	0xcccccccd
     d38:	4008cccc 	.word	0x4008cccc
     d3c:	16872b02 	.word	0x16872b02
     d40:	4008ced9 	.word	0x4008ced9
     d44:	60418937 	.word	0x60418937
     d48:	4008d0e5 	.word	0x4008d0e5
     d4c:	a9fbe76d 	.word	0xa9fbe76d
     d50:	4008d2f1 	.word	0x4008d2f1
     d54:	f3b645a2 	.word	0xf3b645a2
     d58:	4008d4fd 	.word	0x4008d4fd
     d5c:	3d70a3d7 	.word	0x3d70a3d7
     d60:	4008d70a 	.word	0x4008d70a
     d64:	872b020c 	.word	0x872b020c
     d68:	4008d916 	.word	0x4008d916
     d6c:	d0e56042 	.word	0xd0e56042
     d70:	4008db22 	.word	0x4008db22
     d74:	1a9fbe77 	.word	0x1a9fbe77
     d78:	4008dd2f 	.word	0x4008dd2f
     d7c:	645a1cac 	.word	0x645a1cac
     d80:	4008df3b 	.word	0x4008df3b
     d84:	ae147ae1 	.word	0xae147ae1
     d88:	4008e147 	.word	0x4008e147
     d8c:	f7ced917 	.word	0xf7ced917
     d90:	4008e353 	.word	0x4008e353
     d94:	4189374c 	.word	0x4189374c
     d98:	4008e560 	.word	0x4008e560
     d9c:	8b439581 	.word	0x8b439581
     da0:	4008e76c 	.word	0x4008e76c
     da4:	d4fdf3b6 	.word	0xd4fdf3b6
     da8:	4008e978 	.word	0x4008e978
     dac:	1eb851ec 	.word	0x1eb851ec
     db0:	4008eb85 	.word	0x4008eb85
     db4:	6872b021 	.word	0x6872b021
     db8:	4008ed91 	.word	0x4008ed91
     dbc:	b22d0e56 	.word	0xb22d0e56
     dc0:	4008ef9d 	.word	0x4008ef9d
     dc4:	fbe76c8b 	.word	0xfbe76c8b
     dc8:	4008f1a9 	.word	0x4008f1a9
     dcc:	45a1cac1 	.word	0x45a1cac1
     dd0:	4008f3b6 	.word	0x4008f3b6
     dd4:	8f5c28f6 	.word	0x8f5c28f6
     dd8:	4008f5c2 	.word	0x4008f5c2
     ddc:	d916872b 	.word	0xd916872b
     de0:	4008f7ce 	.word	0x4008f7ce
     de4:	22d0e560 	.word	0x22d0e560
     de8:	4008f9db 	.word	0x4008f9db
     dec:	6c8b4396 	.word	0x6c8b4396
     df0:	4008fbe7 	.word	0x4008fbe7
     df4:	b645a1cb 	.word	0xb645a1cb
     df8:	4008fdf3 	.word	0x4008fdf3
     dfc:	00000000 	.word	0x00000000
     e00:	40090000 	.word	0x40090000
     e04:	49ba5e35 	.word	0x49ba5e35
     e08:	4009020c 	.word	0x4009020c
     e0c:	9374bc6a 	.word	0x9374bc6a
     e10:	40090418 	.word	0x40090418
     e14:	dd2f1aa0 	.word	0xdd2f1aa0
     e18:	40090624 	.word	0x40090624
     e1c:	24dd2f1b 	.word	0x24dd2f1b
     e20:	40100106 	.word	0x40100106
     e24:	49ba5e35 	.word	0x49ba5e35
     e28:	4010020c 	.word	0x4010020c
     e2c:	6e978d50 	.word	0x6e978d50
     e30:	40100312 	.word	0x40100312
     e34:	9374bc6a 	.word	0x9374bc6a
     e38:	40100418 	.word	0x40100418
     e3c:	b851eb85 	.word	0xb851eb85
     e40:	4010051e 	.word	0x4010051e
     e44:	dd2f1aa0 	.word	0xdd2f1aa0
     e48:	40100624 	.word	0x40100624
     e4c:	020c49ba 	.word	0x020c49ba
     e50:	4010072b 	.word	0x4010072b
     e54:	26e978d5 	.word	0x26e978d5
     e58:	40100831 	.word	0x40100831
     e5c:	4bc6a7f0 	.word	0x4bc6a7f0
     e60:	40100937 	.word	0x40100937
     e64:	70a3d70a 	.word	0x70a3d70a
     e68:	40100a3d 	.word	0x40100a3d
     e6c:	95810625 	.word	0x95810625
     e70:	40100b43 	.word	0x40100b43
     e74:	ba5e353f 	.word	0xba5e353f
     e78:	40100c49 	.word	0x40100c49
     e7c:	df3b645a 	.word	0xdf3b645a
     e80:	40100d4f 	.word	0x40100d4f
     e84:	04189375 	.word	0x04189375
     e88:	40100e56 	.word	0x40100e56
     e8c:	28f5c28f 	.word	0x28f5c28f
     e90:	40100f5c 	.word	0x40100f5c
     e94:	4dd2f1aa 	.word	0x4dd2f1aa
     e98:	40101062 	.word	0x40101062
     e9c:	72b020c5 	.word	0x72b020c5
     ea0:	40101168 	.word	0x40101168
     ea4:	978d4fdf 	.word	0x978d4fdf
     ea8:	4010126e 	.word	0x4010126e
     eac:	bc6a7efa 	.word	0xbc6a7efa
     eb0:	40101374 	.word	0x40101374
     eb4:	e147ae14 	.word	0xe147ae14
     eb8:	4010147a 	.word	0x4010147a
     ebc:	0624dd2f 	.word	0x0624dd2f
     ec0:	40101581 	.word	0x40101581
     ec4:	2b020c4a 	.word	0x2b020c4a
     ec8:	40101687 	.word	0x40101687
     ecc:	4fdf3b64 	.word	0x4fdf3b64
     ed0:	4010178d 	.word	0x4010178d
     ed4:	74bc6a7f 	.word	0x74bc6a7f
     ed8:	40101893 	.word	0x40101893
     edc:	9999999a 	.word	0x9999999a
     ee0:	40101999 	.word	0x40101999
     ee4:	be76c8b4 	.word	0xbe76c8b4
     ee8:	40101a9f 	.word	0x40101a9f
     eec:	e353f7cf 	.word	0xe353f7cf
     ef0:	40101ba5 	.word	0x40101ba5
     ef4:	083126e9 	.word	0x083126e9
     ef8:	40101cac 	.word	0x40101cac
     efc:	2d0e5604 	.word	0x2d0e5604
     f00:	40101db2 	.word	0x40101db2
     f04:	51eb851f 	.word	0x51eb851f
     f08:	40101eb8 	.word	0x40101eb8
     f0c:	76c8b439 	.word	0x76c8b439
     f10:	40101fbe 	.word	0x40101fbe
     f14:	9ba5e354 	.word	0x9ba5e354
     f18:	401020c4 	.word	0x401020c4
     f1c:	c083126f 	.word	0xc083126f
     f20:	401021ca 	.word	0x401021ca
     f24:	e5604189 	.word	0xe5604189
     f28:	401022d0 	.word	0x401022d0
     f2c:	0a3d70a4 	.word	0x0a3d70a4
     f30:	401023d7 	.word	0x401023d7
     f34:	2f1a9fbe 	.word	0x2f1a9fbe
     f38:	401024dd 	.word	0x401024dd
     f3c:	53f7ced9 	.word	0x53f7ced9
     f40:	401025e3 	.word	0x401025e3
     f44:	78d4fdf4 	.word	0x78d4fdf4
     f48:	401026e9 	.word	0x401026e9
     f4c:	9db22d0e 	.word	0x9db22d0e
     f50:	401027ef 	.word	0x401027ef
     f54:	c28f5c29 	.word	0xc28f5c29
     f58:	401028f5 	.word	0x401028f5
     f5c:	e76c8b44 	.word	0xe76c8b44
     f60:	401029fb 	.word	0x401029fb
     f64:	0c49ba5e 	.word	0x0c49ba5e
     f68:	40102b02 	.word	0x40102b02
     f6c:	3126e979 	.word	0x3126e979
     f70:	40102c08 	.word	0x40102c08
     f74:	56041893 	.word	0x56041893
     f78:	40102d0e 	.word	0x40102d0e
     f7c:	7ae147ae 	.word	0x7ae147ae
     f80:	40102e14 	.word	0x40102e14
     f84:	9fbe76c9 	.word	0x9fbe76c9
     f88:	40102f1a 	.word	0x40102f1a
     f8c:	c49ba5e3 	.word	0xc49ba5e3
     f90:	40103020 	.word	0x40103020
     f94:	e978d4fe 	.word	0xe978d4fe
     f98:	40103126 	.word	0x40103126
     f9c:	0e560419 	.word	0x0e560419
     fa0:	4010322d 	.word	0x4010322d
     fa4:	33333333 	.word	0x33333333
     fa8:	40103333 	.word	0x40103333
     fac:	5810624e 	.word	0x5810624e
     fb0:	40103439 	.word	0x40103439
     fb4:	7ced9168 	.word	0x7ced9168
     fb8:	4010353f 	.word	0x4010353f
     fbc:	a1cac083 	.word	0xa1cac083
     fc0:	40103645 	.word	0x40103645
     fc4:	c6a7ef9e 	.word	0xc6a7ef9e
     fc8:	4010374b 	.word	0x4010374b
     fcc:	eb851eb8 	.word	0xeb851eb8
     fd0:	40103851 	.word	0x40103851
     fd4:	10624dd3 	.word	0x10624dd3
     fd8:	40103958 	.word	0x40103958
     fdc:	353f7cee 	.word	0x353f7cee
     fe0:	40103a5e 	.word	0x40103a5e
     fe4:	5a1cac08 	.word	0x5a1cac08
     fe8:	40103b64 	.word	0x40103b64
     fec:	7ef9db23 	.word	0x7ef9db23
     ff0:	40103c6a 	.word	0x40103c6a
     ff4:	a3d70a3d 	.word	0xa3d70a3d
     ff8:	40103d70 	.word	0x40103d70
     ffc:	c8b43958 	.word	0xc8b43958
    1000:	40103e76 	.word	0x40103e76
    1004:	ed916873 	.word	0xed916873
    1008:	40103f7c 	.word	0x40103f7c
    100c:	126e978d 	.word	0x126e978d
    1010:	40104083 	.word	0x40104083
    1014:	374bc6a8 	.word	0x374bc6a8
    1018:	40104189 	.word	0x40104189
    101c:	5c28f5c3 	.word	0x5c28f5c3
    1020:	4010428f 	.word	0x4010428f
    1024:	810624dd 	.word	0x810624dd
    1028:	40104395 	.word	0x40104395
    102c:	a5e353f8 	.word	0xa5e353f8
    1030:	4010449b 	.word	0x4010449b
    1034:	cac08312 	.word	0xcac08312
    1038:	401045a1 	.word	0x401045a1
    103c:	ef9db22d 	.word	0xef9db22d
    1040:	401046a7 	.word	0x401046a7
    1044:	147ae148 	.word	0x147ae148
    1048:	401047ae 	.word	0x401047ae
    104c:	39581062 	.word	0x39581062
    1050:	401048b4 	.word	0x401048b4
    1054:	5e353f7d 	.word	0x5e353f7d
    1058:	401049ba 	.word	0x401049ba
    105c:	83126e98 	.word	0x83126e98
    1060:	40104ac0 	.word	0x40104ac0
    1064:	a7ef9db2 	.word	0xa7ef9db2
    1068:	40104bc6 	.word	0x40104bc6
    106c:	cccccccd 	.word	0xcccccccd
    1070:	40104ccc 	.word	0x40104ccc
    1074:	f1a9fbe7 	.word	0xf1a9fbe7
    1078:	40104dd2 	.word	0x40104dd2
    107c:	16872b02 	.word	0x16872b02
    1080:	40104ed9 	.word	0x40104ed9
    1084:	3b645a1d 	.word	0x3b645a1d
    1088:	40104fdf 	.word	0x40104fdf
    108c:	60418937 	.word	0x60418937
    1090:	401050e5 	.word	0x401050e5
    1094:	851eb852 	.word	0x851eb852
    1098:	401051eb 	.word	0x401051eb
    109c:	a9fbe76d 	.word	0xa9fbe76d
    10a0:	401052f1 	.word	0x401052f1
    10a4:	ced91687 	.word	0xced91687
    10a8:	401053f7 	.word	0x401053f7
    10ac:	f3b645a2 	.word	0xf3b645a2
    10b0:	401054fd 	.word	0x401054fd
    10b4:	189374bc 	.word	0x189374bc
    10b8:	40105604 	.word	0x40105604
    10bc:	3d70a3d7 	.word	0x3d70a3d7
    10c0:	4010570a 	.word	0x4010570a
    10c4:	624dd2f2 	.word	0x624dd2f2
    10c8:	40105810 	.word	0x40105810
    10cc:	872b020c 	.word	0x872b020c
    10d0:	40105916 	.word	0x40105916
    10d4:	ac083127 	.word	0xac083127
    10d8:	40105a1c 	.word	0x40105a1c
    10dc:	d0e56042 	.word	0xd0e56042
    10e0:	40105b22 	.word	0x40105b22
    10e4:	f5c28f5c 	.word	0xf5c28f5c
    10e8:	40105c28 	.word	0x40105c28
    10ec:	1a9fbe77 	.word	0x1a9fbe77
    10f0:	40105d2f 	.word	0x40105d2f
    10f4:	3f7ced91 	.word	0x3f7ced91
    10f8:	40105e35 	.word	0x40105e35
    10fc:	645a1cac 	.word	0x645a1cac
    1100:	40105f3b 	.word	0x40105f3b
    1104:	89374bc7 	.word	0x89374bc7
    1108:	40106041 	.word	0x40106041
    110c:	ae147ae1 	.word	0xae147ae1
    1110:	40106147 	.word	0x40106147
    1114:	d2f1a9fc 	.word	0xd2f1a9fc
    1118:	4010624d 	.word	0x4010624d
    111c:	f7ced917 	.word	0xf7ced917
    1120:	40106353 	.word	0x40106353
    1124:	1cac0831 	.word	0x1cac0831
    1128:	4010645a 	.word	0x4010645a
    112c:	4189374c 	.word	0x4189374c
    1130:	40106560 	.word	0x40106560
    1134:	66666666 	.word	0x66666666
    1138:	40106666 	.word	0x40106666
    113c:	8b439581 	.word	0x8b439581
    1140:	4010676c 	.word	0x4010676c
    1144:	b020c49c 	.word	0xb020c49c
    1148:	40106872 	.word	0x40106872
    114c:	d4fdf3b6 	.word	0xd4fdf3b6
    1150:	40106978 	.word	0x40106978
    1154:	f9db22d1 	.word	0xf9db22d1
    1158:	40106a7e 	.word	0x40106a7e
    115c:	1eb851ec 	.word	0x1eb851ec
    1160:	40106b85 	.word	0x40106b85
    1164:	43958106 	.word	0x43958106
    1168:	40106c8b 	.word	0x40106c8b
    116c:	6872b021 	.word	0x6872b021
    1170:	40106d91 	.word	0x40106d91
    1174:	8d4fdf3b 	.word	0x8d4fdf3b
    1178:	40106e97 	.word	0x40106e97
    117c:	b22d0e56 	.word	0xb22d0e56
    1180:	40106f9d 	.word	0x40106f9d
    1184:	d70a3d71 	.word	0xd70a3d71
    1188:	401070a3 	.word	0x401070a3
    118c:	fbe76c8b 	.word	0xfbe76c8b
    1190:	401071a9 	.word	0x401071a9
    1194:	20c49ba6 	.word	0x20c49ba6
    1198:	401072b0 	.word	0x401072b0
    119c:	45a1cac1 	.word	0x45a1cac1
    11a0:	401073b6 	.word	0x401073b6
    11a4:	6a7ef9db 	.word	0x6a7ef9db
    11a8:	401074bc 	.word	0x401074bc
    11ac:	8f5c28f6 	.word	0x8f5c28f6
    11b0:	401075c2 	.word	0x401075c2
    11b4:	b4395810 	.word	0xb4395810
    11b8:	401076c8 	.word	0x401076c8
    11bc:	d916872b 	.word	0xd916872b
    11c0:	401077ce 	.word	0x401077ce
    11c4:	fdf3b646 	.word	0xfdf3b646
    11c8:	401078d4 	.word	0x401078d4
    11cc:	22d0e560 	.word	0x22d0e560
    11d0:	401079db 	.word	0x401079db
    11d4:	47ae147b 	.word	0x47ae147b
    11d8:	40107ae1 	.word	0x40107ae1
    11dc:	6c8b4396 	.word	0x6c8b4396
    11e0:	40107be7 	.word	0x40107be7
    11e4:	916872b0 	.word	0x916872b0
    11e8:	40107ced 	.word	0x40107ced
    11ec:	b645a1cb 	.word	0xb645a1cb
    11f0:	40107df3 	.word	0x40107df3
    11f4:	db22d0e5 	.word	0xdb22d0e5
    11f8:	40107ef9 	.word	0x40107ef9
    11fc:	00000000 	.word	0x00000000
    1200:	40108000 	.word	0x40108000
    1204:	24dd2f1b 	.word	0x24dd2f1b
    1208:	40108106 	.word	0x40108106
    120c:	49ba5e35 	.word	0x49ba5e35
    1210:	4010820c 	.word	0x4010820c
    1214:	6e978d50 	.word	0x6e978d50
    1218:	40108312 	.word	0x40108312
    121c:	24dd2f1b 	.word	0x24dd2f1b
    1220:	40140106 	.word	0x40140106
    1224:	49ba5e35 	.word	0x49ba5e35
    1228:	4014020c 	.word	0x4014020c
    122c:	6e978d50 	.word	0x6e978d50
    1230:	40140312 	.word	0x40140312
    1234:	9374bc6a 	.word	0x9374bc6a
    1238:	40140418 	.word	0x40140418
    123c:	b851eb85 	.word	0xb851eb85
    1240:	4014051e 	.word	0x4014051e
    1244:	dd2f1aa0 	.word	0xdd2f1aa0
    1248:	40140624 	.word	0x40140624
    124c:	020c49ba 	.word	0x020c49ba
    1250:	4014072b 	.word	0x4014072b
    1254:	26e978d5 	.word	0x26e978d5
    1258:	40140831 	.word	0x40140831
    125c:	4bc6a7f0 	.word	0x4bc6a7f0
    1260:	40140937 	.word	0x40140937
    1264:	70a3d70a 	.word	0x70a3d70a
    1268:	40140a3d 	.word	0x40140a3d
    126c:	95810625 	.word	0x95810625
    1270:	40140b43 	.word	0x40140b43
    1274:	ba5e353f 	.word	0xba5e353f
    1278:	40140c49 	.word	0x40140c49
    127c:	df3b645a 	.word	0xdf3b645a
    1280:	40140d4f 	.word	0x40140d4f
    1284:	04189375 	.word	0x04189375
    1288:	40140e56 	.word	0x40140e56
    128c:	28f5c28f 	.word	0x28f5c28f
    1290:	40140f5c 	.word	0x40140f5c
    1294:	4dd2f1aa 	.word	0x4dd2f1aa
    1298:	40141062 	.word	0x40141062
    129c:	72b020c5 	.word	0x72b020c5
    12a0:	40141168 	.word	0x40141168
    12a4:	978d4fdf 	.word	0x978d4fdf
    12a8:	4014126e 	.word	0x4014126e
    12ac:	bc6a7efa 	.word	0xbc6a7efa
    12b0:	40141374 	.word	0x40141374
    12b4:	e147ae14 	.word	0xe147ae14
    12b8:	4014147a 	.word	0x4014147a
    12bc:	0624dd2f 	.word	0x0624dd2f
    12c0:	40141581 	.word	0x40141581
    12c4:	2b020c4a 	.word	0x2b020c4a
    12c8:	40141687 	.word	0x40141687
    12cc:	4fdf3b64 	.word	0x4fdf3b64
    12d0:	4014178d 	.word	0x4014178d
    12d4:	74bc6a7f 	.word	0x74bc6a7f
    12d8:	40141893 	.word	0x40141893
    12dc:	9999999a 	.word	0x9999999a
    12e0:	40141999 	.word	0x40141999
    12e4:	be76c8b4 	.word	0xbe76c8b4
    12e8:	40141a9f 	.word	0x40141a9f
    12ec:	e353f7cf 	.word	0xe353f7cf
    12f0:	40141ba5 	.word	0x40141ba5
    12f4:	083126e9 	.word	0x083126e9
    12f8:	40141cac 	.word	0x40141cac
    12fc:	2d0e5604 	.word	0x2d0e5604
    1300:	40141db2 	.word	0x40141db2
    1304:	51eb851f 	.word	0x51eb851f
    1308:	40141eb8 	.word	0x40141eb8
    130c:	76c8b439 	.word	0x76c8b439
    1310:	40141fbe 	.word	0x40141fbe
    1314:	9ba5e354 	.word	0x9ba5e354
    1318:	401420c4 	.word	0x401420c4
    131c:	c083126f 	.word	0xc083126f
    1320:	401421ca 	.word	0x401421ca
    1324:	e5604189 	.word	0xe5604189
    1328:	401422d0 	.word	0x401422d0
    132c:	0a3d70a4 	.word	0x0a3d70a4
    1330:	401423d7 	.word	0x401423d7
    1334:	2f1a9fbe 	.word	0x2f1a9fbe
    1338:	401424dd 	.word	0x401424dd
    133c:	53f7ced9 	.word	0x53f7ced9
    1340:	401425e3 	.word	0x401425e3
    1344:	78d4fdf4 	.word	0x78d4fdf4
    1348:	401426e9 	.word	0x401426e9
    134c:	9db22d0e 	.word	0x9db22d0e
    1350:	401427ef 	.word	0x401427ef
    1354:	c28f5c29 	.word	0xc28f5c29
    1358:	401428f5 	.word	0x401428f5
    135c:	e76c8b44 	.word	0xe76c8b44
    1360:	401429fb 	.word	0x401429fb
    1364:	0c49ba5e 	.word	0x0c49ba5e
    1368:	40142b02 	.word	0x40142b02
    136c:	3126e979 	.word	0x3126e979
    1370:	40142c08 	.word	0x40142c08
    1374:	56041893 	.word	0x56041893
    1378:	40142d0e 	.word	0x40142d0e
    137c:	7ae147ae 	.word	0x7ae147ae
    1380:	40142e14 	.word	0x40142e14
    1384:	9fbe76c9 	.word	0x9fbe76c9
    1388:	40142f1a 	.word	0x40142f1a
    138c:	c49ba5e3 	.word	0xc49ba5e3
    1390:	40143020 	.word	0x40143020
    1394:	e978d4fe 	.word	0xe978d4fe
    1398:	40143126 	.word	0x40143126
    139c:	0e560419 	.word	0x0e560419
    13a0:	4014322d 	.word	0x4014322d
    13a4:	33333333 	.word	0x33333333
    13a8:	40143333 	.word	0x40143333
    13ac:	5810624e 	.word	0x5810624e
    13b0:	40143439 	.word	0x40143439
    13b4:	7ced9168 	.word	0x7ced9168
    13b8:	4014353f 	.word	0x4014353f
    13bc:	a1cac083 	.word	0xa1cac083
    13c0:	40143645 	.word	0x40143645
    13c4:	c6a7ef9e 	.word	0xc6a7ef9e
    13c8:	4014374b 	.word	0x4014374b
    13cc:	eb851eb8 	.word	0xeb851eb8
    13d0:	40143851 	.word	0x40143851
    13d4:	10624dd3 	.word	0x10624dd3
    13d8:	40143958 	.word	0x40143958
    13dc:	353f7cee 	.word	0x353f7cee
    13e0:	40143a5e 	.word	0x40143a5e
    13e4:	5a1cac08 	.word	0x5a1cac08
    13e8:	40143b64 	.word	0x40143b64
    13ec:	7ef9db23 	.word	0x7ef9db23
    13f0:	40143c6a 	.word	0x40143c6a
    13f4:	a3d70a3d 	.word	0xa3d70a3d
    13f8:	40143d70 	.word	0x40143d70
    13fc:	c8b43958 	.word	0xc8b43958
    1400:	40143e76 	.word	0x40143e76
    1404:	ed916873 	.word	0xed916873
    1408:	40143f7c 	.word	0x40143f7c
    140c:	126e978d 	.word	0x126e978d
    1410:	40144083 	.word	0x40144083
    1414:	374bc6a8 	.word	0x374bc6a8
    1418:	40144189 	.word	0x40144189
    141c:	5c28f5c3 	.word	0x5c28f5c3
    1420:	4014428f 	.word	0x4014428f
    1424:	810624dd 	.word	0x810624dd
    1428:	40144395 	.word	0x40144395
    142c:	a5e353f8 	.word	0xa5e353f8
    1430:	4014449b 	.word	0x4014449b
    1434:	cac08312 	.word	0xcac08312
    1438:	401445a1 	.word	0x401445a1
    143c:	ef9db22d 	.word	0xef9db22d
    1440:	401446a7 	.word	0x401446a7
    1444:	147ae148 	.word	0x147ae148
    1448:	401447ae 	.word	0x401447ae
    144c:	39581062 	.word	0x39581062
    1450:	401448b4 	.word	0x401448b4
    1454:	5e353f7d 	.word	0x5e353f7d
    1458:	401449ba 	.word	0x401449ba
    145c:	83126e98 	.word	0x83126e98
    1460:	40144ac0 	.word	0x40144ac0
    1464:	a7ef9db2 	.word	0xa7ef9db2
    1468:	40144bc6 	.word	0x40144bc6
    146c:	cccccccd 	.word	0xcccccccd
    1470:	40144ccc 	.word	0x40144ccc
    1474:	f1a9fbe7 	.word	0xf1a9fbe7
    1478:	40144dd2 	.word	0x40144dd2
    147c:	16872b02 	.word	0x16872b02
    1480:	40144ed9 	.word	0x40144ed9
    1484:	3b645a1d 	.word	0x3b645a1d
    1488:	40144fdf 	.word	0x40144fdf
    148c:	60418937 	.word	0x60418937
    1490:	401450e5 	.word	0x401450e5
    1494:	851eb852 	.word	0x851eb852
    1498:	401451eb 	.word	0x401451eb
    149c:	a9fbe76d 	.word	0xa9fbe76d
    14a0:	401452f1 	.word	0x401452f1
    14a4:	ced91687 	.word	0xced91687
    14a8:	401453f7 	.word	0x401453f7
    14ac:	f3b645a2 	.word	0xf3b645a2
    14b0:	401454fd 	.word	0x401454fd
    14b4:	189374bc 	.word	0x189374bc
    14b8:	40145604 	.word	0x40145604
    14bc:	3d70a3d7 	.word	0x3d70a3d7
    14c0:	4014570a 	.word	0x4014570a
    14c4:	624dd2f2 	.word	0x624dd2f2
    14c8:	40145810 	.word	0x40145810
    14cc:	872b020c 	.word	0x872b020c
    14d0:	40145916 	.word	0x40145916
    14d4:	ac083127 	.word	0xac083127
    14d8:	40145a1c 	.word	0x40145a1c
    14dc:	d0e56042 	.word	0xd0e56042
    14e0:	40145b22 	.word	0x40145b22
    14e4:	f5c28f5c 	.word	0xf5c28f5c
    14e8:	40145c28 	.word	0x40145c28
    14ec:	1a9fbe77 	.word	0x1a9fbe77
    14f0:	40145d2f 	.word	0x40145d2f
    14f4:	3f7ced91 	.word	0x3f7ced91
    14f8:	40145e35 	.word	0x40145e35
    14fc:	645a1cac 	.word	0x645a1cac
    1500:	40145f3b 	.word	0x40145f3b
    1504:	89374bc7 	.word	0x89374bc7
    1508:	40146041 	.word	0x40146041
    150c:	ae147ae1 	.word	0xae147ae1
    1510:	40146147 	.word	0x40146147
    1514:	d2f1a9fc 	.word	0xd2f1a9fc
    1518:	4014624d 	.word	0x4014624d
    151c:	f7ced917 	.word	0xf7ced917
    1520:	40146353 	.word	0x40146353
    1524:	1cac0831 	.word	0x1cac0831
    1528:	4014645a 	.word	0x4014645a
    152c:	4189374c 	.word	0x4189374c
    1530:	40146560 	.word	0x40146560
    1534:	66666666 	.word	0x66666666
    1538:	40146666 	.word	0x40146666
    153c:	8b439581 	.word	0x8b439581
    1540:	4014676c 	.word	0x4014676c
    1544:	b020c49c 	.word	0xb020c49c
    1548:	40146872 	.word	0x40146872
    154c:	d4fdf3b6 	.word	0xd4fdf3b6
    1550:	40146978 	.word	0x40146978
    1554:	f9db22d1 	.word	0xf9db22d1
    1558:	40146a7e 	.word	0x40146a7e
    155c:	1eb851ec 	.word	0x1eb851ec
    1560:	40146b85 	.word	0x40146b85
    1564:	43958106 	.word	0x43958106
    1568:	40146c8b 	.word	0x40146c8b
    156c:	6872b021 	.word	0x6872b021
    1570:	40146d91 	.word	0x40146d91
    1574:	8d4fdf3b 	.word	0x8d4fdf3b
    1578:	40146e97 	.word	0x40146e97
    157c:	b22d0e56 	.word	0xb22d0e56
    1580:	40146f9d 	.word	0x40146f9d
    1584:	d70a3d71 	.word	0xd70a3d71
    1588:	401470a3 	.word	0x401470a3
    158c:	fbe76c8b 	.word	0xfbe76c8b
    1590:	401471a9 	.word	0x401471a9
    1594:	20c49ba6 	.word	0x20c49ba6
    1598:	401472b0 	.word	0x401472b0
    159c:	45a1cac1 	.word	0x45a1cac1
    15a0:	401473b6 	.word	0x401473b6
    15a4:	6a7ef9db 	.word	0x6a7ef9db
    15a8:	401474bc 	.word	0x401474bc
    15ac:	8f5c28f6 	.word	0x8f5c28f6
    15b0:	401475c2 	.word	0x401475c2
    15b4:	b4395810 	.word	0xb4395810
    15b8:	401476c8 	.word	0x401476c8
    15bc:	d916872b 	.word	0xd916872b
    15c0:	401477ce 	.word	0x401477ce
    15c4:	fdf3b646 	.word	0xfdf3b646
    15c8:	401478d4 	.word	0x401478d4
    15cc:	22d0e560 	.word	0x22d0e560
    15d0:	401479db 	.word	0x401479db
    15d4:	47ae147b 	.word	0x47ae147b
    15d8:	40147ae1 	.word	0x40147ae1
    15dc:	6c8b4396 	.word	0x6c8b4396
    15e0:	40147be7 	.word	0x40147be7
    15e4:	916872b0 	.word	0x916872b0
    15e8:	40147ced 	.word	0x40147ced
    15ec:	b645a1cb 	.word	0xb645a1cb
    15f0:	40147df3 	.word	0x40147df3
    15f4:	db22d0e5 	.word	0xdb22d0e5
    15f8:	40147ef9 	.word	0x40147ef9
    15fc:	00000000 	.word	0x00000000
    1600:	40148000 	.word	0x40148000
    1604:	24dd2f1b 	.word	0x24dd2f1b
    1608:	40148106 	.word	0x40148106
    160c:	49ba5e35 	.word	0x49ba5e35
    1610:	4014820c 	.word	0x4014820c
    1614:	6e978d50 	.word	0x6e978d50
    1618:	40148312 	.word	0x40148312
    161c:	24dd2f1b 	.word	0x24dd2f1b
    1620:	40180106 	.word	0x40180106
    1624:	49ba5e35 	.word	0x49ba5e35
    1628:	4018020c 	.word	0x4018020c
    162c:	6e978d50 	.word	0x6e978d50
    1630:	40180312 	.word	0x40180312
    1634:	9374bc6a 	.word	0x9374bc6a
    1638:	40180418 	.word	0x40180418
    163c:	b851eb85 	.word	0xb851eb85
    1640:	4018051e 	.word	0x4018051e
    1644:	dd2f1aa0 	.word	0xdd2f1aa0
    1648:	40180624 	.word	0x40180624
    164c:	020c49ba 	.word	0x020c49ba
    1650:	4018072b 	.word	0x4018072b
    1654:	26e978d5 	.word	0x26e978d5
    1658:	40180831 	.word	0x40180831
    165c:	4bc6a7f0 	.word	0x4bc6a7f0
    1660:	40180937 	.word	0x40180937
    1664:	70a3d70a 	.word	0x70a3d70a
    1668:	40180a3d 	.word	0x40180a3d
    166c:	95810625 	.word	0x95810625
    1670:	40180b43 	.word	0x40180b43
    1674:	ba5e353f 	.word	0xba5e353f
    1678:	40180c49 	.word	0x40180c49
    167c:	df3b645a 	.word	0xdf3b645a
    1680:	40180d4f 	.word	0x40180d4f
    1684:	04189375 	.word	0x04189375
    1688:	40180e56 	.word	0x40180e56
    168c:	28f5c28f 	.word	0x28f5c28f
    1690:	40180f5c 	.word	0x40180f5c
    1694:	4dd2f1aa 	.word	0x4dd2f1aa
    1698:	40181062 	.word	0x40181062
    169c:	72b020c5 	.word	0x72b020c5
    16a0:	40181168 	.word	0x40181168
    16a4:	978d4fdf 	.word	0x978d4fdf
    16a8:	4018126e 	.word	0x4018126e
    16ac:	bc6a7efa 	.word	0xbc6a7efa
    16b0:	40181374 	.word	0x40181374
    16b4:	e147ae14 	.word	0xe147ae14
    16b8:	4018147a 	.word	0x4018147a
    16bc:	0624dd2f 	.word	0x0624dd2f
    16c0:	40181581 	.word	0x40181581
    16c4:	2b020c4a 	.word	0x2b020c4a
    16c8:	40181687 	.word	0x40181687
    16cc:	4fdf3b64 	.word	0x4fdf3b64
    16d0:	4018178d 	.word	0x4018178d
    16d4:	74bc6a7f 	.word	0x74bc6a7f
    16d8:	40181893 	.word	0x40181893
    16dc:	9999999a 	.word	0x9999999a
    16e0:	40181999 	.word	0x40181999
    16e4:	be76c8b4 	.word	0xbe76c8b4
    16e8:	40181a9f 	.word	0x40181a9f
    16ec:	e353f7cf 	.word	0xe353f7cf
    16f0:	40181ba5 	.word	0x40181ba5
    16f4:	083126e9 	.word	0x083126e9
    16f8:	40181cac 	.word	0x40181cac
    16fc:	2d0e5604 	.word	0x2d0e5604
    1700:	40181db2 	.word	0x40181db2
    1704:	51eb851f 	.word	0x51eb851f
    1708:	40181eb8 	.word	0x40181eb8
    170c:	76c8b439 	.word	0x76c8b439
    1710:	40181fbe 	.word	0x40181fbe
    1714:	9ba5e354 	.word	0x9ba5e354
    1718:	401820c4 	.word	0x401820c4
    171c:	c083126f 	.word	0xc083126f
    1720:	401821ca 	.word	0x401821ca
    1724:	e5604189 	.word	0xe5604189
    1728:	401822d0 	.word	0x401822d0
    172c:	0a3d70a4 	.word	0x0a3d70a4
    1730:	401823d7 	.word	0x401823d7
    1734:	2f1a9fbe 	.word	0x2f1a9fbe
    1738:	401824dd 	.word	0x401824dd
    173c:	53f7ced9 	.word	0x53f7ced9
    1740:	401825e3 	.word	0x401825e3
    1744:	78d4fdf4 	.word	0x78d4fdf4
    1748:	401826e9 	.word	0x401826e9
    174c:	9db22d0e 	.word	0x9db22d0e
    1750:	401827ef 	.word	0x401827ef
    1754:	c28f5c29 	.word	0xc28f5c29
    1758:	401828f5 	.word	0x401828f5
    175c:	e76c8b44 	.word	0xe76c8b44
    1760:	401829fb 	.word	0x401829fb
    1764:	0c49ba5e 	.word	0x0c49ba5e
    1768:	40182b02 	.word	0x40182b02
    176c:	3126e979 	.word	0x3126e979
    1770:	40182c08 	.word	0x40182c08
    1774:	56041893 	.word	0x56041893
    1778:	40182d0e 	.word	0x40182d0e
    177c:	7ae147ae 	.word	0x7ae147ae
    1780:	40182e14 	.word	0x40182e14
    1784:	9fbe76c9 	.word	0x9fbe76c9
    1788:	40182f1a 	.word	0x40182f1a
    178c:	c49ba5e3 	.word	0xc49ba5e3
    1790:	40183020 	.word	0x40183020
    1794:	e978d4fe 	.word	0xe978d4fe
    1798:	40183126 	.word	0x40183126
    179c:	0e560419 	.word	0x0e560419
    17a0:	4018322d 	.word	0x4018322d
    17a4:	33333333 	.word	0x33333333
    17a8:	40183333 	.word	0x40183333
    17ac:	5810624e 	.word	0x5810624e
    17b0:	40183439 	.word	0x40183439
    17b4:	7ced9168 	.word	0x7ced9168
    17b8:	4018353f 	.word	0x4018353f
    17bc:	a1cac083 	.word	0xa1cac083
    17c0:	40183645 	.word	0x40183645
    17c4:	c6a7ef9e 	.word	0xc6a7ef9e
    17c8:	4018374b 	.word	0x4018374b
    17cc:	eb851eb8 	.word	0xeb851eb8
    17d0:	40183851 	.word	0x40183851
    17d4:	10624dd3 	.word	0x10624dd3
    17d8:	40183958 	.word	0x40183958
    17dc:	353f7cee 	.word	0x353f7cee
    17e0:	40183a5e 	.word	0x40183a5e
    17e4:	5a1cac08 	.word	0x5a1cac08
    17e8:	40183b64 	.word	0x40183b64
    17ec:	7ef9db23 	.word	0x7ef9db23
    17f0:	40183c6a 	.word	0x40183c6a
    17f4:	a3d70a3d 	.word	0xa3d70a3d
    17f8:	40183d70 	.word	0x40183d70
    17fc:	c8b43958 	.word	0xc8b43958
    1800:	40183e76 	.word	0x40183e76
    1804:	ed916873 	.word	0xed916873
    1808:	40183f7c 	.word	0x40183f7c
    180c:	126e978d 	.word	0x126e978d
    1810:	40184083 	.word	0x40184083
    1814:	374bc6a8 	.word	0x374bc6a8
    1818:	40184189 	.word	0x40184189
    181c:	5c28f5c3 	.word	0x5c28f5c3
    1820:	4018428f 	.word	0x4018428f
    1824:	810624dd 	.word	0x810624dd
    1828:	40184395 	.word	0x40184395
    182c:	a5e353f8 	.word	0xa5e353f8
    1830:	4018449b 	.word	0x4018449b
    1834:	cac08312 	.word	0xcac08312
    1838:	401845a1 	.word	0x401845a1
    183c:	ef9db22d 	.word	0xef9db22d
    1840:	401846a7 	.word	0x401846a7
    1844:	147ae148 	.word	0x147ae148
    1848:	401847ae 	.word	0x401847ae
    184c:	39581062 	.word	0x39581062
    1850:	401848b4 	.word	0x401848b4
    1854:	5e353f7d 	.word	0x5e353f7d
    1858:	401849ba 	.word	0x401849ba
    185c:	83126e98 	.word	0x83126e98
    1860:	40184ac0 	.word	0x40184ac0
    1864:	a7ef9db2 	.word	0xa7ef9db2
    1868:	40184bc6 	.word	0x40184bc6
    186c:	cccccccd 	.word	0xcccccccd
    1870:	40184ccc 	.word	0x40184ccc
    1874:	f1a9fbe7 	.word	0xf1a9fbe7
    1878:	40184dd2 	.word	0x40184dd2
    187c:	16872b02 	.word	0x16872b02
    1880:	40184ed9 	.word	0x40184ed9
    1884:	3b645a1d 	.word	0x3b645a1d
    1888:	40184fdf 	.word	0x40184fdf
    188c:	60418937 	.word	0x60418937
    1890:	401850e5 	.word	0x401850e5
    1894:	851eb852 	.word	0x851eb852
    1898:	401851eb 	.word	0x401851eb
    189c:	a9fbe76d 	.word	0xa9fbe76d
    18a0:	401852f1 	.word	0x401852f1
    18a4:	ced91687 	.word	0xced91687
    18a8:	401853f7 	.word	0x401853f7
    18ac:	f3b645a2 	.word	0xf3b645a2
    18b0:	401854fd 	.word	0x401854fd
    18b4:	189374bc 	.word	0x189374bc
    18b8:	40185604 	.word	0x40185604
    18bc:	3d70a3d7 	.word	0x3d70a3d7
    18c0:	4018570a 	.word	0x4018570a
    18c4:	624dd2f2 	.word	0x624dd2f2
    18c8:	40185810 	.word	0x40185810
    18cc:	872b020c 	.word	0x872b020c
    18d0:	40185916 	.word	0x40185916
    18d4:	ac083127 	.word	0xac083127
    18d8:	40185a1c 	.word	0x40185a1c
    18dc:	d0e56042 	.word	0xd0e56042
    18e0:	40185b22 	.word	0x40185b22
    18e4:	f5c28f5c 	.word	0xf5c28f5c
    18e8:	40185c28 	.word	0x40185c28
    18ec:	1a9fbe77 	.word	0x1a9fbe77
    18f0:	40185d2f 	.word	0x40185d2f
    18f4:	3f7ced91 	.word	0x3f7ced91
    18f8:	40185e35 	.word	0x40185e35
    18fc:	645a1cac 	.word	0x645a1cac
    1900:	40185f3b 	.word	0x40185f3b
    1904:	89374bc7 	.word	0x89374bc7
    1908:	40186041 	.word	0x40186041
    190c:	ae147ae1 	.word	0xae147ae1
    1910:	40186147 	.word	0x40186147
    1914:	d2f1a9fc 	.word	0xd2f1a9fc
    1918:	4018624d 	.word	0x4018624d
    191c:	f7ced917 	.word	0xf7ced917
    1920:	40186353 	.word	0x40186353
    1924:	1cac0831 	.word	0x1cac0831
    1928:	4018645a 	.word	0x4018645a
    192c:	4189374c 	.word	0x4189374c
    1930:	40186560 	.word	0x40186560
    1934:	66666666 	.word	0x66666666
    1938:	40186666 	.word	0x40186666
    193c:	8b439581 	.word	0x8b439581
    1940:	4018676c 	.word	0x4018676c
    1944:	b020c49c 	.word	0xb020c49c
    1948:	40186872 	.word	0x40186872
    194c:	d4fdf3b6 	.word	0xd4fdf3b6
    1950:	40186978 	.word	0x40186978
    1954:	f9db22d1 	.word	0xf9db22d1
    1958:	40186a7e 	.word	0x40186a7e
    195c:	1eb851ec 	.word	0x1eb851ec
    1960:	40186b85 	.word	0x40186b85
    1964:	43958106 	.word	0x43958106
    1968:	40186c8b 	.word	0x40186c8b
    196c:	6872b021 	.word	0x6872b021
    1970:	40186d91 	.word	0x40186d91
    1974:	8d4fdf3b 	.word	0x8d4fdf3b
    1978:	40186e97 	.word	0x40186e97
    197c:	b22d0e56 	.word	0xb22d0e56
    1980:	40186f9d 	.word	0x40186f9d
    1984:	d70a3d71 	.word	0xd70a3d71
    1988:	401870a3 	.word	0x401870a3
    198c:	fbe76c8b 	.word	0xfbe76c8b
    1990:	401871a9 	.word	0x401871a9
    1994:	20c49ba6 	.word	0x20c49ba6
    1998:	401872b0 	.word	0x401872b0
    199c:	45a1cac1 	.word	0x45a1cac1
    19a0:	401873b6 	.word	0x401873b6
    19a4:	6a7ef9db 	.word	0x6a7ef9db
    19a8:	401874bc 	.word	0x401874bc
    19ac:	8f5c28f6 	.word	0x8f5c28f6
    19b0:	401875c2 	.word	0x401875c2
    19b4:	b4395810 	.word	0xb4395810
    19b8:	401876c8 	.word	0x401876c8
    19bc:	d916872b 	.word	0xd916872b
    19c0:	401877ce 	.word	0x401877ce
    19c4:	fdf3b646 	.word	0xfdf3b646
    19c8:	401878d4 	.word	0x401878d4
    19cc:	22d0e560 	.word	0x22d0e560
    19d0:	401879db 	.word	0x401879db
    19d4:	47ae147b 	.word	0x47ae147b
    19d8:	40187ae1 	.word	0x40187ae1
    19dc:	6c8b4396 	.word	0x6c8b4396
    19e0:	40187be7 	.word	0x40187be7
    19e4:	916872b0 	.word	0x916872b0
    19e8:	40187ced 	.word	0x40187ced
    19ec:	b645a1cb 	.word	0xb645a1cb
    19f0:	40187df3 	.word	0x40187df3
    19f4:	db22d0e5 	.word	0xdb22d0e5
    19f8:	40187ef9 	.word	0x40187ef9
    19fc:	00000000 	.word	0x00000000
    1a00:	40188000 	.word	0x40188000
    1a04:	24dd2f1b 	.word	0x24dd2f1b
    1a08:	40188106 	.word	0x40188106
    1a0c:	49ba5e35 	.word	0x49ba5e35
    1a10:	4018820c 	.word	0x4018820c
    1a14:	6e978d50 	.word	0x6e978d50
    1a18:	40188312 	.word	0x40188312
    1a1c:	24dd2f1b 	.word	0x24dd2f1b
    1a20:	401c0106 	.word	0x401c0106
    1a24:	49ba5e35 	.word	0x49ba5e35
    1a28:	401c020c 	.word	0x401c020c
    1a2c:	6e978d50 	.word	0x6e978d50
    1a30:	401c0312 	.word	0x401c0312
    1a34:	9374bc6a 	.word	0x9374bc6a
    1a38:	401c0418 	.word	0x401c0418
    1a3c:	b851eb85 	.word	0xb851eb85
    1a40:	401c051e 	.word	0x401c051e
    1a44:	dd2f1aa0 	.word	0xdd2f1aa0
    1a48:	401c0624 	.word	0x401c0624
    1a4c:	020c49ba 	.word	0x020c49ba
    1a50:	401c072b 	.word	0x401c072b
    1a54:	26e978d5 	.word	0x26e978d5
    1a58:	401c0831 	.word	0x401c0831
    1a5c:	4bc6a7f0 	.word	0x4bc6a7f0
    1a60:	401c0937 	.word	0x401c0937
    1a64:	70a3d70a 	.word	0x70a3d70a
    1a68:	401c0a3d 	.word	0x401c0a3d
    1a6c:	95810625 	.word	0x95810625
    1a70:	401c0b43 	.word	0x401c0b43
    1a74:	ba5e353f 	.word	0xba5e353f
    1a78:	401c0c49 	.word	0x401c0c49
    1a7c:	df3b645a 	.word	0xdf3b645a
    1a80:	401c0d4f 	.word	0x401c0d4f
    1a84:	04189375 	.word	0x04189375
    1a88:	401c0e56 	.word	0x401c0e56
    1a8c:	28f5c28f 	.word	0x28f5c28f
    1a90:	401c0f5c 	.word	0x401c0f5c
    1a94:	4dd2f1aa 	.word	0x4dd2f1aa
    1a98:	401c1062 	.word	0x401c1062
    1a9c:	72b020c5 	.word	0x72b020c5
    1aa0:	401c1168 	.word	0x401c1168
    1aa4:	978d4fdf 	.word	0x978d4fdf
    1aa8:	401c126e 	.word	0x401c126e
    1aac:	bc6a7efa 	.word	0xbc6a7efa
    1ab0:	401c1374 	.word	0x401c1374
    1ab4:	e147ae14 	.word	0xe147ae14
    1ab8:	401c147a 	.word	0x401c147a
    1abc:	0624dd2f 	.word	0x0624dd2f
    1ac0:	401c1581 	.word	0x401c1581
    1ac4:	2b020c4a 	.word	0x2b020c4a
    1ac8:	401c1687 	.word	0x401c1687
    1acc:	4fdf3b64 	.word	0x4fdf3b64
    1ad0:	401c178d 	.word	0x401c178d
    1ad4:	74bc6a7f 	.word	0x74bc6a7f
    1ad8:	401c1893 	.word	0x401c1893
    1adc:	9999999a 	.word	0x9999999a
    1ae0:	401c1999 	.word	0x401c1999
    1ae4:	be76c8b4 	.word	0xbe76c8b4
    1ae8:	401c1a9f 	.word	0x401c1a9f
    1aec:	e353f7cf 	.word	0xe353f7cf
    1af0:	401c1ba5 	.word	0x401c1ba5
    1af4:	083126e9 	.word	0x083126e9
    1af8:	401c1cac 	.word	0x401c1cac
    1afc:	2d0e5604 	.word	0x2d0e5604
    1b00:	401c1db2 	.word	0x401c1db2
    1b04:	51eb851f 	.word	0x51eb851f
    1b08:	401c1eb8 	.word	0x401c1eb8
    1b0c:	76c8b439 	.word	0x76c8b439
    1b10:	401c1fbe 	.word	0x401c1fbe
    1b14:	9ba5e354 	.word	0x9ba5e354
    1b18:	401c20c4 	.word	0x401c20c4
    1b1c:	c083126f 	.word	0xc083126f
    1b20:	401c21ca 	.word	0x401c21ca
    1b24:	e5604189 	.word	0xe5604189
    1b28:	401c22d0 	.word	0x401c22d0
    1b2c:	0a3d70a4 	.word	0x0a3d70a4
    1b30:	401c23d7 	.word	0x401c23d7
    1b34:	2f1a9fbe 	.word	0x2f1a9fbe
    1b38:	401c24dd 	.word	0x401c24dd
    1b3c:	53f7ced9 	.word	0x53f7ced9
    1b40:	401c25e3 	.word	0x401c25e3
    1b44:	78d4fdf4 	.word	0x78d4fdf4
    1b48:	401c26e9 	.word	0x401c26e9
    1b4c:	9db22d0e 	.word	0x9db22d0e
    1b50:	401c27ef 	.word	0x401c27ef
    1b54:	c28f5c29 	.word	0xc28f5c29
    1b58:	401c28f5 	.word	0x401c28f5
    1b5c:	e76c8b44 	.word	0xe76c8b44
    1b60:	401c29fb 	.word	0x401c29fb
    1b64:	0c49ba5e 	.word	0x0c49ba5e
    1b68:	401c2b02 	.word	0x401c2b02
    1b6c:	3126e979 	.word	0x3126e979
    1b70:	401c2c08 	.word	0x401c2c08
    1b74:	56041893 	.word	0x56041893
    1b78:	401c2d0e 	.word	0x401c2d0e
    1b7c:	7ae147ae 	.word	0x7ae147ae
    1b80:	401c2e14 	.word	0x401c2e14
    1b84:	9fbe76c9 	.word	0x9fbe76c9
    1b88:	401c2f1a 	.word	0x401c2f1a
    1b8c:	c49ba5e3 	.word	0xc49ba5e3
    1b90:	401c3020 	.word	0x401c3020
    1b94:	e978d4fe 	.word	0xe978d4fe
    1b98:	401c3126 	.word	0x401c3126
    1b9c:	0e560419 	.word	0x0e560419
    1ba0:	401c322d 	.word	0x401c322d
    1ba4:	33333333 	.word	0x33333333
    1ba8:	401c3333 	.word	0x401c3333
    1bac:	5810624e 	.word	0x5810624e
    1bb0:	401c3439 	.word	0x401c3439
    1bb4:	7ced9168 	.word	0x7ced9168
    1bb8:	401c353f 	.word	0x401c353f
    1bbc:	a1cac083 	.word	0xa1cac083
    1bc0:	401c3645 	.word	0x401c3645
    1bc4:	c6a7ef9e 	.word	0xc6a7ef9e
    1bc8:	401c374b 	.word	0x401c374b
    1bcc:	eb851eb8 	.word	0xeb851eb8
    1bd0:	401c3851 	.word	0x401c3851
    1bd4:	10624dd3 	.word	0x10624dd3
    1bd8:	401c3958 	.word	0x401c3958
    1bdc:	353f7cee 	.word	0x353f7cee
    1be0:	401c3a5e 	.word	0x401c3a5e
    1be4:	5a1cac08 	.word	0x5a1cac08
    1be8:	401c3b64 	.word	0x401c3b64
    1bec:	7ef9db23 	.word	0x7ef9db23
    1bf0:	401c3c6a 	.word	0x401c3c6a
    1bf4:	a3d70a3d 	.word	0xa3d70a3d
    1bf8:	401c3d70 	.word	0x401c3d70
    1bfc:	c8b43958 	.word	0xc8b43958
    1c00:	401c3e76 	.word	0x401c3e76
    1c04:	ed916873 	.word	0xed916873
    1c08:	401c3f7c 	.word	0x401c3f7c
    1c0c:	126e978d 	.word	0x126e978d
    1c10:	401c4083 	.word	0x401c4083
    1c14:	374bc6a8 	.word	0x374bc6a8
    1c18:	401c4189 	.word	0x401c4189
    1c1c:	5c28f5c3 	.word	0x5c28f5c3
    1c20:	401c428f 	.word	0x401c428f
    1c24:	810624dd 	.word	0x810624dd
    1c28:	401c4395 	.word	0x401c4395
    1c2c:	a5e353f8 	.word	0xa5e353f8
    1c30:	401c449b 	.word	0x401c449b
    1c34:	cac08312 	.word	0xcac08312
    1c38:	401c45a1 	.word	0x401c45a1
    1c3c:	ef9db22d 	.word	0xef9db22d
    1c40:	401c46a7 	.word	0x401c46a7
    1c44:	147ae148 	.word	0x147ae148
    1c48:	401c47ae 	.word	0x401c47ae
    1c4c:	39581062 	.word	0x39581062
    1c50:	401c48b4 	.word	0x401c48b4
    1c54:	5e353f7d 	.word	0x5e353f7d
    1c58:	401c49ba 	.word	0x401c49ba
    1c5c:	83126e98 	.word	0x83126e98
    1c60:	401c4ac0 	.word	0x401c4ac0
    1c64:	a7ef9db2 	.word	0xa7ef9db2
    1c68:	401c4bc6 	.word	0x401c4bc6
    1c6c:	cccccccd 	.word	0xcccccccd
    1c70:	401c4ccc 	.word	0x401c4ccc
    1c74:	f1a9fbe7 	.word	0xf1a9fbe7
    1c78:	401c4dd2 	.word	0x401c4dd2
    1c7c:	16872b02 	.word	0x16872b02
    1c80:	401c4ed9 	.word	0x401c4ed9
    1c84:	3b645a1d 	.word	0x3b645a1d
    1c88:	401c4fdf 	.word	0x401c4fdf
    1c8c:	60418937 	.word	0x60418937
    1c90:	401c50e5 	.word	0x401c50e5
    1c94:	851eb852 	.word	0x851eb852
    1c98:	401c51eb 	.word	0x401c51eb
    1c9c:	a9fbe76d 	.word	0xa9fbe76d
    1ca0:	401c52f1 	.word	0x401c52f1
    1ca4:	ced91687 	.word	0xced91687
    1ca8:	401c53f7 	.word	0x401c53f7
    1cac:	f3b645a2 	.word	0xf3b645a2
    1cb0:	401c54fd 	.word	0x401c54fd
    1cb4:	189374bc 	.word	0x189374bc
    1cb8:	401c5604 	.word	0x401c5604
    1cbc:	3d70a3d7 	.word	0x3d70a3d7
    1cc0:	401c570a 	.word	0x401c570a
    1cc4:	624dd2f2 	.word	0x624dd2f2
    1cc8:	401c5810 	.word	0x401c5810
    1ccc:	872b020c 	.word	0x872b020c
    1cd0:	401c5916 	.word	0x401c5916
    1cd4:	ac083127 	.word	0xac083127
    1cd8:	401c5a1c 	.word	0x401c5a1c
    1cdc:	d0e56042 	.word	0xd0e56042
    1ce0:	401c5b22 	.word	0x401c5b22
    1ce4:	f5c28f5c 	.word	0xf5c28f5c
    1ce8:	401c5c28 	.word	0x401c5c28
    1cec:	1a9fbe77 	.word	0x1a9fbe77
    1cf0:	401c5d2f 	.word	0x401c5d2f
    1cf4:	3f7ced91 	.word	0x3f7ced91
    1cf8:	401c5e35 	.word	0x401c5e35
    1cfc:	645a1cac 	.word	0x645a1cac
    1d00:	401c5f3b 	.word	0x401c5f3b
    1d04:	89374bc7 	.word	0x89374bc7
    1d08:	401c6041 	.word	0x401c6041
    1d0c:	ae147ae1 	.word	0xae147ae1
    1d10:	401c6147 	.word	0x401c6147
    1d14:	d2f1a9fc 	.word	0xd2f1a9fc
    1d18:	401c624d 	.word	0x401c624d
    1d1c:	f7ced917 	.word	0xf7ced917
    1d20:	401c6353 	.word	0x401c6353
    1d24:	1cac0831 	.word	0x1cac0831
    1d28:	401c645a 	.word	0x401c645a
    1d2c:	4189374c 	.word	0x4189374c
    1d30:	401c6560 	.word	0x401c6560
    1d34:	66666666 	.word	0x66666666
    1d38:	401c6666 	.word	0x401c6666
    1d3c:	8b439581 	.word	0x8b439581
    1d40:	401c676c 	.word	0x401c676c
    1d44:	b020c49c 	.word	0xb020c49c
    1d48:	401c6872 	.word	0x401c6872
    1d4c:	d4fdf3b6 	.word	0xd4fdf3b6
    1d50:	401c6978 	.word	0x401c6978
    1d54:	f9db22d1 	.word	0xf9db22d1
    1d58:	401c6a7e 	.word	0x401c6a7e
    1d5c:	1eb851ec 	.word	0x1eb851ec
    1d60:	401c6b85 	.word	0x401c6b85
    1d64:	43958106 	.word	0x43958106
    1d68:	401c6c8b 	.word	0x401c6c8b
    1d6c:	6872b021 	.word	0x6872b021
    1d70:	401c6d91 	.word	0x401c6d91
    1d74:	8d4fdf3b 	.word	0x8d4fdf3b
    1d78:	401c6e97 	.word	0x401c6e97
    1d7c:	b22d0e56 	.word	0xb22d0e56
    1d80:	401c6f9d 	.word	0x401c6f9d
    1d84:	d70a3d71 	.word	0xd70a3d71
    1d88:	401c70a3 	.word	0x401c70a3
    1d8c:	fbe76c8b 	.word	0xfbe76c8b
    1d90:	401c71a9 	.word	0x401c71a9
    1d94:	20c49ba6 	.word	0x20c49ba6
    1d98:	401c72b0 	.word	0x401c72b0
    1d9c:	45a1cac1 	.word	0x45a1cac1
    1da0:	401c73b6 	.word	0x401c73b6
    1da4:	6a7ef9db 	.word	0x6a7ef9db
    1da8:	401c74bc 	.word	0x401c74bc
    1dac:	8f5c28f6 	.word	0x8f5c28f6
    1db0:	401c75c2 	.word	0x401c75c2
    1db4:	b4395810 	.word	0xb4395810
    1db8:	401c76c8 	.word	0x401c76c8
    1dbc:	d916872b 	.word	0xd916872b
    1dc0:	401c77ce 	.word	0x401c77ce
    1dc4:	fdf3b646 	.word	0xfdf3b646
    1dc8:	401c78d4 	.word	0x401c78d4
    1dcc:	22d0e560 	.word	0x22d0e560
    1dd0:	401c79db 	.word	0x401c79db
    1dd4:	47ae147b 	.word	0x47ae147b
    1dd8:	401c7ae1 	.word	0x401c7ae1
    1ddc:	6c8b4396 	.word	0x6c8b4396
    1de0:	401c7be7 	.word	0x401c7be7
    1de4:	916872b0 	.word	0x916872b0
    1de8:	401c7ced 	.word	0x401c7ced
    1dec:	b645a1cb 	.word	0xb645a1cb
    1df0:	401c7df3 	.word	0x401c7df3
    1df4:	db22d0e5 	.word	0xdb22d0e5
    1df8:	401c7ef9 	.word	0x401c7ef9
    1dfc:	00000000 	.word	0x00000000
    1e00:	401c8000 	.word	0x401c8000
    1e04:	24dd2f1b 	.word	0x24dd2f1b
    1e08:	401c8106 	.word	0x401c8106
    1e0c:	49ba5e35 	.word	0x49ba5e35
    1e10:	401c820c 	.word	0x401c820c
    1e14:	6e978d50 	.word	0x6e978d50
    1e18:	401c8312 	.word	0x401c8312
    1e1c:	126e978d 	.word	0x126e978d
    1e20:	40200083 	.word	0x40200083
    1e24:	24dd2f1b 	.word	0x24dd2f1b
    1e28:	40200106 	.word	0x40200106
    1e2c:	374bc6a8 	.word	0x374bc6a8
    1e30:	40200189 	.word	0x40200189
    1e34:	49ba5e35 	.word	0x49ba5e35
    1e38:	4020020c 	.word	0x4020020c
    1e3c:	5c28f5c3 	.word	0x5c28f5c3
    1e40:	4020028f 	.word	0x4020028f
    1e44:	6e978d50 	.word	0x6e978d50
    1e48:	40200312 	.word	0x40200312
    1e4c:	810624dd 	.word	0x810624dd
    1e50:	40200395 	.word	0x40200395
    1e54:	9374bc6a 	.word	0x9374bc6a
    1e58:	40200418 	.word	0x40200418
    1e5c:	a5e353f8 	.word	0xa5e353f8
    1e60:	4020049b 	.word	0x4020049b
    1e64:	b851eb85 	.word	0xb851eb85
    1e68:	4020051e 	.word	0x4020051e
    1e6c:	cac08312 	.word	0xcac08312
    1e70:	402005a1 	.word	0x402005a1
    1e74:	dd2f1aa0 	.word	0xdd2f1aa0
    1e78:	40200624 	.word	0x40200624
    1e7c:	ef9db22d 	.word	0xef9db22d
    1e80:	402006a7 	.word	0x402006a7
    1e84:	020c49ba 	.word	0x020c49ba
    1e88:	4020072b 	.word	0x4020072b
    1e8c:	147ae148 	.word	0x147ae148
    1e90:	402007ae 	.word	0x402007ae
    1e94:	26e978d5 	.word	0x26e978d5
    1e98:	40200831 	.word	0x40200831
    1e9c:	39581062 	.word	0x39581062
    1ea0:	402008b4 	.word	0x402008b4
    1ea4:	4bc6a7f0 	.word	0x4bc6a7f0
    1ea8:	40200937 	.word	0x40200937
    1eac:	5e353f7d 	.word	0x5e353f7d
    1eb0:	402009ba 	.word	0x402009ba
    1eb4:	70a3d70a 	.word	0x70a3d70a
    1eb8:	40200a3d 	.word	0x40200a3d
    1ebc:	83126e98 	.word	0x83126e98
    1ec0:	40200ac0 	.word	0x40200ac0
    1ec4:	95810625 	.word	0x95810625
    1ec8:	40200b43 	.word	0x40200b43
    1ecc:	a7ef9db2 	.word	0xa7ef9db2
    1ed0:	40200bc6 	.word	0x40200bc6
    1ed4:	ba5e353f 	.word	0xba5e353f
    1ed8:	40200c49 	.word	0x40200c49
    1edc:	cccccccd 	.word	0xcccccccd
    1ee0:	40200ccc 	.word	0x40200ccc
    1ee4:	df3b645a 	.word	0xdf3b645a
    1ee8:	40200d4f 	.word	0x40200d4f
    1eec:	f1a9fbe7 	.word	0xf1a9fbe7
    1ef0:	40200dd2 	.word	0x40200dd2
    1ef4:	04189375 	.word	0x04189375
    1ef8:	40200e56 	.word	0x40200e56
    1efc:	16872b02 	.word	0x16872b02
    1f00:	40200ed9 	.word	0x40200ed9
    1f04:	28f5c28f 	.word	0x28f5c28f
    1f08:	40200f5c 	.word	0x40200f5c
    1f0c:	3b645a1d 	.word	0x3b645a1d
    1f10:	40200fdf 	.word	0x40200fdf
    1f14:	4dd2f1aa 	.word	0x4dd2f1aa
    1f18:	40201062 	.word	0x40201062
    1f1c:	60418937 	.word	0x60418937
    1f20:	402010e5 	.word	0x402010e5
    1f24:	72b020c5 	.word	0x72b020c5
    1f28:	40201168 	.word	0x40201168
    1f2c:	851eb852 	.word	0x851eb852
    1f30:	402011eb 	.word	0x402011eb
    1f34:	978d4fdf 	.word	0x978d4fdf
    1f38:	4020126e 	.word	0x4020126e
    1f3c:	a9fbe76d 	.word	0xa9fbe76d
    1f40:	402012f1 	.word	0x402012f1
    1f44:	bc6a7efa 	.word	0xbc6a7efa
    1f48:	40201374 	.word	0x40201374
    1f4c:	ced91687 	.word	0xced91687
    1f50:	402013f7 	.word	0x402013f7
    1f54:	e147ae14 	.word	0xe147ae14
    1f58:	4020147a 	.word	0x4020147a
    1f5c:	f3b645a2 	.word	0xf3b645a2
    1f60:	402014fd 	.word	0x402014fd
    1f64:	0624dd2f 	.word	0x0624dd2f
    1f68:	40201581 	.word	0x40201581
    1f6c:	189374bc 	.word	0x189374bc
    1f70:	40201604 	.word	0x40201604
    1f74:	2b020c4a 	.word	0x2b020c4a
    1f78:	40201687 	.word	0x40201687
    1f7c:	3d70a3d7 	.word	0x3d70a3d7
    1f80:	4020170a 	.word	0x4020170a
    1f84:	4fdf3b64 	.word	0x4fdf3b64
    1f88:	4020178d 	.word	0x4020178d
    1f8c:	624dd2f2 	.word	0x624dd2f2
    1f90:	40201810 	.word	0x40201810
    1f94:	74bc6a7f 	.word	0x74bc6a7f
    1f98:	40201893 	.word	0x40201893
    1f9c:	872b020c 	.word	0x872b020c
    1fa0:	40201916 	.word	0x40201916
    1fa4:	9999999a 	.word	0x9999999a
    1fa8:	40201999 	.word	0x40201999
    1fac:	ac083127 	.word	0xac083127
    1fb0:	40201a1c 	.word	0x40201a1c
    1fb4:	be76c8b4 	.word	0xbe76c8b4
    1fb8:	40201a9f 	.word	0x40201a9f
    1fbc:	d0e56042 	.word	0xd0e56042
    1fc0:	40201b22 	.word	0x40201b22
    1fc4:	e353f7cf 	.word	0xe353f7cf
    1fc8:	40201ba5 	.word	0x40201ba5
    1fcc:	f5c28f5c 	.word	0xf5c28f5c
    1fd0:	40201c28 	.word	0x40201c28
    1fd4:	083126e9 	.word	0x083126e9
    1fd8:	40201cac 	.word	0x40201cac
    1fdc:	1a9fbe77 	.word	0x1a9fbe77
    1fe0:	40201d2f 	.word	0x40201d2f
    1fe4:	2d0e5604 	.word	0x2d0e5604
    1fe8:	40201db2 	.word	0x40201db2
    1fec:	3f7ced91 	.word	0x3f7ced91
    1ff0:	40201e35 	.word	0x40201e35
    1ff4:	51eb851f 	.word	0x51eb851f
    1ff8:	40201eb8 	.word	0x40201eb8
    1ffc:	645a1cac 	.word	0x645a1cac
    2000:	40201f3b 	.word	0x40201f3b
    2004:	76c8b439 	.word	0x76c8b439
    2008:	40201fbe 	.word	0x40201fbe
    200c:	89374bc7 	.word	0x89374bc7
    2010:	40202041 	.word	0x40202041
    2014:	9ba5e354 	.word	0x9ba5e354
    2018:	402020c4 	.word	0x402020c4
    201c:	ae147ae1 	.word	0xae147ae1
    2020:	40202147 	.word	0x40202147
    2024:	c083126f 	.word	0xc083126f
    2028:	402021ca 	.word	0x402021ca
    202c:	d2f1a9fc 	.word	0xd2f1a9fc
    2030:	4020224d 	.word	0x4020224d
    2034:	e5604189 	.word	0xe5604189
    2038:	402022d0 	.word	0x402022d0
    203c:	f7ced917 	.word	0xf7ced917
    2040:	40202353 	.word	0x40202353
    2044:	0a3d70a4 	.word	0x0a3d70a4
    2048:	402023d7 	.word	0x402023d7
    204c:	1cac0831 	.word	0x1cac0831
    2050:	4020245a 	.word	0x4020245a
    2054:	2f1a9fbe 	.word	0x2f1a9fbe
    2058:	402024dd 	.word	0x402024dd
    205c:	4189374c 	.word	0x4189374c
    2060:	40202560 	.word	0x40202560
    2064:	53f7ced9 	.word	0x53f7ced9
    2068:	402025e3 	.word	0x402025e3
    206c:	66666666 	.word	0x66666666
    2070:	40202666 	.word	0x40202666
    2074:	78d4fdf4 	.word	0x78d4fdf4
    2078:	402026e9 	.word	0x402026e9
    207c:	8b439581 	.word	0x8b439581
    2080:	4020276c 	.word	0x4020276c
    2084:	9db22d0e 	.word	0x9db22d0e
    2088:	402027ef 	.word	0x402027ef
    208c:	b020c49c 	.word	0xb020c49c
    2090:	40202872 	.word	0x40202872
    2094:	c28f5c29 	.word	0xc28f5c29
    2098:	402028f5 	.word	0x402028f5
    209c:	d4fdf3b6 	.word	0xd4fdf3b6
    20a0:	40202978 	.word	0x40202978
    20a4:	e76c8b44 	.word	0xe76c8b44
    20a8:	402029fb 	.word	0x402029fb
    20ac:	f9db22d1 	.word	0xf9db22d1
    20b0:	40202a7e 	.word	0x40202a7e
    20b4:	0c49ba5e 	.word	0x0c49ba5e
    20b8:	40202b02 	.word	0x40202b02
    20bc:	1eb851ec 	.word	0x1eb851ec
    20c0:	40202b85 	.word	0x40202b85
    20c4:	3126e979 	.word	0x3126e979
    20c8:	40202c08 	.word	0x40202c08
    20cc:	43958106 	.word	0x43958106
    20d0:	40202c8b 	.word	0x40202c8b
    20d4:	56041893 	.word	0x56041893
    20d8:	40202d0e 	.word	0x40202d0e
    20dc:	6872b021 	.word	0x6872b021
    20e0:	40202d91 	.word	0x40202d91
    20e4:	7ae147ae 	.word	0x7ae147ae
    20e8:	40202e14 	.word	0x40202e14
    20ec:	8d4fdf3b 	.word	0x8d4fdf3b
    20f0:	40202e97 	.word	0x40202e97
    20f4:	9fbe76c9 	.word	0x9fbe76c9
    20f8:	40202f1a 	.word	0x40202f1a
    20fc:	b22d0e56 	.word	0xb22d0e56
    2100:	40202f9d 	.word	0x40202f9d
    2104:	c49ba5e3 	.word	0xc49ba5e3
    2108:	40203020 	.word	0x40203020
    210c:	d70a3d71 	.word	0xd70a3d71
    2110:	402030a3 	.word	0x402030a3
    2114:	e978d4fe 	.word	0xe978d4fe
    2118:	40203126 	.word	0x40203126
    211c:	fbe76c8b 	.word	0xfbe76c8b
    2120:	402031a9 	.word	0x402031a9
    2124:	0e560419 	.word	0x0e560419
    2128:	4020322d 	.word	0x4020322d
    212c:	20c49ba6 	.word	0x20c49ba6
    2130:	402032b0 	.word	0x402032b0
    2134:	33333333 	.word	0x33333333
    2138:	40203333 	.word	0x40203333
    213c:	45a1cac1 	.word	0x45a1cac1
    2140:	402033b6 	.word	0x402033b6
    2144:	5810624e 	.word	0x5810624e
    2148:	40203439 	.word	0x40203439
    214c:	6a7ef9db 	.word	0x6a7ef9db
    2150:	402034bc 	.word	0x402034bc
    2154:	7ced9168 	.word	0x7ced9168
    2158:	4020353f 	.word	0x4020353f
    215c:	8f5c28f6 	.word	0x8f5c28f6
    2160:	402035c2 	.word	0x402035c2
    2164:	a1cac083 	.word	0xa1cac083
    2168:	40203645 	.word	0x40203645
    216c:	b4395810 	.word	0xb4395810
    2170:	402036c8 	.word	0x402036c8
    2174:	c6a7ef9e 	.word	0xc6a7ef9e
    2178:	4020374b 	.word	0x4020374b
    217c:	d916872b 	.word	0xd916872b
    2180:	402037ce 	.word	0x402037ce
    2184:	eb851eb8 	.word	0xeb851eb8
    2188:	40203851 	.word	0x40203851
    218c:	fdf3b646 	.word	0xfdf3b646
    2190:	402038d4 	.word	0x402038d4
    2194:	10624dd3 	.word	0x10624dd3
    2198:	40203958 	.word	0x40203958
    219c:	22d0e560 	.word	0x22d0e560
    21a0:	402039db 	.word	0x402039db
    21a4:	353f7cee 	.word	0x353f7cee
    21a8:	40203a5e 	.word	0x40203a5e
    21ac:	47ae147b 	.word	0x47ae147b
    21b0:	40203ae1 	.word	0x40203ae1
    21b4:	5a1cac08 	.word	0x5a1cac08
    21b8:	40203b64 	.word	0x40203b64
    21bc:	6c8b4396 	.word	0x6c8b4396
    21c0:	40203be7 	.word	0x40203be7
    21c4:	7ef9db23 	.word	0x7ef9db23
    21c8:	40203c6a 	.word	0x40203c6a
    21cc:	916872b0 	.word	0x916872b0
    21d0:	40203ced 	.word	0x40203ced
    21d4:	a3d70a3d 	.word	0xa3d70a3d
    21d8:	40203d70 	.word	0x40203d70
    21dc:	b645a1cb 	.word	0xb645a1cb
    21e0:	40203df3 	.word	0x40203df3
    21e4:	c8b43958 	.word	0xc8b43958
    21e8:	40203e76 	.word	0x40203e76
    21ec:	db22d0e5 	.word	0xdb22d0e5
    21f0:	40203ef9 	.word	0x40203ef9
    21f4:	ed916873 	.word	0xed916873
    21f8:	40203f7c 	.word	0x40203f7c
    21fc:	00000000 	.word	0x00000000
    2200:	40204000 	.word	0x40204000
    2204:	126e978d 	.word	0x126e978d
    2208:	40204083 	.word	0x40204083
    220c:	24dd2f1b 	.word	0x24dd2f1b
    2210:	40204106 	.word	0x40204106
    2214:	374bc6a8 	.word	0x374bc6a8
    2218:	40204189 	.word	0x40204189
    221c:	126e978d 	.word	0x126e978d
    2220:	40220083 	.word	0x40220083
    2224:	24dd2f1b 	.word	0x24dd2f1b
    2228:	40220106 	.word	0x40220106
    222c:	374bc6a8 	.word	0x374bc6a8
    2230:	40220189 	.word	0x40220189
    2234:	49ba5e35 	.word	0x49ba5e35
    2238:	4022020c 	.word	0x4022020c
    223c:	5c28f5c3 	.word	0x5c28f5c3
    2240:	4022028f 	.word	0x4022028f
    2244:	6e978d50 	.word	0x6e978d50
    2248:	40220312 	.word	0x40220312
    224c:	810624dd 	.word	0x810624dd
    2250:	40220395 	.word	0x40220395
    2254:	9374bc6a 	.word	0x9374bc6a
    2258:	40220418 	.word	0x40220418
    225c:	a5e353f8 	.word	0xa5e353f8
    2260:	4022049b 	.word	0x4022049b
    2264:	b851eb85 	.word	0xb851eb85
    2268:	4022051e 	.word	0x4022051e
    226c:	cac08312 	.word	0xcac08312
    2270:	402205a1 	.word	0x402205a1
    2274:	dd2f1aa0 	.word	0xdd2f1aa0
    2278:	40220624 	.word	0x40220624
    227c:	ef9db22d 	.word	0xef9db22d
    2280:	402206a7 	.word	0x402206a7
    2284:	020c49ba 	.word	0x020c49ba
    2288:	4022072b 	.word	0x4022072b
    228c:	147ae148 	.word	0x147ae148
    2290:	402207ae 	.word	0x402207ae
    2294:	26e978d5 	.word	0x26e978d5
    2298:	40220831 	.word	0x40220831
    229c:	39581062 	.word	0x39581062
    22a0:	402208b4 	.word	0x402208b4
    22a4:	4bc6a7f0 	.word	0x4bc6a7f0
    22a8:	40220937 	.word	0x40220937
    22ac:	5e353f7d 	.word	0x5e353f7d
    22b0:	402209ba 	.word	0x402209ba
    22b4:	70a3d70a 	.word	0x70a3d70a
    22b8:	40220a3d 	.word	0x40220a3d
    22bc:	83126e98 	.word	0x83126e98
    22c0:	40220ac0 	.word	0x40220ac0
    22c4:	95810625 	.word	0x95810625
    22c8:	40220b43 	.word	0x40220b43
    22cc:	a7ef9db2 	.word	0xa7ef9db2
    22d0:	40220bc6 	.word	0x40220bc6
    22d4:	ba5e353f 	.word	0xba5e353f
    22d8:	40220c49 	.word	0x40220c49
    22dc:	cccccccd 	.word	0xcccccccd
    22e0:	40220ccc 	.word	0x40220ccc
    22e4:	df3b645a 	.word	0xdf3b645a
    22e8:	40220d4f 	.word	0x40220d4f
    22ec:	f1a9fbe7 	.word	0xf1a9fbe7
    22f0:	40220dd2 	.word	0x40220dd2
    22f4:	04189375 	.word	0x04189375
    22f8:	40220e56 	.word	0x40220e56
    22fc:	16872b02 	.word	0x16872b02
    2300:	40220ed9 	.word	0x40220ed9
    2304:	28f5c28f 	.word	0x28f5c28f
    2308:	40220f5c 	.word	0x40220f5c
    230c:	3b645a1d 	.word	0x3b645a1d
    2310:	40220fdf 	.word	0x40220fdf
    2314:	4dd2f1aa 	.word	0x4dd2f1aa
    2318:	40221062 	.word	0x40221062
    231c:	60418937 	.word	0x60418937
    2320:	402210e5 	.word	0x402210e5
    2324:	72b020c5 	.word	0x72b020c5
    2328:	40221168 	.word	0x40221168
    232c:	851eb852 	.word	0x851eb852
    2330:	402211eb 	.word	0x402211eb
    2334:	978d4fdf 	.word	0x978d4fdf
    2338:	4022126e 	.word	0x4022126e
    233c:	a9fbe76d 	.word	0xa9fbe76d
    2340:	402212f1 	.word	0x402212f1
    2344:	bc6a7efa 	.word	0xbc6a7efa
    2348:	40221374 	.word	0x40221374
    234c:	ced91687 	.word	0xced91687
    2350:	402213f7 	.word	0x402213f7
    2354:	e147ae14 	.word	0xe147ae14
    2358:	4022147a 	.word	0x4022147a
    235c:	f3b645a2 	.word	0xf3b645a2
    2360:	402214fd 	.word	0x402214fd
    2364:	0624dd2f 	.word	0x0624dd2f
    2368:	40221581 	.word	0x40221581
    236c:	189374bc 	.word	0x189374bc
    2370:	40221604 	.word	0x40221604
    2374:	2b020c4a 	.word	0x2b020c4a
    2378:	40221687 	.word	0x40221687
    237c:	3d70a3d7 	.word	0x3d70a3d7
    2380:	4022170a 	.word	0x4022170a
    2384:	4fdf3b64 	.word	0x4fdf3b64
    2388:	4022178d 	.word	0x4022178d
    238c:	624dd2f2 	.word	0x624dd2f2
    2390:	40221810 	.word	0x40221810
    2394:	74bc6a7f 	.word	0x74bc6a7f
    2398:	40221893 	.word	0x40221893
    239c:	872b020c 	.word	0x872b020c
    23a0:	40221916 	.word	0x40221916
    23a4:	9999999a 	.word	0x9999999a
    23a8:	40221999 	.word	0x40221999
    23ac:	ac083127 	.word	0xac083127
    23b0:	40221a1c 	.word	0x40221a1c
    23b4:	be76c8b4 	.word	0xbe76c8b4
    23b8:	40221a9f 	.word	0x40221a9f
    23bc:	d0e56042 	.word	0xd0e56042
    23c0:	40221b22 	.word	0x40221b22
    23c4:	e353f7cf 	.word	0xe353f7cf
    23c8:	40221ba5 	.word	0x40221ba5
    23cc:	f5c28f5c 	.word	0xf5c28f5c
    23d0:	40221c28 	.word	0x40221c28
    23d4:	083126e9 	.word	0x083126e9
    23d8:	40221cac 	.word	0x40221cac
    23dc:	1a9fbe77 	.word	0x1a9fbe77
    23e0:	40221d2f 	.word	0x40221d2f
    23e4:	2d0e5604 	.word	0x2d0e5604
    23e8:	40221db2 	.word	0x40221db2
    23ec:	3f7ced91 	.word	0x3f7ced91
    23f0:	40221e35 	.word	0x40221e35
    23f4:	51eb851f 	.word	0x51eb851f
    23f8:	40221eb8 	.word	0x40221eb8
    23fc:	645a1cac 	.word	0x645a1cac
    2400:	40221f3b 	.word	0x40221f3b
    2404:	76c8b439 	.word	0x76c8b439
    2408:	40221fbe 	.word	0x40221fbe
    240c:	89374bc7 	.word	0x89374bc7
    2410:	40222041 	.word	0x40222041
    2414:	9ba5e354 	.word	0x9ba5e354
    2418:	402220c4 	.word	0x402220c4
    241c:	ae147ae1 	.word	0xae147ae1
    2420:	40222147 	.word	0x40222147
    2424:	c083126f 	.word	0xc083126f
    2428:	402221ca 	.word	0x402221ca
    242c:	d2f1a9fc 	.word	0xd2f1a9fc
    2430:	4022224d 	.word	0x4022224d
    2434:	e5604189 	.word	0xe5604189
    2438:	402222d0 	.word	0x402222d0
    243c:	f7ced917 	.word	0xf7ced917
    2440:	40222353 	.word	0x40222353
    2444:	0a3d70a4 	.word	0x0a3d70a4
    2448:	402223d7 	.word	0x402223d7
    244c:	1cac0831 	.word	0x1cac0831
    2450:	4022245a 	.word	0x4022245a
    2454:	2f1a9fbe 	.word	0x2f1a9fbe
    2458:	402224dd 	.word	0x402224dd
    245c:	4189374c 	.word	0x4189374c
    2460:	40222560 	.word	0x40222560
    2464:	53f7ced9 	.word	0x53f7ced9
    2468:	402225e3 	.word	0x402225e3
    246c:	66666666 	.word	0x66666666
    2470:	40222666 	.word	0x40222666
    2474:	78d4fdf4 	.word	0x78d4fdf4
    2478:	402226e9 	.word	0x402226e9
    247c:	8b439581 	.word	0x8b439581
    2480:	4022276c 	.word	0x4022276c
    2484:	9db22d0e 	.word	0x9db22d0e
    2488:	402227ef 	.word	0x402227ef
    248c:	b020c49c 	.word	0xb020c49c
    2490:	40222872 	.word	0x40222872
    2494:	c28f5c29 	.word	0xc28f5c29
    2498:	402228f5 	.word	0x402228f5
    249c:	d4fdf3b6 	.word	0xd4fdf3b6
    24a0:	40222978 	.word	0x40222978
    24a4:	e76c8b44 	.word	0xe76c8b44
    24a8:	402229fb 	.word	0x402229fb
    24ac:	f9db22d1 	.word	0xf9db22d1
    24b0:	40222a7e 	.word	0x40222a7e
    24b4:	0c49ba5e 	.word	0x0c49ba5e
    24b8:	40222b02 	.word	0x40222b02
    24bc:	1eb851ec 	.word	0x1eb851ec
    24c0:	40222b85 	.word	0x40222b85
    24c4:	3126e979 	.word	0x3126e979
    24c8:	40222c08 	.word	0x40222c08
    24cc:	43958106 	.word	0x43958106
    24d0:	40222c8b 	.word	0x40222c8b
    24d4:	56041893 	.word	0x56041893
    24d8:	40222d0e 	.word	0x40222d0e
    24dc:	6872b021 	.word	0x6872b021
    24e0:	40222d91 	.word	0x40222d91
    24e4:	7ae147ae 	.word	0x7ae147ae
    24e8:	40222e14 	.word	0x40222e14
    24ec:	8d4fdf3b 	.word	0x8d4fdf3b
    24f0:	40222e97 	.word	0x40222e97
    24f4:	9fbe76c9 	.word	0x9fbe76c9
    24f8:	40222f1a 	.word	0x40222f1a
    24fc:	b22d0e56 	.word	0xb22d0e56
    2500:	40222f9d 	.word	0x40222f9d
    2504:	c49ba5e3 	.word	0xc49ba5e3
    2508:	40223020 	.word	0x40223020
    250c:	d70a3d71 	.word	0xd70a3d71
    2510:	402230a3 	.word	0x402230a3
    2514:	e978d4fe 	.word	0xe978d4fe
    2518:	40223126 	.word	0x40223126
    251c:	fbe76c8b 	.word	0xfbe76c8b
    2520:	402231a9 	.word	0x402231a9
    2524:	0e560419 	.word	0x0e560419
    2528:	4022322d 	.word	0x4022322d
    252c:	20c49ba6 	.word	0x20c49ba6
    2530:	402232b0 	.word	0x402232b0
    2534:	33333333 	.word	0x33333333
    2538:	40223333 	.word	0x40223333
    253c:	45a1cac1 	.word	0x45a1cac1
    2540:	402233b6 	.word	0x402233b6
    2544:	5810624e 	.word	0x5810624e
    2548:	40223439 	.word	0x40223439
    254c:	6a7ef9db 	.word	0x6a7ef9db
    2550:	402234bc 	.word	0x402234bc
    2554:	7ced9168 	.word	0x7ced9168
    2558:	4022353f 	.word	0x4022353f
    255c:	8f5c28f6 	.word	0x8f5c28f6
    2560:	402235c2 	.word	0x402235c2
    2564:	a1cac083 	.word	0xa1cac083
    2568:	40223645 	.word	0x40223645
    256c:	b4395810 	.word	0xb4395810
    2570:	402236c8 	.word	0x402236c8
    2574:	c6a7ef9e 	.word	0xc6a7ef9e
    2578:	4022374b 	.word	0x4022374b
    257c:	d916872b 	.word	0xd916872b
    2580:	402237ce 	.word	0x402237ce
    2584:	eb851eb8 	.word	0xeb851eb8
    2588:	40223851 	.word	0x40223851
    258c:	fdf3b646 	.word	0xfdf3b646
    2590:	402238d4 	.word	0x402238d4
    2594:	10624dd3 	.word	0x10624dd3
    2598:	40223958 	.word	0x40223958
    259c:	22d0e560 	.word	0x22d0e560
    25a0:	402239db 	.word	0x402239db
    25a4:	353f7cee 	.word	0x353f7cee
    25a8:	40223a5e 	.word	0x40223a5e
    25ac:	47ae147b 	.word	0x47ae147b
    25b0:	40223ae1 	.word	0x40223ae1
    25b4:	5a1cac08 	.word	0x5a1cac08
    25b8:	40223b64 	.word	0x40223b64
    25bc:	6c8b4396 	.word	0x6c8b4396
    25c0:	40223be7 	.word	0x40223be7
    25c4:	7ef9db23 	.word	0x7ef9db23
    25c8:	40223c6a 	.word	0x40223c6a
    25cc:	916872b0 	.word	0x916872b0
    25d0:	40223ced 	.word	0x40223ced
    25d4:	a3d70a3d 	.word	0xa3d70a3d
    25d8:	40223d70 	.word	0x40223d70
    25dc:	b645a1cb 	.word	0xb645a1cb
    25e0:	40223df3 	.word	0x40223df3
    25e4:	c8b43958 	.word	0xc8b43958
    25e8:	40223e76 	.word	0x40223e76
    25ec:	db22d0e5 	.word	0xdb22d0e5
    25f0:	40223ef9 	.word	0x40223ef9
    25f4:	ed916873 	.word	0xed916873
    25f8:	40223f7c 	.word	0x40223f7c
    25fc:	00000000 	.word	0x00000000
    2600:	40224000 	.word	0x40224000
    2604:	126e978d 	.word	0x126e978d
    2608:	40224083 	.word	0x40224083
    260c:	24dd2f1b 	.word	0x24dd2f1b
    2610:	40224106 	.word	0x40224106
    2614:	374bc6a8 	.word	0x374bc6a8
    2618:	40224189 	.word	0x40224189
    261c:	126e978d 	.word	0x126e978d
    2620:	40240083 	.word	0x40240083
    2624:	24dd2f1b 	.word	0x24dd2f1b
    2628:	40240106 	.word	0x40240106
    262c:	374bc6a8 	.word	0x374bc6a8
    2630:	40240189 	.word	0x40240189
    2634:	49ba5e35 	.word	0x49ba5e35
    2638:	4024020c 	.word	0x4024020c
    263c:	5c28f5c3 	.word	0x5c28f5c3
    2640:	4024028f 	.word	0x4024028f
    2644:	6e978d50 	.word	0x6e978d50
    2648:	40240312 	.word	0x40240312
    264c:	810624dd 	.word	0x810624dd
    2650:	40240395 	.word	0x40240395
    2654:	9374bc6a 	.word	0x9374bc6a
    2658:	40240418 	.word	0x40240418
    265c:	a5e353f8 	.word	0xa5e353f8
    2660:	4024049b 	.word	0x4024049b
    2664:	b851eb85 	.word	0xb851eb85
    2668:	4024051e 	.word	0x4024051e
    266c:	cac08312 	.word	0xcac08312
    2670:	402405a1 	.word	0x402405a1
    2674:	dd2f1aa0 	.word	0xdd2f1aa0
    2678:	40240624 	.word	0x40240624
    267c:	ef9db22d 	.word	0xef9db22d
    2680:	402406a7 	.word	0x402406a7
    2684:	020c49ba 	.word	0x020c49ba
    2688:	4024072b 	.word	0x4024072b
    268c:	147ae148 	.word	0x147ae148
    2690:	402407ae 	.word	0x402407ae
    2694:	26e978d5 	.word	0x26e978d5
    2698:	40240831 	.word	0x40240831
    269c:	39581062 	.word	0x39581062
    26a0:	402408b4 	.word	0x402408b4
    26a4:	4bc6a7f0 	.word	0x4bc6a7f0
    26a8:	40240937 	.word	0x40240937
    26ac:	5e353f7d 	.word	0x5e353f7d
    26b0:	402409ba 	.word	0x402409ba
    26b4:	70a3d70a 	.word	0x70a3d70a
    26b8:	40240a3d 	.word	0x40240a3d
    26bc:	83126e98 	.word	0x83126e98
    26c0:	40240ac0 	.word	0x40240ac0
    26c4:	95810625 	.word	0x95810625
    26c8:	40240b43 	.word	0x40240b43
    26cc:	a7ef9db2 	.word	0xa7ef9db2
    26d0:	40240bc6 	.word	0x40240bc6
    26d4:	ba5e353f 	.word	0xba5e353f
    26d8:	40240c49 	.word	0x40240c49
    26dc:	cccccccd 	.word	0xcccccccd
    26e0:	40240ccc 	.word	0x40240ccc
    26e4:	df3b645a 	.word	0xdf3b645a
    26e8:	40240d4f 	.word	0x40240d4f
    26ec:	f1a9fbe7 	.word	0xf1a9fbe7
    26f0:	40240dd2 	.word	0x40240dd2
    26f4:	04189375 	.word	0x04189375
    26f8:	40240e56 	.word	0x40240e56
    26fc:	16872b02 	.word	0x16872b02
    2700:	40240ed9 	.word	0x40240ed9
    2704:	28f5c28f 	.word	0x28f5c28f
    2708:	40240f5c 	.word	0x40240f5c
    270c:	3b645a1d 	.word	0x3b645a1d
    2710:	40240fdf 	.word	0x40240fdf
    2714:	4dd2f1aa 	.word	0x4dd2f1aa
    2718:	40241062 	.word	0x40241062
    271c:	60418937 	.word	0x60418937
    2720:	402410e5 	.word	0x402410e5
    2724:	72b020c5 	.word	0x72b020c5
    2728:	40241168 	.word	0x40241168
    272c:	851eb852 	.word	0x851eb852
    2730:	402411eb 	.word	0x402411eb
    2734:	978d4fdf 	.word	0x978d4fdf
    2738:	4024126e 	.word	0x4024126e
    273c:	a9fbe76d 	.word	0xa9fbe76d
    2740:	402412f1 	.word	0x402412f1
    2744:	bc6a7efa 	.word	0xbc6a7efa
    2748:	40241374 	.word	0x40241374
    274c:	ced91687 	.word	0xced91687
    2750:	402413f7 	.word	0x402413f7
    2754:	e147ae14 	.word	0xe147ae14
    2758:	4024147a 	.word	0x4024147a
    275c:	f3b645a2 	.word	0xf3b645a2
    2760:	402414fd 	.word	0x402414fd
    2764:	0624dd2f 	.word	0x0624dd2f
    2768:	40241581 	.word	0x40241581
    276c:	189374bc 	.word	0x189374bc
    2770:	40241604 	.word	0x40241604
    2774:	2b020c4a 	.word	0x2b020c4a
    2778:	40241687 	.word	0x40241687
    277c:	3d70a3d7 	.word	0x3d70a3d7
    2780:	4024170a 	.word	0x4024170a
    2784:	4fdf3b64 	.word	0x4fdf3b64
    2788:	4024178d 	.word	0x4024178d
    278c:	624dd2f2 	.word	0x624dd2f2
    2790:	40241810 	.word	0x40241810
    2794:	74bc6a7f 	.word	0x74bc6a7f
    2798:	40241893 	.word	0x40241893
    279c:	872b020c 	.word	0x872b020c
    27a0:	40241916 	.word	0x40241916
    27a4:	9999999a 	.word	0x9999999a
    27a8:	40241999 	.word	0x40241999
    27ac:	ac083127 	.word	0xac083127
    27b0:	40241a1c 	.word	0x40241a1c
    27b4:	be76c8b4 	.word	0xbe76c8b4
    27b8:	40241a9f 	.word	0x40241a9f
    27bc:	d0e56042 	.word	0xd0e56042
    27c0:	40241b22 	.word	0x40241b22
    27c4:	e353f7cf 	.word	0xe353f7cf
    27c8:	40241ba5 	.word	0x40241ba5
    27cc:	f5c28f5c 	.word	0xf5c28f5c
    27d0:	40241c28 	.word	0x40241c28
    27d4:	083126e9 	.word	0x083126e9
    27d8:	40241cac 	.word	0x40241cac
    27dc:	1a9fbe77 	.word	0x1a9fbe77
    27e0:	40241d2f 	.word	0x40241d2f
    27e4:	2d0e5604 	.word	0x2d0e5604
    27e8:	40241db2 	.word	0x40241db2
    27ec:	3f7ced91 	.word	0x3f7ced91
    27f0:	40241e35 	.word	0x40241e35
    27f4:	51eb851f 	.word	0x51eb851f
    27f8:	40241eb8 	.word	0x40241eb8
    27fc:	645a1cac 	.word	0x645a1cac
    2800:	40241f3b 	.word	0x40241f3b
    2804:	76c8b439 	.word	0x76c8b439
    2808:	40241fbe 	.word	0x40241fbe
    280c:	89374bc7 	.word	0x89374bc7
    2810:	40242041 	.word	0x40242041
    2814:	9ba5e354 	.word	0x9ba5e354
    2818:	402420c4 	.word	0x402420c4
    281c:	ae147ae1 	.word	0xae147ae1
    2820:	40242147 	.word	0x40242147
    2824:	c083126f 	.word	0xc083126f
    2828:	402421ca 	.word	0x402421ca
    282c:	d2f1a9fc 	.word	0xd2f1a9fc
    2830:	4024224d 	.word	0x4024224d
    2834:	e5604189 	.word	0xe5604189
    2838:	402422d0 	.word	0x402422d0
    283c:	f7ced917 	.word	0xf7ced917
    2840:	40242353 	.word	0x40242353
    2844:	0a3d70a4 	.word	0x0a3d70a4
    2848:	402423d7 	.word	0x402423d7
    284c:	1cac0831 	.word	0x1cac0831
    2850:	4024245a 	.word	0x4024245a
    2854:	2f1a9fbe 	.word	0x2f1a9fbe
    2858:	402424dd 	.word	0x402424dd
    285c:	4189374c 	.word	0x4189374c
    2860:	40242560 	.word	0x40242560
    2864:	53f7ced9 	.word	0x53f7ced9
    2868:	402425e3 	.word	0x402425e3
    286c:	66666666 	.word	0x66666666
    2870:	40242666 	.word	0x40242666
    2874:	78d4fdf4 	.word	0x78d4fdf4
    2878:	402426e9 	.word	0x402426e9
    287c:	8b439581 	.word	0x8b439581
    2880:	4024276c 	.word	0x4024276c
    2884:	9db22d0e 	.word	0x9db22d0e
    2888:	402427ef 	.word	0x402427ef
    288c:	b020c49c 	.word	0xb020c49c
    2890:	40242872 	.word	0x40242872
    2894:	c28f5c29 	.word	0xc28f5c29
    2898:	402428f5 	.word	0x402428f5
    289c:	d4fdf3b6 	.word	0xd4fdf3b6
    28a0:	40242978 	.word	0x40242978
    28a4:	e76c8b44 	.word	0xe76c8b44
    28a8:	402429fb 	.word	0x402429fb
    28ac:	f9db22d1 	.word	0xf9db22d1
    28b0:	40242a7e 	.word	0x40242a7e
    28b4:	0c49ba5e 	.word	0x0c49ba5e
    28b8:	40242b02 	.word	0x40242b02
    28bc:	1eb851ec 	.word	0x1eb851ec
    28c0:	40242b85 	.word	0x40242b85
    28c4:	3126e979 	.word	0x3126e979
    28c8:	40242c08 	.word	0x40242c08
    28cc:	43958106 	.word	0x43958106
    28d0:	40242c8b 	.word	0x40242c8b
    28d4:	56041893 	.word	0x56041893
    28d8:	40242d0e 	.word	0x40242d0e
    28dc:	6872b021 	.word	0x6872b021
    28e0:	40242d91 	.word	0x40242d91
    28e4:	7ae147ae 	.word	0x7ae147ae
    28e8:	40242e14 	.word	0x40242e14
    28ec:	8d4fdf3b 	.word	0x8d4fdf3b
    28f0:	40242e97 	.word	0x40242e97
    28f4:	9fbe76c9 	.word	0x9fbe76c9
    28f8:	40242f1a 	.word	0x40242f1a
    28fc:	b22d0e56 	.word	0xb22d0e56
    2900:	40242f9d 	.word	0x40242f9d
    2904:	c49ba5e3 	.word	0xc49ba5e3
    2908:	40243020 	.word	0x40243020
    290c:	d70a3d71 	.word	0xd70a3d71
    2910:	402430a3 	.word	0x402430a3
    2914:	e978d4fe 	.word	0xe978d4fe
    2918:	40243126 	.word	0x40243126
    291c:	fbe76c8b 	.word	0xfbe76c8b
    2920:	402431a9 	.word	0x402431a9
    2924:	0e560419 	.word	0x0e560419
    2928:	4024322d 	.word	0x4024322d
    292c:	20c49ba6 	.word	0x20c49ba6
    2930:	402432b0 	.word	0x402432b0
    2934:	33333333 	.word	0x33333333
    2938:	40243333 	.word	0x40243333
    293c:	45a1cac1 	.word	0x45a1cac1
    2940:	402433b6 	.word	0x402433b6
    2944:	5810624e 	.word	0x5810624e
    2948:	40243439 	.word	0x40243439
    294c:	6a7ef9db 	.word	0x6a7ef9db
    2950:	402434bc 	.word	0x402434bc
    2954:	7ced9168 	.word	0x7ced9168
    2958:	4024353f 	.word	0x4024353f
    295c:	8f5c28f6 	.word	0x8f5c28f6
    2960:	402435c2 	.word	0x402435c2
    2964:	a1cac083 	.word	0xa1cac083
    2968:	40243645 	.word	0x40243645
    296c:	b4395810 	.word	0xb4395810
    2970:	402436c8 	.word	0x402436c8
    2974:	c6a7ef9e 	.word	0xc6a7ef9e
    2978:	4024374b 	.word	0x4024374b
    297c:	d916872b 	.word	0xd916872b
    2980:	402437ce 	.word	0x402437ce
    2984:	eb851eb8 	.word	0xeb851eb8
    2988:	40243851 	.word	0x40243851
    298c:	fdf3b646 	.word	0xfdf3b646
    2990:	402438d4 	.word	0x402438d4
    2994:	10624dd3 	.word	0x10624dd3
    2998:	40243958 	.word	0x40243958
    299c:	22d0e560 	.word	0x22d0e560
    29a0:	402439db 	.word	0x402439db
    29a4:	353f7cee 	.word	0x353f7cee
    29a8:	40243a5e 	.word	0x40243a5e
    29ac:	47ae147b 	.word	0x47ae147b
    29b0:	40243ae1 	.word	0x40243ae1
    29b4:	5a1cac08 	.word	0x5a1cac08
    29b8:	40243b64 	.word	0x40243b64
    29bc:	6c8b4396 	.word	0x6c8b4396
    29c0:	40243be7 	.word	0x40243be7
    29c4:	7ef9db23 	.word	0x7ef9db23
    29c8:	40243c6a 	.word	0x40243c6a
    29cc:	916872b0 	.word	0x916872b0
    29d0:	40243ced 	.word	0x40243ced
    29d4:	a3d70a3d 	.word	0xa3d70a3d
    29d8:	40243d70 	.word	0x40243d70
    29dc:	b645a1cb 	.word	0xb645a1cb
    29e0:	40243df3 	.word	0x40243df3
    29e4:	c8b43958 	.word	0xc8b43958
    29e8:	40243e76 	.word	0x40243e76
    29ec:	db22d0e5 	.word	0xdb22d0e5
    29f0:	40243ef9 	.word	0x40243ef9
    29f4:	ed916873 	.word	0xed916873
    29f8:	40243f7c 	.word	0x40243f7c
    29fc:	00000000 	.word	0x00000000
    2a00:	40244000 	.word	0x40244000
    2a04:	126e978d 	.word	0x126e978d
    2a08:	40244083 	.word	0x40244083
    2a0c:	24dd2f1b 	.word	0x24dd2f1b
    2a10:	40244106 	.word	0x40244106
    2a14:	374bc6a8 	.word	0x374bc6a8
    2a18:	40244189 	.word	0x40244189
    2a1c:	126e978d 	.word	0x126e978d
    2a20:	40260083 	.word	0x40260083
    2a24:	24dd2f1b 	.word	0x24dd2f1b
    2a28:	40260106 	.word	0x40260106
    2a2c:	374bc6a8 	.word	0x374bc6a8
    2a30:	40260189 	.word	0x40260189
    2a34:	49ba5e35 	.word	0x49ba5e35
    2a38:	4026020c 	.word	0x4026020c
    2a3c:	5c28f5c3 	.word	0x5c28f5c3
    2a40:	4026028f 	.word	0x4026028f
    2a44:	6e978d50 	.word	0x6e978d50
    2a48:	40260312 	.word	0x40260312
    2a4c:	810624dd 	.word	0x810624dd
    2a50:	40260395 	.word	0x40260395
    2a54:	9374bc6a 	.word	0x9374bc6a
    2a58:	40260418 	.word	0x40260418
    2a5c:	a5e353f8 	.word	0xa5e353f8
    2a60:	4026049b 	.word	0x4026049b
    2a64:	b851eb85 	.word	0xb851eb85
    2a68:	4026051e 	.word	0x4026051e
    2a6c:	cac08312 	.word	0xcac08312
    2a70:	402605a1 	.word	0x402605a1
    2a74:	dd2f1aa0 	.word	0xdd2f1aa0
    2a78:	40260624 	.word	0x40260624
    2a7c:	ef9db22d 	.word	0xef9db22d
    2a80:	402606a7 	.word	0x402606a7
    2a84:	020c49ba 	.word	0x020c49ba
    2a88:	4026072b 	.word	0x4026072b
    2a8c:	147ae148 	.word	0x147ae148
    2a90:	402607ae 	.word	0x402607ae
    2a94:	26e978d5 	.word	0x26e978d5
    2a98:	40260831 	.word	0x40260831
    2a9c:	39581062 	.word	0x39581062
    2aa0:	402608b4 	.word	0x402608b4
    2aa4:	4bc6a7f0 	.word	0x4bc6a7f0
    2aa8:	40260937 	.word	0x40260937
    2aac:	5e353f7d 	.word	0x5e353f7d
    2ab0:	402609ba 	.word	0x402609ba
    2ab4:	70a3d70a 	.word	0x70a3d70a
    2ab8:	40260a3d 	.word	0x40260a3d
    2abc:	83126e98 	.word	0x83126e98
    2ac0:	40260ac0 	.word	0x40260ac0
    2ac4:	95810625 	.word	0x95810625
    2ac8:	40260b43 	.word	0x40260b43
    2acc:	a7ef9db2 	.word	0xa7ef9db2
    2ad0:	40260bc6 	.word	0x40260bc6
    2ad4:	ba5e353f 	.word	0xba5e353f
    2ad8:	40260c49 	.word	0x40260c49
    2adc:	cccccccd 	.word	0xcccccccd
    2ae0:	40260ccc 	.word	0x40260ccc
    2ae4:	df3b645a 	.word	0xdf3b645a
    2ae8:	40260d4f 	.word	0x40260d4f
    2aec:	f1a9fbe7 	.word	0xf1a9fbe7
    2af0:	40260dd2 	.word	0x40260dd2
    2af4:	04189375 	.word	0x04189375
    2af8:	40260e56 	.word	0x40260e56
    2afc:	16872b02 	.word	0x16872b02
    2b00:	40260ed9 	.word	0x40260ed9
    2b04:	28f5c28f 	.word	0x28f5c28f
    2b08:	40260f5c 	.word	0x40260f5c
    2b0c:	3b645a1d 	.word	0x3b645a1d
    2b10:	40260fdf 	.word	0x40260fdf
    2b14:	4dd2f1aa 	.word	0x4dd2f1aa
    2b18:	40261062 	.word	0x40261062
    2b1c:	60418937 	.word	0x60418937
    2b20:	402610e5 	.word	0x402610e5
    2b24:	72b020c5 	.word	0x72b020c5
    2b28:	40261168 	.word	0x40261168
    2b2c:	851eb852 	.word	0x851eb852
    2b30:	402611eb 	.word	0x402611eb
    2b34:	978d4fdf 	.word	0x978d4fdf
    2b38:	4026126e 	.word	0x4026126e
    2b3c:	a9fbe76d 	.word	0xa9fbe76d
    2b40:	402612f1 	.word	0x402612f1
    2b44:	bc6a7efa 	.word	0xbc6a7efa
    2b48:	40261374 	.word	0x40261374
    2b4c:	ced91687 	.word	0xced91687
    2b50:	402613f7 	.word	0x402613f7
    2b54:	e147ae14 	.word	0xe147ae14
    2b58:	4026147a 	.word	0x4026147a
    2b5c:	f3b645a2 	.word	0xf3b645a2
    2b60:	402614fd 	.word	0x402614fd
    2b64:	0624dd2f 	.word	0x0624dd2f
    2b68:	40261581 	.word	0x40261581
    2b6c:	189374bc 	.word	0x189374bc
    2b70:	40261604 	.word	0x40261604
    2b74:	2b020c4a 	.word	0x2b020c4a
    2b78:	40261687 	.word	0x40261687
    2b7c:	3d70a3d7 	.word	0x3d70a3d7
    2b80:	4026170a 	.word	0x4026170a
    2b84:	4fdf3b64 	.word	0x4fdf3b64
    2b88:	4026178d 	.word	0x4026178d
    2b8c:	624dd2f2 	.word	0x624dd2f2
    2b90:	40261810 	.word	0x40261810
    2b94:	74bc6a7f 	.word	0x74bc6a7f
    2b98:	40261893 	.word	0x40261893
    2b9c:	872b020c 	.word	0x872b020c
    2ba0:	40261916 	.word	0x40261916
    2ba4:	9999999a 	.word	0x9999999a
    2ba8:	40261999 	.word	0x40261999
    2bac:	ac083127 	.word	0xac083127
    2bb0:	40261a1c 	.word	0x40261a1c
    2bb4:	be76c8b4 	.word	0xbe76c8b4
    2bb8:	40261a9f 	.word	0x40261a9f
    2bbc:	d0e56042 	.word	0xd0e56042
    2bc0:	40261b22 	.word	0x40261b22
    2bc4:	e353f7cf 	.word	0xe353f7cf
    2bc8:	40261ba5 	.word	0x40261ba5
    2bcc:	f5c28f5c 	.word	0xf5c28f5c
    2bd0:	40261c28 	.word	0x40261c28
    2bd4:	083126e9 	.word	0x083126e9
    2bd8:	40261cac 	.word	0x40261cac
    2bdc:	1a9fbe77 	.word	0x1a9fbe77
    2be0:	40261d2f 	.word	0x40261d2f
    2be4:	2d0e5604 	.word	0x2d0e5604
    2be8:	40261db2 	.word	0x40261db2
    2bec:	3f7ced91 	.word	0x3f7ced91
    2bf0:	40261e35 	.word	0x40261e35
    2bf4:	51eb851f 	.word	0x51eb851f
    2bf8:	40261eb8 	.word	0x40261eb8
    2bfc:	645a1cac 	.word	0x645a1cac
    2c00:	40261f3b 	.word	0x40261f3b
    2c04:	76c8b439 	.word	0x76c8b439
    2c08:	40261fbe 	.word	0x40261fbe
    2c0c:	89374bc7 	.word	0x89374bc7
    2c10:	40262041 	.word	0x40262041
    2c14:	9ba5e354 	.word	0x9ba5e354
    2c18:	402620c4 	.word	0x402620c4
    2c1c:	ae147ae1 	.word	0xae147ae1
    2c20:	40262147 	.word	0x40262147
    2c24:	c083126f 	.word	0xc083126f
    2c28:	402621ca 	.word	0x402621ca
    2c2c:	d2f1a9fc 	.word	0xd2f1a9fc
    2c30:	4026224d 	.word	0x4026224d
    2c34:	e5604189 	.word	0xe5604189
    2c38:	402622d0 	.word	0x402622d0
    2c3c:	f7ced917 	.word	0xf7ced917
    2c40:	40262353 	.word	0x40262353
    2c44:	0a3d70a4 	.word	0x0a3d70a4
    2c48:	402623d7 	.word	0x402623d7
    2c4c:	1cac0831 	.word	0x1cac0831
    2c50:	4026245a 	.word	0x4026245a
    2c54:	2f1a9fbe 	.word	0x2f1a9fbe
    2c58:	402624dd 	.word	0x402624dd
    2c5c:	4189374c 	.word	0x4189374c
    2c60:	40262560 	.word	0x40262560
    2c64:	53f7ced9 	.word	0x53f7ced9
    2c68:	402625e3 	.word	0x402625e3
    2c6c:	66666666 	.word	0x66666666
    2c70:	40262666 	.word	0x40262666
    2c74:	78d4fdf4 	.word	0x78d4fdf4
    2c78:	402626e9 	.word	0x402626e9
    2c7c:	8b439581 	.word	0x8b439581
    2c80:	4026276c 	.word	0x4026276c
    2c84:	9db22d0e 	.word	0x9db22d0e
    2c88:	402627ef 	.word	0x402627ef
    2c8c:	b020c49c 	.word	0xb020c49c
    2c90:	40262872 	.word	0x40262872
    2c94:	c28f5c29 	.word	0xc28f5c29
    2c98:	402628f5 	.word	0x402628f5
    2c9c:	d4fdf3b6 	.word	0xd4fdf3b6
    2ca0:	40262978 	.word	0x40262978
    2ca4:	e76c8b44 	.word	0xe76c8b44
    2ca8:	402629fb 	.word	0x402629fb
    2cac:	f9db22d1 	.word	0xf9db22d1
    2cb0:	40262a7e 	.word	0x40262a7e
    2cb4:	0c49ba5e 	.word	0x0c49ba5e
    2cb8:	40262b02 	.word	0x40262b02
    2cbc:	1eb851ec 	.word	0x1eb851ec
    2cc0:	40262b85 	.word	0x40262b85
    2cc4:	3126e979 	.word	0x3126e979
    2cc8:	40262c08 	.word	0x40262c08
    2ccc:	43958106 	.word	0x43958106
    2cd0:	40262c8b 	.word	0x40262c8b
    2cd4:	56041893 	.word	0x56041893
    2cd8:	40262d0e 	.word	0x40262d0e
    2cdc:	6872b021 	.word	0x6872b021
    2ce0:	40262d91 	.word	0x40262d91
    2ce4:	7ae147ae 	.word	0x7ae147ae
    2ce8:	40262e14 	.word	0x40262e14
    2cec:	8d4fdf3b 	.word	0x8d4fdf3b
    2cf0:	40262e97 	.word	0x40262e97
    2cf4:	9fbe76c9 	.word	0x9fbe76c9
    2cf8:	40262f1a 	.word	0x40262f1a
    2cfc:	b22d0e56 	.word	0xb22d0e56
    2d00:	40262f9d 	.word	0x40262f9d
    2d04:	c49ba5e3 	.word	0xc49ba5e3
    2d08:	40263020 	.word	0x40263020
    2d0c:	d70a3d71 	.word	0xd70a3d71
    2d10:	402630a3 	.word	0x402630a3
    2d14:	e978d4fe 	.word	0xe978d4fe
    2d18:	40263126 	.word	0x40263126
    2d1c:	fbe76c8b 	.word	0xfbe76c8b
    2d20:	402631a9 	.word	0x402631a9
    2d24:	0e560419 	.word	0x0e560419
    2d28:	4026322d 	.word	0x4026322d
    2d2c:	20c49ba6 	.word	0x20c49ba6
    2d30:	402632b0 	.word	0x402632b0
    2d34:	33333333 	.word	0x33333333
    2d38:	40263333 	.word	0x40263333
    2d3c:	45a1cac1 	.word	0x45a1cac1
    2d40:	402633b6 	.word	0x402633b6
    2d44:	5810624e 	.word	0x5810624e
    2d48:	40263439 	.word	0x40263439
    2d4c:	6a7ef9db 	.word	0x6a7ef9db
    2d50:	402634bc 	.word	0x402634bc
    2d54:	7ced9168 	.word	0x7ced9168
    2d58:	4026353f 	.word	0x4026353f
    2d5c:	8f5c28f6 	.word	0x8f5c28f6
    2d60:	402635c2 	.word	0x402635c2
    2d64:	a1cac083 	.word	0xa1cac083
    2d68:	40263645 	.word	0x40263645
    2d6c:	b4395810 	.word	0xb4395810
    2d70:	402636c8 	.word	0x402636c8
    2d74:	c6a7ef9e 	.word	0xc6a7ef9e
    2d78:	4026374b 	.word	0x4026374b
    2d7c:	d916872b 	.word	0xd916872b
    2d80:	402637ce 	.word	0x402637ce
    2d84:	eb851eb8 	.word	0xeb851eb8
    2d88:	40263851 	.word	0x40263851
    2d8c:	fdf3b646 	.word	0xfdf3b646
    2d90:	402638d4 	.word	0x402638d4
    2d94:	10624dd3 	.word	0x10624dd3
    2d98:	40263958 	.word	0x40263958
    2d9c:	22d0e560 	.word	0x22d0e560
    2da0:	402639db 	.word	0x402639db
    2da4:	353f7cee 	.word	0x353f7cee
    2da8:	40263a5e 	.word	0x40263a5e
    2dac:	47ae147b 	.word	0x47ae147b
    2db0:	40263ae1 	.word	0x40263ae1
    2db4:	5a1cac08 	.word	0x5a1cac08
    2db8:	40263b64 	.word	0x40263b64
    2dbc:	6c8b4396 	.word	0x6c8b4396
    2dc0:	40263be7 	.word	0x40263be7
    2dc4:	7ef9db23 	.word	0x7ef9db23
    2dc8:	40263c6a 	.word	0x40263c6a
    2dcc:	916872b0 	.word	0x916872b0
    2dd0:	40263ced 	.word	0x40263ced
    2dd4:	a3d70a3d 	.word	0xa3d70a3d
    2dd8:	40263d70 	.word	0x40263d70
    2ddc:	b645a1cb 	.word	0xb645a1cb
    2de0:	40263df3 	.word	0x40263df3
    2de4:	c8b43958 	.word	0xc8b43958
    2de8:	40263e76 	.word	0x40263e76
    2dec:	db22d0e5 	.word	0xdb22d0e5
    2df0:	40263ef9 	.word	0x40263ef9
    2df4:	ed916873 	.word	0xed916873
    2df8:	40263f7c 	.word	0x40263f7c
    2dfc:	00000000 	.word	0x00000000
    2e00:	40264000 	.word	0x40264000
    2e04:	126e978d 	.word	0x126e978d
    2e08:	40264083 	.word	0x40264083
    2e0c:	24dd2f1b 	.word	0x24dd2f1b
    2e10:	40264106 	.word	0x40264106
    2e14:	374bc6a8 	.word	0x374bc6a8
    2e18:	40264189 	.word	0x40264189
    2e1c:	126e978d 	.word	0x126e978d
    2e20:	40280083 	.word	0x40280083
    2e24:	24dd2f1b 	.word	0x24dd2f1b
    2e28:	40280106 	.word	0x40280106
    2e2c:	374bc6a8 	.word	0x374bc6a8
    2e30:	40280189 	.word	0x40280189
    2e34:	49ba5e35 	.word	0x49ba5e35
    2e38:	4028020c 	.word	0x4028020c
    2e3c:	5c28f5c3 	.word	0x5c28f5c3
    2e40:	4028028f 	.word	0x4028028f
    2e44:	6e978d50 	.word	0x6e978d50
    2e48:	40280312 	.word	0x40280312
    2e4c:	810624dd 	.word	0x810624dd
    2e50:	40280395 	.word	0x40280395
    2e54:	9374bc6a 	.word	0x9374bc6a
    2e58:	40280418 	.word	0x40280418
    2e5c:	a5e353f8 	.word	0xa5e353f8
    2e60:	4028049b 	.word	0x4028049b
    2e64:	b851eb85 	.word	0xb851eb85
    2e68:	4028051e 	.word	0x4028051e
    2e6c:	cac08312 	.word	0xcac08312
    2e70:	402805a1 	.word	0x402805a1
    2e74:	dd2f1aa0 	.word	0xdd2f1aa0
    2e78:	40280624 	.word	0x40280624
    2e7c:	ef9db22d 	.word	0xef9db22d
    2e80:	402806a7 	.word	0x402806a7
    2e84:	020c49ba 	.word	0x020c49ba
    2e88:	4028072b 	.word	0x4028072b
    2e8c:	147ae148 	.word	0x147ae148
    2e90:	402807ae 	.word	0x402807ae
    2e94:	26e978d5 	.word	0x26e978d5
    2e98:	40280831 	.word	0x40280831
    2e9c:	39581062 	.word	0x39581062
    2ea0:	402808b4 	.word	0x402808b4
    2ea4:	4bc6a7f0 	.word	0x4bc6a7f0
    2ea8:	40280937 	.word	0x40280937
    2eac:	5e353f7d 	.word	0x5e353f7d
    2eb0:	402809ba 	.word	0x402809ba
    2eb4:	70a3d70a 	.word	0x70a3d70a
    2eb8:	40280a3d 	.word	0x40280a3d
    2ebc:	83126e98 	.word	0x83126e98
    2ec0:	40280ac0 	.word	0x40280ac0
    2ec4:	95810625 	.word	0x95810625
    2ec8:	40280b43 	.word	0x40280b43
    2ecc:	a7ef9db2 	.word	0xa7ef9db2
    2ed0:	40280bc6 	.word	0x40280bc6
    2ed4:	ba5e353f 	.word	0xba5e353f
    2ed8:	40280c49 	.word	0x40280c49
    2edc:	cccccccd 	.word	0xcccccccd
    2ee0:	40280ccc 	.word	0x40280ccc
    2ee4:	df3b645a 	.word	0xdf3b645a
    2ee8:	40280d4f 	.word	0x40280d4f
    2eec:	f1a9fbe7 	.word	0xf1a9fbe7
    2ef0:	40280dd2 	.word	0x40280dd2
    2ef4:	04189375 	.word	0x04189375
    2ef8:	40280e56 	.word	0x40280e56
    2efc:	16872b02 	.word	0x16872b02
    2f00:	40280ed9 	.word	0x40280ed9
    2f04:	28f5c28f 	.word	0x28f5c28f
    2f08:	40280f5c 	.word	0x40280f5c
    2f0c:	3b645a1d 	.word	0x3b645a1d
    2f10:	40280fdf 	.word	0x40280fdf
    2f14:	4dd2f1aa 	.word	0x4dd2f1aa
    2f18:	40281062 	.word	0x40281062
    2f1c:	60418937 	.word	0x60418937
    2f20:	402810e5 	.word	0x402810e5
    2f24:	72b020c5 	.word	0x72b020c5
    2f28:	40281168 	.word	0x40281168
    2f2c:	851eb852 	.word	0x851eb852
    2f30:	402811eb 	.word	0x402811eb
    2f34:	978d4fdf 	.word	0x978d4fdf
    2f38:	4028126e 	.word	0x4028126e
    2f3c:	a9fbe76d 	.word	0xa9fbe76d
    2f40:	402812f1 	.word	0x402812f1
    2f44:	bc6a7efa 	.word	0xbc6a7efa
    2f48:	40281374 	.word	0x40281374
    2f4c:	ced91687 	.word	0xced91687
    2f50:	402813f7 	.word	0x402813f7
    2f54:	e147ae14 	.word	0xe147ae14
    2f58:	4028147a 	.word	0x4028147a
    2f5c:	f3b645a2 	.word	0xf3b645a2
    2f60:	402814fd 	.word	0x402814fd
    2f64:	0624dd2f 	.word	0x0624dd2f
    2f68:	40281581 	.word	0x40281581
    2f6c:	189374bc 	.word	0x189374bc
    2f70:	40281604 	.word	0x40281604
    2f74:	2b020c4a 	.word	0x2b020c4a
    2f78:	40281687 	.word	0x40281687
    2f7c:	3d70a3d7 	.word	0x3d70a3d7
    2f80:	4028170a 	.word	0x4028170a
    2f84:	4fdf3b64 	.word	0x4fdf3b64
    2f88:	4028178d 	.word	0x4028178d
    2f8c:	624dd2f2 	.word	0x624dd2f2
    2f90:	40281810 	.word	0x40281810
    2f94:	74bc6a7f 	.word	0x74bc6a7f
    2f98:	40281893 	.word	0x40281893
    2f9c:	872b020c 	.word	0x872b020c
    2fa0:	40281916 	.word	0x40281916
    2fa4:	9999999a 	.word	0x9999999a
    2fa8:	40281999 	.word	0x40281999
    2fac:	ac083127 	.word	0xac083127
    2fb0:	40281a1c 	.word	0x40281a1c
    2fb4:	be76c8b4 	.word	0xbe76c8b4
    2fb8:	40281a9f 	.word	0x40281a9f
    2fbc:	d0e56042 	.word	0xd0e56042
    2fc0:	40281b22 	.word	0x40281b22
    2fc4:	e353f7cf 	.word	0xe353f7cf
    2fc8:	40281ba5 	.word	0x40281ba5
    2fcc:	f5c28f5c 	.word	0xf5c28f5c
    2fd0:	40281c28 	.word	0x40281c28
    2fd4:	083126e9 	.word	0x083126e9
    2fd8:	40281cac 	.word	0x40281cac
    2fdc:	1a9fbe77 	.word	0x1a9fbe77
    2fe0:	40281d2f 	.word	0x40281d2f
    2fe4:	2d0e5604 	.word	0x2d0e5604
    2fe8:	40281db2 	.word	0x40281db2
    2fec:	3f7ced91 	.word	0x3f7ced91
    2ff0:	40281e35 	.word	0x40281e35
    2ff4:	51eb851f 	.word	0x51eb851f
    2ff8:	40281eb8 	.word	0x40281eb8
    2ffc:	645a1cac 	.word	0x645a1cac
    3000:	40281f3b 	.word	0x40281f3b
    3004:	76c8b439 	.word	0x76c8b439
    3008:	40281fbe 	.word	0x40281fbe
    300c:	89374bc7 	.word	0x89374bc7
    3010:	40282041 	.word	0x40282041
    3014:	9ba5e354 	.word	0x9ba5e354
    3018:	402820c4 	.word	0x402820c4
    301c:	ae147ae1 	.word	0xae147ae1
    3020:	40282147 	.word	0x40282147
    3024:	c083126f 	.word	0xc083126f
    3028:	402821ca 	.word	0x402821ca
    302c:	d2f1a9fc 	.word	0xd2f1a9fc
    3030:	4028224d 	.word	0x4028224d
    3034:	e5604189 	.word	0xe5604189
    3038:	402822d0 	.word	0x402822d0
    303c:	f7ced917 	.word	0xf7ced917
    3040:	40282353 	.word	0x40282353
    3044:	0a3d70a4 	.word	0x0a3d70a4
    3048:	402823d7 	.word	0x402823d7
    304c:	1cac0831 	.word	0x1cac0831
    3050:	4028245a 	.word	0x4028245a
    3054:	2f1a9fbe 	.word	0x2f1a9fbe
    3058:	402824dd 	.word	0x402824dd
    305c:	4189374c 	.word	0x4189374c
    3060:	40282560 	.word	0x40282560
    3064:	53f7ced9 	.word	0x53f7ced9
    3068:	402825e3 	.word	0x402825e3
    306c:	66666666 	.word	0x66666666
    3070:	40282666 	.word	0x40282666
    3074:	78d4fdf4 	.word	0x78d4fdf4
    3078:	402826e9 	.word	0x402826e9
    307c:	8b439581 	.word	0x8b439581
    3080:	4028276c 	.word	0x4028276c
    3084:	9db22d0e 	.word	0x9db22d0e
    3088:	402827ef 	.word	0x402827ef
    308c:	b020c49c 	.word	0xb020c49c
    3090:	40282872 	.word	0x40282872
    3094:	c28f5c29 	.word	0xc28f5c29
    3098:	402828f5 	.word	0x402828f5
    309c:	d4fdf3b6 	.word	0xd4fdf3b6
    30a0:	40282978 	.word	0x40282978
    30a4:	e76c8b44 	.word	0xe76c8b44
    30a8:	402829fb 	.word	0x402829fb
    30ac:	f9db22d1 	.word	0xf9db22d1
    30b0:	40282a7e 	.word	0x40282a7e
    30b4:	0c49ba5e 	.word	0x0c49ba5e
    30b8:	40282b02 	.word	0x40282b02
    30bc:	1eb851ec 	.word	0x1eb851ec
    30c0:	40282b85 	.word	0x40282b85
    30c4:	3126e979 	.word	0x3126e979
    30c8:	40282c08 	.word	0x40282c08
    30cc:	43958106 	.word	0x43958106
    30d0:	40282c8b 	.word	0x40282c8b
    30d4:	56041893 	.word	0x56041893
    30d8:	40282d0e 	.word	0x40282d0e
    30dc:	6872b021 	.word	0x6872b021
    30e0:	40282d91 	.word	0x40282d91
    30e4:	7ae147ae 	.word	0x7ae147ae
    30e8:	40282e14 	.word	0x40282e14
    30ec:	8d4fdf3b 	.word	0x8d4fdf3b
    30f0:	40282e97 	.word	0x40282e97
    30f4:	9fbe76c9 	.word	0x9fbe76c9
    30f8:	40282f1a 	.word	0x40282f1a
    30fc:	b22d0e56 	.word	0xb22d0e56
    3100:	40282f9d 	.word	0x40282f9d
    3104:	c49ba5e3 	.word	0xc49ba5e3
    3108:	40283020 	.word	0x40283020
    310c:	d70a3d71 	.word	0xd70a3d71
    3110:	402830a3 	.word	0x402830a3
    3114:	e978d4fe 	.word	0xe978d4fe
    3118:	40283126 	.word	0x40283126
    311c:	fbe76c8b 	.word	0xfbe76c8b
    3120:	402831a9 	.word	0x402831a9
    3124:	0e560419 	.word	0x0e560419
    3128:	4028322d 	.word	0x4028322d
    312c:	20c49ba6 	.word	0x20c49ba6
    3130:	402832b0 	.word	0x402832b0
    3134:	33333333 	.word	0x33333333
    3138:	40283333 	.word	0x40283333
    313c:	45a1cac1 	.word	0x45a1cac1
    3140:	402833b6 	.word	0x402833b6
    3144:	5810624e 	.word	0x5810624e
    3148:	40283439 	.word	0x40283439
    314c:	6a7ef9db 	.word	0x6a7ef9db
    3150:	402834bc 	.word	0x402834bc
    3154:	7ced9168 	.word	0x7ced9168
    3158:	4028353f 	.word	0x4028353f
    315c:	8f5c28f6 	.word	0x8f5c28f6
    3160:	402835c2 	.word	0x402835c2
    3164:	a1cac083 	.word	0xa1cac083
    3168:	40283645 	.word	0x40283645
    316c:	b4395810 	.word	0xb4395810
    3170:	402836c8 	.word	0x402836c8
    3174:	c6a7ef9e 	.word	0xc6a7ef9e
    3178:	4028374b 	.word	0x4028374b
    317c:	d916872b 	.word	0xd916872b
    3180:	402837ce 	.word	0x402837ce
    3184:	eb851eb8 	.word	0xeb851eb8
    3188:	40283851 	.word	0x40283851
    318c:	fdf3b646 	.word	0xfdf3b646
    3190:	402838d4 	.word	0x402838d4
    3194:	10624dd3 	.word	0x10624dd3
    3198:	40283958 	.word	0x40283958
    319c:	22d0e560 	.word	0x22d0e560
    31a0:	402839db 	.word	0x402839db
    31a4:	353f7cee 	.word	0x353f7cee
    31a8:	40283a5e 	.word	0x40283a5e
    31ac:	47ae147b 	.word	0x47ae147b
    31b0:	40283ae1 	.word	0x40283ae1
    31b4:	5a1cac08 	.word	0x5a1cac08
    31b8:	40283b64 	.word	0x40283b64
    31bc:	6c8b4396 	.word	0x6c8b4396
    31c0:	40283be7 	.word	0x40283be7
    31c4:	7ef9db23 	.word	0x7ef9db23
    31c8:	40283c6a 	.word	0x40283c6a
    31cc:	916872b0 	.word	0x916872b0
    31d0:	40283ced 	.word	0x40283ced
    31d4:	a3d70a3d 	.word	0xa3d70a3d
    31d8:	40283d70 	.word	0x40283d70
    31dc:	b645a1cb 	.word	0xb645a1cb
    31e0:	40283df3 	.word	0x40283df3
    31e4:	c8b43958 	.word	0xc8b43958
    31e8:	40283e76 	.word	0x40283e76
    31ec:	db22d0e5 	.word	0xdb22d0e5
    31f0:	40283ef9 	.word	0x40283ef9
    31f4:	ed916873 	.word	0xed916873
    31f8:	40283f7c 	.word	0x40283f7c
    31fc:	00000000 	.word	0x00000000
    3200:	40284000 	.word	0x40284000
    3204:	126e978d 	.word	0x126e978d
    3208:	40284083 	.word	0x40284083
    320c:	24dd2f1b 	.word	0x24dd2f1b
    3210:	40284106 	.word	0x40284106
    3214:	374bc6a8 	.word	0x374bc6a8
    3218:	40284189 	.word	0x40284189
    321c:	126e978d 	.word	0x126e978d
    3220:	402a0083 	.word	0x402a0083
    3224:	24dd2f1b 	.word	0x24dd2f1b
    3228:	402a0106 	.word	0x402a0106
    322c:	374bc6a8 	.word	0x374bc6a8
    3230:	402a0189 	.word	0x402a0189
    3234:	49ba5e35 	.word	0x49ba5e35
    3238:	402a020c 	.word	0x402a020c
    323c:	5c28f5c3 	.word	0x5c28f5c3
    3240:	402a028f 	.word	0x402a028f
    3244:	6e978d50 	.word	0x6e978d50
    3248:	402a0312 	.word	0x402a0312
    324c:	810624dd 	.word	0x810624dd
    3250:	402a0395 	.word	0x402a0395
    3254:	9374bc6a 	.word	0x9374bc6a
    3258:	402a0418 	.word	0x402a0418
    325c:	a5e353f8 	.word	0xa5e353f8
    3260:	402a049b 	.word	0x402a049b
    3264:	b851eb85 	.word	0xb851eb85
    3268:	402a051e 	.word	0x402a051e
    326c:	cac08312 	.word	0xcac08312
    3270:	402a05a1 	.word	0x402a05a1
    3274:	dd2f1aa0 	.word	0xdd2f1aa0
    3278:	402a0624 	.word	0x402a0624
    327c:	ef9db22d 	.word	0xef9db22d
    3280:	402a06a7 	.word	0x402a06a7
    3284:	020c49ba 	.word	0x020c49ba
    3288:	402a072b 	.word	0x402a072b
    328c:	147ae148 	.word	0x147ae148
    3290:	402a07ae 	.word	0x402a07ae
    3294:	26e978d5 	.word	0x26e978d5
    3298:	402a0831 	.word	0x402a0831
    329c:	39581062 	.word	0x39581062
    32a0:	402a08b4 	.word	0x402a08b4
    32a4:	4bc6a7f0 	.word	0x4bc6a7f0
    32a8:	402a0937 	.word	0x402a0937
    32ac:	5e353f7d 	.word	0x5e353f7d
    32b0:	402a09ba 	.word	0x402a09ba
    32b4:	70a3d70a 	.word	0x70a3d70a
    32b8:	402a0a3d 	.word	0x402a0a3d
    32bc:	83126e98 	.word	0x83126e98
    32c0:	402a0ac0 	.word	0x402a0ac0
    32c4:	95810625 	.word	0x95810625
    32c8:	402a0b43 	.word	0x402a0b43
    32cc:	a7ef9db2 	.word	0xa7ef9db2
    32d0:	402a0bc6 	.word	0x402a0bc6
    32d4:	ba5e353f 	.word	0xba5e353f
    32d8:	402a0c49 	.word	0x402a0c49
    32dc:	cccccccd 	.word	0xcccccccd
    32e0:	402a0ccc 	.word	0x402a0ccc
    32e4:	df3b645a 	.word	0xdf3b645a
    32e8:	402a0d4f 	.word	0x402a0d4f
    32ec:	f1a9fbe7 	.word	0xf1a9fbe7
    32f0:	402a0dd2 	.word	0x402a0dd2
    32f4:	04189375 	.word	0x04189375
    32f8:	402a0e56 	.word	0x402a0e56
    32fc:	16872b02 	.word	0x16872b02
    3300:	402a0ed9 	.word	0x402a0ed9
    3304:	28f5c28f 	.word	0x28f5c28f
    3308:	402a0f5c 	.word	0x402a0f5c
    330c:	3b645a1d 	.word	0x3b645a1d
    3310:	402a0fdf 	.word	0x402a0fdf
    3314:	4dd2f1aa 	.word	0x4dd2f1aa
    3318:	402a1062 	.word	0x402a1062
    331c:	60418937 	.word	0x60418937
    3320:	402a10e5 	.word	0x402a10e5
    3324:	72b020c5 	.word	0x72b020c5
    3328:	402a1168 	.word	0x402a1168
    332c:	851eb852 	.word	0x851eb852
    3330:	402a11eb 	.word	0x402a11eb
    3334:	978d4fdf 	.word	0x978d4fdf
    3338:	402a126e 	.word	0x402a126e
    333c:	a9fbe76d 	.word	0xa9fbe76d
    3340:	402a12f1 	.word	0x402a12f1
    3344:	bc6a7efa 	.word	0xbc6a7efa
    3348:	402a1374 	.word	0x402a1374
    334c:	ced91687 	.word	0xced91687
    3350:	402a13f7 	.word	0x402a13f7
    3354:	e147ae14 	.word	0xe147ae14
    3358:	402a147a 	.word	0x402a147a
    335c:	f3b645a2 	.word	0xf3b645a2
    3360:	402a14fd 	.word	0x402a14fd
    3364:	0624dd2f 	.word	0x0624dd2f
    3368:	402a1581 	.word	0x402a1581
    336c:	189374bc 	.word	0x189374bc
    3370:	402a1604 	.word	0x402a1604
    3374:	2b020c4a 	.word	0x2b020c4a
    3378:	402a1687 	.word	0x402a1687
    337c:	3d70a3d7 	.word	0x3d70a3d7
    3380:	402a170a 	.word	0x402a170a
    3384:	4fdf3b64 	.word	0x4fdf3b64
    3388:	402a178d 	.word	0x402a178d
    338c:	624dd2f2 	.word	0x624dd2f2
    3390:	402a1810 	.word	0x402a1810
    3394:	74bc6a7f 	.word	0x74bc6a7f
    3398:	402a1893 	.word	0x402a1893
    339c:	872b020c 	.word	0x872b020c
    33a0:	402a1916 	.word	0x402a1916
    33a4:	9999999a 	.word	0x9999999a
    33a8:	402a1999 	.word	0x402a1999
    33ac:	ac083127 	.word	0xac083127
    33b0:	402a1a1c 	.word	0x402a1a1c
    33b4:	be76c8b4 	.word	0xbe76c8b4
    33b8:	402a1a9f 	.word	0x402a1a9f
    33bc:	d0e56042 	.word	0xd0e56042
    33c0:	402a1b22 	.word	0x402a1b22
    33c4:	e353f7cf 	.word	0xe353f7cf
    33c8:	402a1ba5 	.word	0x402a1ba5
    33cc:	f5c28f5c 	.word	0xf5c28f5c
    33d0:	402a1c28 	.word	0x402a1c28
    33d4:	083126e9 	.word	0x083126e9
    33d8:	402a1cac 	.word	0x402a1cac
    33dc:	1a9fbe77 	.word	0x1a9fbe77
    33e0:	402a1d2f 	.word	0x402a1d2f
    33e4:	2d0e5604 	.word	0x2d0e5604
    33e8:	402a1db2 	.word	0x402a1db2
    33ec:	3f7ced91 	.word	0x3f7ced91
    33f0:	402a1e35 	.word	0x402a1e35
    33f4:	51eb851f 	.word	0x51eb851f
    33f8:	402a1eb8 	.word	0x402a1eb8
    33fc:	645a1cac 	.word	0x645a1cac
    3400:	402a1f3b 	.word	0x402a1f3b
    3404:	76c8b439 	.word	0x76c8b439
    3408:	402a1fbe 	.word	0x402a1fbe
    340c:	89374bc7 	.word	0x89374bc7
    3410:	402a2041 	.word	0x402a2041
    3414:	9ba5e354 	.word	0x9ba5e354
    3418:	402a20c4 	.word	0x402a20c4
    341c:	ae147ae1 	.word	0xae147ae1
    3420:	402a2147 	.word	0x402a2147
    3424:	c083126f 	.word	0xc083126f
    3428:	402a21ca 	.word	0x402a21ca
    342c:	d2f1a9fc 	.word	0xd2f1a9fc
    3430:	402a224d 	.word	0x402a224d
    3434:	e5604189 	.word	0xe5604189
    3438:	402a22d0 	.word	0x402a22d0
    343c:	f7ced917 	.word	0xf7ced917
    3440:	402a2353 	.word	0x402a2353
    3444:	0a3d70a4 	.word	0x0a3d70a4
    3448:	402a23d7 	.word	0x402a23d7
    344c:	1cac0831 	.word	0x1cac0831
    3450:	402a245a 	.word	0x402a245a
    3454:	2f1a9fbe 	.word	0x2f1a9fbe
    3458:	402a24dd 	.word	0x402a24dd
    345c:	4189374c 	.word	0x4189374c
    3460:	402a2560 	.word	0x402a2560
    3464:	53f7ced9 	.word	0x53f7ced9
    3468:	402a25e3 	.word	0x402a25e3
    346c:	66666666 	.word	0x66666666
    3470:	402a2666 	.word	0x402a2666
    3474:	78d4fdf4 	.word	0x78d4fdf4
    3478:	402a26e9 	.word	0x402a26e9
    347c:	8b439581 	.word	0x8b439581
    3480:	402a276c 	.word	0x402a276c
    3484:	9db22d0e 	.word	0x9db22d0e
    3488:	402a27ef 	.word	0x402a27ef
    348c:	b020c49c 	.word	0xb020c49c
    3490:	402a2872 	.word	0x402a2872
    3494:	c28f5c29 	.word	0xc28f5c29
    3498:	402a28f5 	.word	0x402a28f5
    349c:	d4fdf3b6 	.word	0xd4fdf3b6
    34a0:	402a2978 	.word	0x402a2978
    34a4:	e76c8b44 	.word	0xe76c8b44
    34a8:	402a29fb 	.word	0x402a29fb
    34ac:	f9db22d1 	.word	0xf9db22d1
    34b0:	402a2a7e 	.word	0x402a2a7e
    34b4:	0c49ba5e 	.word	0x0c49ba5e
    34b8:	402a2b02 	.word	0x402a2b02
    34bc:	1eb851ec 	.word	0x1eb851ec
    34c0:	402a2b85 	.word	0x402a2b85
    34c4:	3126e979 	.word	0x3126e979
    34c8:	402a2c08 	.word	0x402a2c08
    34cc:	43958106 	.word	0x43958106
    34d0:	402a2c8b 	.word	0x402a2c8b
    34d4:	56041893 	.word	0x56041893
    34d8:	402a2d0e 	.word	0x402a2d0e
    34dc:	6872b021 	.word	0x6872b021
    34e0:	402a2d91 	.word	0x402a2d91
    34e4:	7ae147ae 	.word	0x7ae147ae
    34e8:	402a2e14 	.word	0x402a2e14
    34ec:	8d4fdf3b 	.word	0x8d4fdf3b
    34f0:	402a2e97 	.word	0x402a2e97
    34f4:	9fbe76c9 	.word	0x9fbe76c9
    34f8:	402a2f1a 	.word	0x402a2f1a
    34fc:	b22d0e56 	.word	0xb22d0e56
    3500:	402a2f9d 	.word	0x402a2f9d
    3504:	c49ba5e3 	.word	0xc49ba5e3
    3508:	402a3020 	.word	0x402a3020
    350c:	d70a3d71 	.word	0xd70a3d71
    3510:	402a30a3 	.word	0x402a30a3
    3514:	e978d4fe 	.word	0xe978d4fe
    3518:	402a3126 	.word	0x402a3126
    351c:	fbe76c8b 	.word	0xfbe76c8b
    3520:	402a31a9 	.word	0x402a31a9
    3524:	0e560419 	.word	0x0e560419
    3528:	402a322d 	.word	0x402a322d
    352c:	20c49ba6 	.word	0x20c49ba6
    3530:	402a32b0 	.word	0x402a32b0
    3534:	33333333 	.word	0x33333333
    3538:	402a3333 	.word	0x402a3333
    353c:	45a1cac1 	.word	0x45a1cac1
    3540:	402a33b6 	.word	0x402a33b6
    3544:	5810624e 	.word	0x5810624e
    3548:	402a3439 	.word	0x402a3439
    354c:	6a7ef9db 	.word	0x6a7ef9db
    3550:	402a34bc 	.word	0x402a34bc
    3554:	7ced9168 	.word	0x7ced9168
    3558:	402a353f 	.word	0x402a353f
    355c:	8f5c28f6 	.word	0x8f5c28f6
    3560:	402a35c2 	.word	0x402a35c2
    3564:	a1cac083 	.word	0xa1cac083
    3568:	402a3645 	.word	0x402a3645
    356c:	b4395810 	.word	0xb4395810
    3570:	402a36c8 	.word	0x402a36c8
    3574:	c6a7ef9e 	.word	0xc6a7ef9e
    3578:	402a374b 	.word	0x402a374b
    357c:	d916872b 	.word	0xd916872b
    3580:	402a37ce 	.word	0x402a37ce
    3584:	eb851eb8 	.word	0xeb851eb8
    3588:	402a3851 	.word	0x402a3851
    358c:	fdf3b646 	.word	0xfdf3b646
    3590:	402a38d4 	.word	0x402a38d4
    3594:	10624dd3 	.word	0x10624dd3
    3598:	402a3958 	.word	0x402a3958
    359c:	22d0e560 	.word	0x22d0e560
    35a0:	402a39db 	.word	0x402a39db
    35a4:	353f7cee 	.word	0x353f7cee
    35a8:	402a3a5e 	.word	0x402a3a5e
    35ac:	47ae147b 	.word	0x47ae147b
    35b0:	402a3ae1 	.word	0x402a3ae1
    35b4:	5a1cac08 	.word	0x5a1cac08
    35b8:	402a3b64 	.word	0x402a3b64
    35bc:	6c8b4396 	.word	0x6c8b4396
    35c0:	402a3be7 	.word	0x402a3be7
    35c4:	7ef9db23 	.word	0x7ef9db23
    35c8:	402a3c6a 	.word	0x402a3c6a
    35cc:	916872b0 	.word	0x916872b0
    35d0:	402a3ced 	.word	0x402a3ced
    35d4:	a3d70a3d 	.word	0xa3d70a3d
    35d8:	402a3d70 	.word	0x402a3d70
    35dc:	b645a1cb 	.word	0xb645a1cb
    35e0:	402a3df3 	.word	0x402a3df3
    35e4:	c8b43958 	.word	0xc8b43958
    35e8:	402a3e76 	.word	0x402a3e76
    35ec:	db22d0e5 	.word	0xdb22d0e5
    35f0:	402a3ef9 	.word	0x402a3ef9
    35f4:	ed916873 	.word	0xed916873
    35f8:	402a3f7c 	.word	0x402a3f7c
    35fc:	00000000 	.word	0x00000000
    3600:	402a4000 	.word	0x402a4000
    3604:	126e978d 	.word	0x126e978d
    3608:	402a4083 	.word	0x402a4083
    360c:	24dd2f1b 	.word	0x24dd2f1b
    3610:	402a4106 	.word	0x402a4106
    3614:	374bc6a8 	.word	0x374bc6a8
    3618:	402a4189 	.word	0x402a4189
    361c:	126e978d 	.word	0x126e978d
    3620:	402c0083 	.word	0x402c0083
    3624:	24dd2f1b 	.word	0x24dd2f1b
    3628:	402c0106 	.word	0x402c0106
    362c:	374bc6a8 	.word	0x374bc6a8
    3630:	402c0189 	.word	0x402c0189
    3634:	49ba5e35 	.word	0x49ba5e35
    3638:	402c020c 	.word	0x402c020c
    363c:	5c28f5c3 	.word	0x5c28f5c3
    3640:	402c028f 	.word	0x402c028f
    3644:	6e978d50 	.word	0x6e978d50
    3648:	402c0312 	.word	0x402c0312
    364c:	810624dd 	.word	0x810624dd
    3650:	402c0395 	.word	0x402c0395
    3654:	9374bc6a 	.word	0x9374bc6a
    3658:	402c0418 	.word	0x402c0418
    365c:	a5e353f8 	.word	0xa5e353f8
    3660:	402c049b 	.word	0x402c049b
    3664:	b851eb85 	.word	0xb851eb85
    3668:	402c051e 	.word	0x402c051e
    366c:	cac08312 	.word	0xcac08312
    3670:	402c05a1 	.word	0x402c05a1
    3674:	dd2f1aa0 	.word	0xdd2f1aa0
    3678:	402c0624 	.word	0x402c0624
    367c:	ef9db22d 	.word	0xef9db22d
    3680:	402c06a7 	.word	0x402c06a7
    3684:	020c49ba 	.word	0x020c49ba
    3688:	402c072b 	.word	0x402c072b
    368c:	147ae148 	.word	0x147ae148
    3690:	402c07ae 	.word	0x402c07ae
    3694:	26e978d5 	.word	0x26e978d5
    3698:	402c0831 	.word	0x402c0831
    369c:	39581062 	.word	0x39581062
    36a0:	402c08b4 	.word	0x402c08b4
    36a4:	4bc6a7f0 	.word	0x4bc6a7f0
    36a8:	402c0937 	.word	0x402c0937
    36ac:	5e353f7d 	.word	0x5e353f7d
    36b0:	402c09ba 	.word	0x402c09ba
    36b4:	70a3d70a 	.word	0x70a3d70a
    36b8:	402c0a3d 	.word	0x402c0a3d
    36bc:	83126e98 	.word	0x83126e98
    36c0:	402c0ac0 	.word	0x402c0ac0
    36c4:	95810625 	.word	0x95810625
    36c8:	402c0b43 	.word	0x402c0b43
    36cc:	a7ef9db2 	.word	0xa7ef9db2
    36d0:	402c0bc6 	.word	0x402c0bc6
    36d4:	ba5e353f 	.word	0xba5e353f
    36d8:	402c0c49 	.word	0x402c0c49
    36dc:	cccccccd 	.word	0xcccccccd
    36e0:	402c0ccc 	.word	0x402c0ccc
    36e4:	df3b645a 	.word	0xdf3b645a
    36e8:	402c0d4f 	.word	0x402c0d4f
    36ec:	f1a9fbe7 	.word	0xf1a9fbe7
    36f0:	402c0dd2 	.word	0x402c0dd2
    36f4:	04189375 	.word	0x04189375
    36f8:	402c0e56 	.word	0x402c0e56
    36fc:	16872b02 	.word	0x16872b02
    3700:	402c0ed9 	.word	0x402c0ed9
    3704:	28f5c28f 	.word	0x28f5c28f
    3708:	402c0f5c 	.word	0x402c0f5c
    370c:	3b645a1d 	.word	0x3b645a1d
    3710:	402c0fdf 	.word	0x402c0fdf
    3714:	4dd2f1aa 	.word	0x4dd2f1aa
    3718:	402c1062 	.word	0x402c1062
    371c:	60418937 	.word	0x60418937
    3720:	402c10e5 	.word	0x402c10e5
    3724:	72b020c5 	.word	0x72b020c5
    3728:	402c1168 	.word	0x402c1168
    372c:	851eb852 	.word	0x851eb852
    3730:	402c11eb 	.word	0x402c11eb
    3734:	978d4fdf 	.word	0x978d4fdf
    3738:	402c126e 	.word	0x402c126e
    373c:	a9fbe76d 	.word	0xa9fbe76d
    3740:	402c12f1 	.word	0x402c12f1
    3744:	bc6a7efa 	.word	0xbc6a7efa
    3748:	402c1374 	.word	0x402c1374
    374c:	ced91687 	.word	0xced91687
    3750:	402c13f7 	.word	0x402c13f7
    3754:	e147ae14 	.word	0xe147ae14
    3758:	402c147a 	.word	0x402c147a
    375c:	f3b645a2 	.word	0xf3b645a2
    3760:	402c14fd 	.word	0x402c14fd
    3764:	0624dd2f 	.word	0x0624dd2f
    3768:	402c1581 	.word	0x402c1581
    376c:	189374bc 	.word	0x189374bc
    3770:	402c1604 	.word	0x402c1604
    3774:	2b020c4a 	.word	0x2b020c4a
    3778:	402c1687 	.word	0x402c1687
    377c:	3d70a3d7 	.word	0x3d70a3d7
    3780:	402c170a 	.word	0x402c170a
    3784:	4fdf3b64 	.word	0x4fdf3b64
    3788:	402c178d 	.word	0x402c178d
    378c:	624dd2f2 	.word	0x624dd2f2
    3790:	402c1810 	.word	0x402c1810
    3794:	74bc6a7f 	.word	0x74bc6a7f
    3798:	402c1893 	.word	0x402c1893
    379c:	872b020c 	.word	0x872b020c
    37a0:	402c1916 	.word	0x402c1916
    37a4:	9999999a 	.word	0x9999999a
    37a8:	402c1999 	.word	0x402c1999
    37ac:	ac083127 	.word	0xac083127
    37b0:	402c1a1c 	.word	0x402c1a1c
    37b4:	be76c8b4 	.word	0xbe76c8b4
    37b8:	402c1a9f 	.word	0x402c1a9f
    37bc:	d0e56042 	.word	0xd0e56042
    37c0:	402c1b22 	.word	0x402c1b22
    37c4:	e353f7cf 	.word	0xe353f7cf
    37c8:	402c1ba5 	.word	0x402c1ba5
    37cc:	f5c28f5c 	.word	0xf5c28f5c
    37d0:	402c1c28 	.word	0x402c1c28
    37d4:	083126e9 	.word	0x083126e9
    37d8:	402c1cac 	.word	0x402c1cac
    37dc:	1a9fbe77 	.word	0x1a9fbe77
    37e0:	402c1d2f 	.word	0x402c1d2f
    37e4:	2d0e5604 	.word	0x2d0e5604
    37e8:	402c1db2 	.word	0x402c1db2
    37ec:	3f7ced91 	.word	0x3f7ced91
    37f0:	402c1e35 	.word	0x402c1e35
    37f4:	51eb851f 	.word	0x51eb851f
    37f8:	402c1eb8 	.word	0x402c1eb8
    37fc:	645a1cac 	.word	0x645a1cac
    3800:	402c1f3b 	.word	0x402c1f3b
    3804:	76c8b439 	.word	0x76c8b439
    3808:	402c1fbe 	.word	0x402c1fbe
    380c:	89374bc7 	.word	0x89374bc7
    3810:	402c2041 	.word	0x402c2041
    3814:	9ba5e354 	.word	0x9ba5e354
    3818:	402c20c4 	.word	0x402c20c4
    381c:	ae147ae1 	.word	0xae147ae1
    3820:	402c2147 	.word	0x402c2147
    3824:	c083126f 	.word	0xc083126f
    3828:	402c21ca 	.word	0x402c21ca
    382c:	d2f1a9fc 	.word	0xd2f1a9fc
    3830:	402c224d 	.word	0x402c224d
    3834:	e5604189 	.word	0xe5604189
    3838:	402c22d0 	.word	0x402c22d0
    383c:	f7ced917 	.word	0xf7ced917
    3840:	402c2353 	.word	0x402c2353
    3844:	0a3d70a4 	.word	0x0a3d70a4
    3848:	402c23d7 	.word	0x402c23d7
    384c:	1cac0831 	.word	0x1cac0831
    3850:	402c245a 	.word	0x402c245a
    3854:	2f1a9fbe 	.word	0x2f1a9fbe
    3858:	402c24dd 	.word	0x402c24dd
    385c:	4189374c 	.word	0x4189374c
    3860:	402c2560 	.word	0x402c2560
    3864:	53f7ced9 	.word	0x53f7ced9
    3868:	402c25e3 	.word	0x402c25e3
    386c:	66666666 	.word	0x66666666
    3870:	402c2666 	.word	0x402c2666
    3874:	78d4fdf4 	.word	0x78d4fdf4
    3878:	402c26e9 	.word	0x402c26e9
    387c:	8b439581 	.word	0x8b439581
    3880:	402c276c 	.word	0x402c276c
    3884:	9db22d0e 	.word	0x9db22d0e
    3888:	402c27ef 	.word	0x402c27ef
    388c:	b020c49c 	.word	0xb020c49c
    3890:	402c2872 	.word	0x402c2872
    3894:	c28f5c29 	.word	0xc28f5c29
    3898:	402c28f5 	.word	0x402c28f5
    389c:	d4fdf3b6 	.word	0xd4fdf3b6
    38a0:	402c2978 	.word	0x402c2978
    38a4:	e76c8b44 	.word	0xe76c8b44
    38a8:	402c29fb 	.word	0x402c29fb
    38ac:	f9db22d1 	.word	0xf9db22d1
    38b0:	402c2a7e 	.word	0x402c2a7e
    38b4:	0c49ba5e 	.word	0x0c49ba5e
    38b8:	402c2b02 	.word	0x402c2b02
    38bc:	1eb851ec 	.word	0x1eb851ec
    38c0:	402c2b85 	.word	0x402c2b85
    38c4:	3126e979 	.word	0x3126e979
    38c8:	402c2c08 	.word	0x402c2c08
    38cc:	43958106 	.word	0x43958106
    38d0:	402c2c8b 	.word	0x402c2c8b
    38d4:	56041893 	.word	0x56041893
    38d8:	402c2d0e 	.word	0x402c2d0e
    38dc:	6872b021 	.word	0x6872b021
    38e0:	402c2d91 	.word	0x402c2d91
    38e4:	7ae147ae 	.word	0x7ae147ae
    38e8:	402c2e14 	.word	0x402c2e14
    38ec:	8d4fdf3b 	.word	0x8d4fdf3b
    38f0:	402c2e97 	.word	0x402c2e97
    38f4:	9fbe76c9 	.word	0x9fbe76c9
    38f8:	402c2f1a 	.word	0x402c2f1a
    38fc:	b22d0e56 	.word	0xb22d0e56
    3900:	402c2f9d 	.word	0x402c2f9d
    3904:	c49ba5e3 	.word	0xc49ba5e3
    3908:	402c3020 	.word	0x402c3020
    390c:	d70a3d71 	.word	0xd70a3d71
    3910:	402c30a3 	.word	0x402c30a3
    3914:	e978d4fe 	.word	0xe978d4fe
    3918:	402c3126 	.word	0x402c3126
    391c:	fbe76c8b 	.word	0xfbe76c8b
    3920:	402c31a9 	.word	0x402c31a9
    3924:	0e560419 	.word	0x0e560419
    3928:	402c322d 	.word	0x402c322d
    392c:	20c49ba6 	.word	0x20c49ba6
    3930:	402c32b0 	.word	0x402c32b0
    3934:	33333333 	.word	0x33333333
    3938:	402c3333 	.word	0x402c3333
    393c:	45a1cac1 	.word	0x45a1cac1
    3940:	402c33b6 	.word	0x402c33b6
    3944:	5810624e 	.word	0x5810624e
    3948:	402c3439 	.word	0x402c3439
    394c:	6a7ef9db 	.word	0x6a7ef9db
    3950:	402c34bc 	.word	0x402c34bc
    3954:	7ced9168 	.word	0x7ced9168
    3958:	402c353f 	.word	0x402c353f
    395c:	8f5c28f6 	.word	0x8f5c28f6
    3960:	402c35c2 	.word	0x402c35c2
    3964:	a1cac083 	.word	0xa1cac083
    3968:	402c3645 	.word	0x402c3645
    396c:	b4395810 	.word	0xb4395810
    3970:	402c36c8 	.word	0x402c36c8
    3974:	c6a7ef9e 	.word	0xc6a7ef9e
    3978:	402c374b 	.word	0x402c374b
    397c:	d916872b 	.word	0xd916872b
    3980:	402c37ce 	.word	0x402c37ce
    3984:	eb851eb8 	.word	0xeb851eb8
    3988:	402c3851 	.word	0x402c3851
    398c:	fdf3b646 	.word	0xfdf3b646
    3990:	402c38d4 	.word	0x402c38d4
    3994:	10624dd3 	.word	0x10624dd3
    3998:	402c3958 	.word	0x402c3958
    399c:	22d0e560 	.word	0x22d0e560
    39a0:	402c39db 	.word	0x402c39db
    39a4:	353f7cee 	.word	0x353f7cee
    39a8:	402c3a5e 	.word	0x402c3a5e
    39ac:	47ae147b 	.word	0x47ae147b
    39b0:	402c3ae1 	.word	0x402c3ae1
    39b4:	5a1cac08 	.word	0x5a1cac08
    39b8:	402c3b64 	.word	0x402c3b64
    39bc:	6c8b4396 	.word	0x6c8b4396
    39c0:	402c3be7 	.word	0x402c3be7
    39c4:	7ef9db23 	.word	0x7ef9db23
    39c8:	402c3c6a 	.word	0x402c3c6a
    39cc:	916872b0 	.word	0x916872b0
    39d0:	402c3ced 	.word	0x402c3ced
    39d4:	a3d70a3d 	.word	0xa3d70a3d
    39d8:	402c3d70 	.word	0x402c3d70
    39dc:	b645a1cb 	.word	0xb645a1cb
    39e0:	402c3df3 	.word	0x402c3df3
    39e4:	c8b43958 	.word	0xc8b43958
    39e8:	402c3e76 	.word	0x402c3e76
    39ec:	db22d0e5 	.word	0xdb22d0e5
    39f0:	402c3ef9 	.word	0x402c3ef9
    39f4:	ed916873 	.word	0xed916873
    39f8:	402c3f7c 	.word	0x402c3f7c
    39fc:	00000000 	.word	0x00000000
    3a00:	402c4000 	.word	0x402c4000
    3a04:	126e978d 	.word	0x126e978d
    3a08:	402c4083 	.word	0x402c4083
    3a0c:	24dd2f1b 	.word	0x24dd2f1b
    3a10:	402c4106 	.word	0x402c4106
    3a14:	374bc6a8 	.word	0x374bc6a8
    3a18:	402c4189 	.word	0x402c4189
    3a1c:	126e978d 	.word	0x126e978d
    3a20:	402e0083 	.word	0x402e0083
    3a24:	24dd2f1b 	.word	0x24dd2f1b
    3a28:	402e0106 	.word	0x402e0106
    3a2c:	374bc6a8 	.word	0x374bc6a8
    3a30:	402e0189 	.word	0x402e0189
    3a34:	49ba5e35 	.word	0x49ba5e35
    3a38:	402e020c 	.word	0x402e020c
    3a3c:	5c28f5c3 	.word	0x5c28f5c3
    3a40:	402e028f 	.word	0x402e028f
    3a44:	6e978d50 	.word	0x6e978d50
    3a48:	402e0312 	.word	0x402e0312
    3a4c:	810624dd 	.word	0x810624dd
    3a50:	402e0395 	.word	0x402e0395
    3a54:	9374bc6a 	.word	0x9374bc6a
    3a58:	402e0418 	.word	0x402e0418
    3a5c:	a5e353f8 	.word	0xa5e353f8
    3a60:	402e049b 	.word	0x402e049b
    3a64:	b851eb85 	.word	0xb851eb85
    3a68:	402e051e 	.word	0x402e051e
    3a6c:	cac08312 	.word	0xcac08312
    3a70:	402e05a1 	.word	0x402e05a1
    3a74:	dd2f1aa0 	.word	0xdd2f1aa0
    3a78:	402e0624 	.word	0x402e0624
    3a7c:	ef9db22d 	.word	0xef9db22d
    3a80:	402e06a7 	.word	0x402e06a7
    3a84:	020c49ba 	.word	0x020c49ba
    3a88:	402e072b 	.word	0x402e072b
    3a8c:	147ae148 	.word	0x147ae148
    3a90:	402e07ae 	.word	0x402e07ae
    3a94:	26e978d5 	.word	0x26e978d5
    3a98:	402e0831 	.word	0x402e0831
    3a9c:	39581062 	.word	0x39581062
    3aa0:	402e08b4 	.word	0x402e08b4
    3aa4:	4bc6a7f0 	.word	0x4bc6a7f0
    3aa8:	402e0937 	.word	0x402e0937
    3aac:	5e353f7d 	.word	0x5e353f7d
    3ab0:	402e09ba 	.word	0x402e09ba
    3ab4:	70a3d70a 	.word	0x70a3d70a
    3ab8:	402e0a3d 	.word	0x402e0a3d
    3abc:	83126e98 	.word	0x83126e98
    3ac0:	402e0ac0 	.word	0x402e0ac0
    3ac4:	95810625 	.word	0x95810625
    3ac8:	402e0b43 	.word	0x402e0b43
    3acc:	a7ef9db2 	.word	0xa7ef9db2
    3ad0:	402e0bc6 	.word	0x402e0bc6
    3ad4:	ba5e353f 	.word	0xba5e353f
    3ad8:	402e0c49 	.word	0x402e0c49
    3adc:	cccccccd 	.word	0xcccccccd
    3ae0:	402e0ccc 	.word	0x402e0ccc
    3ae4:	df3b645a 	.word	0xdf3b645a
    3ae8:	402e0d4f 	.word	0x402e0d4f
    3aec:	f1a9fbe7 	.word	0xf1a9fbe7
    3af0:	402e0dd2 	.word	0x402e0dd2
    3af4:	04189375 	.word	0x04189375
    3af8:	402e0e56 	.word	0x402e0e56
    3afc:	16872b02 	.word	0x16872b02
    3b00:	402e0ed9 	.word	0x402e0ed9
    3b04:	28f5c28f 	.word	0x28f5c28f
    3b08:	402e0f5c 	.word	0x402e0f5c
    3b0c:	3b645a1d 	.word	0x3b645a1d
    3b10:	402e0fdf 	.word	0x402e0fdf
    3b14:	4dd2f1aa 	.word	0x4dd2f1aa
    3b18:	402e1062 	.word	0x402e1062
    3b1c:	60418937 	.word	0x60418937
    3b20:	402e10e5 	.word	0x402e10e5
    3b24:	72b020c5 	.word	0x72b020c5
    3b28:	402e1168 	.word	0x402e1168
    3b2c:	851eb852 	.word	0x851eb852
    3b30:	402e11eb 	.word	0x402e11eb
    3b34:	978d4fdf 	.word	0x978d4fdf
    3b38:	402e126e 	.word	0x402e126e
    3b3c:	a9fbe76d 	.word	0xa9fbe76d
    3b40:	402e12f1 	.word	0x402e12f1
    3b44:	bc6a7efa 	.word	0xbc6a7efa
    3b48:	402e1374 	.word	0x402e1374
    3b4c:	ced91687 	.word	0xced91687
    3b50:	402e13f7 	.word	0x402e13f7
    3b54:	e147ae14 	.word	0xe147ae14
    3b58:	402e147a 	.word	0x402e147a
    3b5c:	f3b645a2 	.word	0xf3b645a2
    3b60:	402e14fd 	.word	0x402e14fd
    3b64:	0624dd2f 	.word	0x0624dd2f
    3b68:	402e1581 	.word	0x402e1581
    3b6c:	189374bc 	.word	0x189374bc
    3b70:	402e1604 	.word	0x402e1604
    3b74:	2b020c4a 	.word	0x2b020c4a
    3b78:	402e1687 	.word	0x402e1687
    3b7c:	3d70a3d7 	.word	0x3d70a3d7
    3b80:	402e170a 	.word	0x402e170a
    3b84:	4fdf3b64 	.word	0x4fdf3b64
    3b88:	402e178d 	.word	0x402e178d
    3b8c:	624dd2f2 	.word	0x624dd2f2
    3b90:	402e1810 	.word	0x402e1810
    3b94:	74bc6a7f 	.word	0x74bc6a7f
    3b98:	402e1893 	.word	0x402e1893
    3b9c:	872b020c 	.word	0x872b020c
    3ba0:	402e1916 	.word	0x402e1916
    3ba4:	9999999a 	.word	0x9999999a
    3ba8:	402e1999 	.word	0x402e1999
    3bac:	ac083127 	.word	0xac083127
    3bb0:	402e1a1c 	.word	0x402e1a1c
    3bb4:	be76c8b4 	.word	0xbe76c8b4
    3bb8:	402e1a9f 	.word	0x402e1a9f
    3bbc:	d0e56042 	.word	0xd0e56042
    3bc0:	402e1b22 	.word	0x402e1b22
    3bc4:	e353f7cf 	.word	0xe353f7cf
    3bc8:	402e1ba5 	.word	0x402e1ba5
    3bcc:	f5c28f5c 	.word	0xf5c28f5c
    3bd0:	402e1c28 	.word	0x402e1c28
    3bd4:	083126e9 	.word	0x083126e9
    3bd8:	402e1cac 	.word	0x402e1cac
    3bdc:	1a9fbe77 	.word	0x1a9fbe77
    3be0:	402e1d2f 	.word	0x402e1d2f
    3be4:	2d0e5604 	.word	0x2d0e5604
    3be8:	402e1db2 	.word	0x402e1db2
    3bec:	3f7ced91 	.word	0x3f7ced91
    3bf0:	402e1e35 	.word	0x402e1e35
    3bf4:	51eb851f 	.word	0x51eb851f
    3bf8:	402e1eb8 	.word	0x402e1eb8
    3bfc:	645a1cac 	.word	0x645a1cac
    3c00:	402e1f3b 	.word	0x402e1f3b
    3c04:	76c8b439 	.word	0x76c8b439
    3c08:	402e1fbe 	.word	0x402e1fbe
    3c0c:	89374bc7 	.word	0x89374bc7
    3c10:	402e2041 	.word	0x402e2041
    3c14:	9ba5e354 	.word	0x9ba5e354
    3c18:	402e20c4 	.word	0x402e20c4
    3c1c:	ae147ae1 	.word	0xae147ae1
    3c20:	402e2147 	.word	0x402e2147
    3c24:	c083126f 	.word	0xc083126f
    3c28:	402e21ca 	.word	0x402e21ca
    3c2c:	d2f1a9fc 	.word	0xd2f1a9fc
    3c30:	402e224d 	.word	0x402e224d
    3c34:	e5604189 	.word	0xe5604189
    3c38:	402e22d0 	.word	0x402e22d0
    3c3c:	f7ced917 	.word	0xf7ced917
    3c40:	402e2353 	.word	0x402e2353
    3c44:	0a3d70a4 	.word	0x0a3d70a4
    3c48:	402e23d7 	.word	0x402e23d7
    3c4c:	1cac0831 	.word	0x1cac0831
    3c50:	402e245a 	.word	0x402e245a
    3c54:	2f1a9fbe 	.word	0x2f1a9fbe
    3c58:	402e24dd 	.word	0x402e24dd
    3c5c:	4189374c 	.word	0x4189374c
    3c60:	402e2560 	.word	0x402e2560
    3c64:	53f7ced9 	.word	0x53f7ced9
    3c68:	402e25e3 	.word	0x402e25e3
    3c6c:	66666666 	.word	0x66666666
    3c70:	402e2666 	.word	0x402e2666
    3c74:	78d4fdf4 	.word	0x78d4fdf4
    3c78:	402e26e9 	.word	0x402e26e9
    3c7c:	8b439581 	.word	0x8b439581
    3c80:	402e276c 	.word	0x402e276c
    3c84:	9db22d0e 	.word	0x9db22d0e
    3c88:	402e27ef 	.word	0x402e27ef
    3c8c:	b020c49c 	.word	0xb020c49c
    3c90:	402e2872 	.word	0x402e2872
    3c94:	c28f5c29 	.word	0xc28f5c29
    3c98:	402e28f5 	.word	0x402e28f5
    3c9c:	d4fdf3b6 	.word	0xd4fdf3b6
    3ca0:	402e2978 	.word	0x402e2978
    3ca4:	e76c8b44 	.word	0xe76c8b44
    3ca8:	402e29fb 	.word	0x402e29fb
    3cac:	f9db22d1 	.word	0xf9db22d1
    3cb0:	402e2a7e 	.word	0x402e2a7e
    3cb4:	0c49ba5e 	.word	0x0c49ba5e
    3cb8:	402e2b02 	.word	0x402e2b02
    3cbc:	1eb851ec 	.word	0x1eb851ec
    3cc0:	402e2b85 	.word	0x402e2b85
    3cc4:	3126e979 	.word	0x3126e979
    3cc8:	402e2c08 	.word	0x402e2c08
    3ccc:	43958106 	.word	0x43958106
    3cd0:	402e2c8b 	.word	0x402e2c8b
    3cd4:	56041893 	.word	0x56041893
    3cd8:	402e2d0e 	.word	0x402e2d0e
    3cdc:	6872b021 	.word	0x6872b021
    3ce0:	402e2d91 	.word	0x402e2d91
    3ce4:	7ae147ae 	.word	0x7ae147ae
    3ce8:	402e2e14 	.word	0x402e2e14
    3cec:	8d4fdf3b 	.word	0x8d4fdf3b
    3cf0:	402e2e97 	.word	0x402e2e97
    3cf4:	9fbe76c9 	.word	0x9fbe76c9
    3cf8:	402e2f1a 	.word	0x402e2f1a
    3cfc:	b22d0e56 	.word	0xb22d0e56
    3d00:	402e2f9d 	.word	0x402e2f9d
    3d04:	c49ba5e3 	.word	0xc49ba5e3
    3d08:	402e3020 	.word	0x402e3020
    3d0c:	d70a3d71 	.word	0xd70a3d71
    3d10:	402e30a3 	.word	0x402e30a3
    3d14:	e978d4fe 	.word	0xe978d4fe
    3d18:	402e3126 	.word	0x402e3126
    3d1c:	fbe76c8b 	.word	0xfbe76c8b
    3d20:	402e31a9 	.word	0x402e31a9
    3d24:	0e560419 	.word	0x0e560419
    3d28:	402e322d 	.word	0x402e322d
    3d2c:	20c49ba6 	.word	0x20c49ba6
    3d30:	402e32b0 	.word	0x402e32b0
    3d34:	33333333 	.word	0x33333333
    3d38:	402e3333 	.word	0x402e3333
    3d3c:	45a1cac1 	.word	0x45a1cac1
    3d40:	402e33b6 	.word	0x402e33b6
    3d44:	5810624e 	.word	0x5810624e
    3d48:	402e3439 	.word	0x402e3439
    3d4c:	6a7ef9db 	.word	0x6a7ef9db
    3d50:	402e34bc 	.word	0x402e34bc
    3d54:	7ced9168 	.word	0x7ced9168
    3d58:	402e353f 	.word	0x402e353f
    3d5c:	8f5c28f6 	.word	0x8f5c28f6
    3d60:	402e35c2 	.word	0x402e35c2
    3d64:	a1cac083 	.word	0xa1cac083
    3d68:	402e3645 	.word	0x402e3645
    3d6c:	b4395810 	.word	0xb4395810
    3d70:	402e36c8 	.word	0x402e36c8
    3d74:	c6a7ef9e 	.word	0xc6a7ef9e
    3d78:	402e374b 	.word	0x402e374b
    3d7c:	d916872b 	.word	0xd916872b
    3d80:	402e37ce 	.word	0x402e37ce
    3d84:	eb851eb8 	.word	0xeb851eb8
    3d88:	402e3851 	.word	0x402e3851
    3d8c:	fdf3b646 	.word	0xfdf3b646
    3d90:	402e38d4 	.word	0x402e38d4
    3d94:	10624dd3 	.word	0x10624dd3
    3d98:	402e3958 	.word	0x402e3958
    3d9c:	22d0e560 	.word	0x22d0e560
    3da0:	402e39db 	.word	0x402e39db
    3da4:	353f7cee 	.word	0x353f7cee
    3da8:	402e3a5e 	.word	0x402e3a5e
    3dac:	47ae147b 	.word	0x47ae147b
    3db0:	402e3ae1 	.word	0x402e3ae1
    3db4:	5a1cac08 	.word	0x5a1cac08
    3db8:	402e3b64 	.word	0x402e3b64
    3dbc:	6c8b4396 	.word	0x6c8b4396
    3dc0:	402e3be7 	.word	0x402e3be7
    3dc4:	7ef9db23 	.word	0x7ef9db23
    3dc8:	402e3c6a 	.word	0x402e3c6a
    3dcc:	916872b0 	.word	0x916872b0
    3dd0:	402e3ced 	.word	0x402e3ced
    3dd4:	a3d70a3d 	.word	0xa3d70a3d
    3dd8:	402e3d70 	.word	0x402e3d70
    3ddc:	b645a1cb 	.word	0xb645a1cb
    3de0:	402e3df3 	.word	0x402e3df3
    3de4:	c8b43958 	.word	0xc8b43958
    3de8:	402e3e76 	.word	0x402e3e76
    3dec:	db22d0e5 	.word	0xdb22d0e5
    3df0:	402e3ef9 	.word	0x402e3ef9
    3df4:	ed916873 	.word	0xed916873
    3df8:	402e3f7c 	.word	0x402e3f7c
    3dfc:	00000000 	.word	0x00000000
    3e00:	402e4000 	.word	0x402e4000
    3e04:	126e978d 	.word	0x126e978d
    3e08:	402e4083 	.word	0x402e4083
    3e0c:	24dd2f1b 	.word	0x24dd2f1b
    3e10:	402e4106 	.word	0x402e4106
    3e14:	374bc6a8 	.word	0x374bc6a8
    3e18:	402e4189 	.word	0x402e4189
    3e1c:	89374bc7 	.word	0x89374bc7
    3e20:	40300041 	.word	0x40300041
    3e24:	126e978d 	.word	0x126e978d
    3e28:	40300083 	.word	0x40300083
    3e2c:	9ba5e354 	.word	0x9ba5e354
    3e30:	403000c4 	.word	0x403000c4
    3e34:	24dd2f1b 	.word	0x24dd2f1b
    3e38:	40300106 	.word	0x40300106
    3e3c:	ae147ae1 	.word	0xae147ae1
    3e40:	40300147 	.word	0x40300147
    3e44:	374bc6a8 	.word	0x374bc6a8
    3e48:	40300189 	.word	0x40300189
    3e4c:	c083126f 	.word	0xc083126f
    3e50:	403001ca 	.word	0x403001ca
    3e54:	49ba5e35 	.word	0x49ba5e35
    3e58:	4030020c 	.word	0x4030020c
    3e5c:	d2f1a9fc 	.word	0xd2f1a9fc
    3e60:	4030024d 	.word	0x4030024d
    3e64:	5c28f5c3 	.word	0x5c28f5c3
    3e68:	4030028f 	.word	0x4030028f
    3e6c:	e5604189 	.word	0xe5604189
    3e70:	403002d0 	.word	0x403002d0
    3e74:	6e978d50 	.word	0x6e978d50
    3e78:	40300312 	.word	0x40300312
    3e7c:	f7ced917 	.word	0xf7ced917
    3e80:	40300353 	.word	0x40300353
    3e84:	810624dd 	.word	0x810624dd
    3e88:	40300395 	.word	0x40300395
    3e8c:	0a3d70a4 	.word	0x0a3d70a4
    3e90:	403003d7 	.word	0x403003d7
    3e94:	9374bc6a 	.word	0x9374bc6a
    3e98:	40300418 	.word	0x40300418
    3e9c:	1cac0831 	.word	0x1cac0831
    3ea0:	4030045a 	.word	0x4030045a
    3ea4:	a5e353f8 	.word	0xa5e353f8
    3ea8:	4030049b 	.word	0x4030049b
    3eac:	2f1a9fbe 	.word	0x2f1a9fbe
    3eb0:	403004dd 	.word	0x403004dd
    3eb4:	b851eb85 	.word	0xb851eb85
    3eb8:	4030051e 	.word	0x4030051e
    3ebc:	4189374c 	.word	0x4189374c
    3ec0:	40300560 	.word	0x40300560
    3ec4:	cac08312 	.word	0xcac08312
    3ec8:	403005a1 	.word	0x403005a1
    3ecc:	53f7ced9 	.word	0x53f7ced9
    3ed0:	403005e3 	.word	0x403005e3
    3ed4:	dd2f1aa0 	.word	0xdd2f1aa0
    3ed8:	40300624 	.word	0x40300624
    3edc:	66666666 	.word	0x66666666
    3ee0:	40300666 	.word	0x40300666
    3ee4:	ef9db22d 	.word	0xef9db22d
    3ee8:	403006a7 	.word	0x403006a7
    3eec:	78d4fdf4 	.word	0x78d4fdf4
    3ef0:	403006e9 	.word	0x403006e9
    3ef4:	020c49ba 	.word	0x020c49ba
    3ef8:	4030072b 	.word	0x4030072b
    3efc:	8b439581 	.word	0x8b439581
    3f00:	4030076c 	.word	0x4030076c
    3f04:	147ae148 	.word	0x147ae148
    3f08:	403007ae 	.word	0x403007ae
    3f0c:	9db22d0e 	.word	0x9db22d0e
    3f10:	403007ef 	.word	0x403007ef
    3f14:	26e978d5 	.word	0x26e978d5
    3f18:	40300831 	.word	0x40300831
    3f1c:	b020c49c 	.word	0xb020c49c
    3f20:	40300872 	.word	0x40300872
    3f24:	39581062 	.word	0x39581062
    3f28:	403008b4 	.word	0x403008b4
    3f2c:	c28f5c29 	.word	0xc28f5c29
    3f30:	403008f5 	.word	0x403008f5
    3f34:	4bc6a7f0 	.word	0x4bc6a7f0
    3f38:	40300937 	.word	0x40300937
    3f3c:	d4fdf3b6 	.word	0xd4fdf3b6
    3f40:	40300978 	.word	0x40300978
    3f44:	5e353f7d 	.word	0x5e353f7d
    3f48:	403009ba 	.word	0x403009ba
    3f4c:	e76c8b44 	.word	0xe76c8b44
    3f50:	403009fb 	.word	0x403009fb
    3f54:	70a3d70a 	.word	0x70a3d70a
    3f58:	40300a3d 	.word	0x40300a3d
    3f5c:	f9db22d1 	.word	0xf9db22d1
    3f60:	40300a7e 	.word	0x40300a7e
    3f64:	83126e98 	.word	0x83126e98
    3f68:	40300ac0 	.word	0x40300ac0
    3f6c:	0c49ba5e 	.word	0x0c49ba5e
    3f70:	40300b02 	.word	0x40300b02
    3f74:	95810625 	.word	0x95810625
    3f78:	40300b43 	.word	0x40300b43
    3f7c:	1eb851ec 	.word	0x1eb851ec
    3f80:	40300b85 	.word	0x40300b85
    3f84:	a7ef9db2 	.word	0xa7ef9db2
    3f88:	40300bc6 	.word	0x40300bc6
    3f8c:	3126e979 	.word	0x3126e979
    3f90:	40300c08 	.word	0x40300c08
    3f94:	ba5e353f 	.word	0xba5e353f
    3f98:	40300c49 	.word	0x40300c49
    3f9c:	43958106 	.word	0x43958106
    3fa0:	40300c8b 	.word	0x40300c8b
    3fa4:	cccccccd 	.word	0xcccccccd
    3fa8:	40300ccc 	.word	0x40300ccc
    3fac:	56041893 	.word	0x56041893
    3fb0:	40300d0e 	.word	0x40300d0e
    3fb4:	df3b645a 	.word	0xdf3b645a
    3fb8:	40300d4f 	.word	0x40300d4f
    3fbc:	6872b021 	.word	0x6872b021
    3fc0:	40300d91 	.word	0x40300d91
    3fc4:	f1a9fbe7 	.word	0xf1a9fbe7
    3fc8:	40300dd2 	.word	0x40300dd2
    3fcc:	7ae147ae 	.word	0x7ae147ae
    3fd0:	40300e14 	.word	0x40300e14
    3fd4:	04189375 	.word	0x04189375
    3fd8:	40300e56 	.word	0x40300e56
    3fdc:	8d4fdf3b 	.word	0x8d4fdf3b
    3fe0:	40300e97 	.word	0x40300e97
    3fe4:	16872b02 	.word	0x16872b02
    3fe8:	40300ed9 	.word	0x40300ed9
    3fec:	9fbe76c9 	.word	0x9fbe76c9
    3ff0:	40300f1a 	.word	0x40300f1a
    3ff4:	28f5c28f 	.word	0x28f5c28f
    3ff8:	40300f5c 	.word	0x40300f5c
    3ffc:	b22d0e56 	.word	0xb22d0e56
    4000:	40300f9d 	.word	0x40300f9d
    4004:	3b645a1d 	.word	0x3b645a1d
    4008:	40300fdf 	.word	0x40300fdf
    400c:	c49ba5e3 	.word	0xc49ba5e3
    4010:	40301020 	.word	0x40301020
    4014:	4dd2f1aa 	.word	0x4dd2f1aa
    4018:	40301062 	.word	0x40301062
    401c:	d70a3d71 	.word	0xd70a3d71
    4020:	403010a3 	.word	0x403010a3
    4024:	60418937 	.word	0x60418937
    4028:	403010e5 	.word	0x403010e5
    402c:	e978d4fe 	.word	0xe978d4fe
    4030:	40301126 	.word	0x40301126
    4034:	72b020c5 	.word	0x72b020c5
    4038:	40301168 	.word	0x40301168
    403c:	fbe76c8b 	.word	0xfbe76c8b
    4040:	403011a9 	.word	0x403011a9
    4044:	851eb852 	.word	0x851eb852
    4048:	403011eb 	.word	0x403011eb
    404c:	0e560419 	.word	0x0e560419
    4050:	4030122d 	.word	0x4030122d
    4054:	978d4fdf 	.word	0x978d4fdf
    4058:	4030126e 	.word	0x4030126e
    405c:	20c49ba6 	.word	0x20c49ba6
    4060:	403012b0 	.word	0x403012b0
    4064:	a9fbe76d 	.word	0xa9fbe76d
    4068:	403012f1 	.word	0x403012f1
    406c:	33333333 	.word	0x33333333
    4070:	40301333 	.word	0x40301333
    4074:	bc6a7efa 	.word	0xbc6a7efa
    4078:	40301374 	.word	0x40301374
    407c:	45a1cac1 	.word	0x45a1cac1
    4080:	403013b6 	.word	0x403013b6
    4084:	ced91687 	.word	0xced91687
    4088:	403013f7 	.word	0x403013f7
    408c:	5810624e 	.word	0x5810624e
    4090:	40301439 	.word	0x40301439
    4094:	e147ae14 	.word	0xe147ae14
    4098:	4030147a 	.word	0x4030147a
    409c:	6a7ef9db 	.word	0x6a7ef9db
    40a0:	403014bc 	.word	0x403014bc
    40a4:	f3b645a2 	.word	0xf3b645a2
    40a8:	403014fd 	.word	0x403014fd
    40ac:	7ced9168 	.word	0x7ced9168
    40b0:	4030153f 	.word	0x4030153f
    40b4:	0624dd2f 	.word	0x0624dd2f
    40b8:	40301581 	.word	0x40301581
    40bc:	8f5c28f6 	.word	0x8f5c28f6
    40c0:	403015c2 	.word	0x403015c2
    40c4:	189374bc 	.word	0x189374bc
    40c8:	40301604 	.word	0x40301604
    40cc:	a1cac083 	.word	0xa1cac083
    40d0:	40301645 	.word	0x40301645
    40d4:	2b020c4a 	.word	0x2b020c4a
    40d8:	40301687 	.word	0x40301687
    40dc:	b4395810 	.word	0xb4395810
    40e0:	403016c8 	.word	0x403016c8
    40e4:	3d70a3d7 	.word	0x3d70a3d7
    40e8:	4030170a 	.word	0x4030170a
    40ec:	c6a7ef9e 	.word	0xc6a7ef9e
    40f0:	4030174b 	.word	0x4030174b
    40f4:	4fdf3b64 	.word	0x4fdf3b64
    40f8:	4030178d 	.word	0x4030178d
    40fc:	d916872b 	.word	0xd916872b
    4100:	403017ce 	.word	0x403017ce
    4104:	624dd2f2 	.word	0x624dd2f2
    4108:	40301810 	.word	0x40301810
    410c:	eb851eb8 	.word	0xeb851eb8
    4110:	40301851 	.word	0x40301851
    4114:	74bc6a7f 	.word	0x74bc6a7f
    4118:	40301893 	.word	0x40301893
    411c:	fdf3b646 	.word	0xfdf3b646
    4120:	403018d4 	.word	0x403018d4
    4124:	872b020c 	.word	0x872b020c
    4128:	40301916 	.word	0x40301916
    412c:	10624dd3 	.word	0x10624dd3
    4130:	40301958 	.word	0x40301958
    4134:	9999999a 	.word	0x9999999a
    4138:	40301999 	.word	0x40301999
    413c:	22d0e560 	.word	0x22d0e560
    4140:	403019db 	.word	0x403019db
    4144:	ac083127 	.word	0xac083127
    4148:	40301a1c 	.word	0x40301a1c
    414c:	353f7cee 	.word	0x353f7cee
    4150:	40301a5e 	.word	0x40301a5e
    4154:	be76c8b4 	.word	0xbe76c8b4
    4158:	40301a9f 	.word	0x40301a9f
    415c:	47ae147b 	.word	0x47ae147b
    4160:	40301ae1 	.word	0x40301ae1
    4164:	d0e56042 	.word	0xd0e56042
    4168:	40301b22 	.word	0x40301b22
    416c:	5a1cac08 	.word	0x5a1cac08
    4170:	40301b64 	.word	0x40301b64
    4174:	e353f7cf 	.word	0xe353f7cf
    4178:	40301ba5 	.word	0x40301ba5
    417c:	6c8b4396 	.word	0x6c8b4396
    4180:	40301be7 	.word	0x40301be7
    4184:	f5c28f5c 	.word	0xf5c28f5c
    4188:	40301c28 	.word	0x40301c28
    418c:	7ef9db23 	.word	0x7ef9db23
    4190:	40301c6a 	.word	0x40301c6a
    4194:	083126e9 	.word	0x083126e9
    4198:	40301cac 	.word	0x40301cac
    419c:	916872b0 	.word	0x916872b0
    41a0:	40301ced 	.word	0x40301ced
    41a4:	1a9fbe77 	.word	0x1a9fbe77
    41a8:	40301d2f 	.word	0x40301d2f
    41ac:	a3d70a3d 	.word	0xa3d70a3d
    41b0:	40301d70 	.word	0x40301d70
    41b4:	2d0e5604 	.word	0x2d0e5604
    41b8:	40301db2 	.word	0x40301db2
    41bc:	b645a1cb 	.word	0xb645a1cb
    41c0:	40301df3 	.word	0x40301df3
    41c4:	3f7ced91 	.word	0x3f7ced91
    41c8:	40301e35 	.word	0x40301e35
    41cc:	c8b43958 	.word	0xc8b43958
    41d0:	40301e76 	.word	0x40301e76
    41d4:	51eb851f 	.word	0x51eb851f
    41d8:	40301eb8 	.word	0x40301eb8
    41dc:	db22d0e5 	.word	0xdb22d0e5
    41e0:	40301ef9 	.word	0x40301ef9
    41e4:	645a1cac 	.word	0x645a1cac
    41e8:	40301f3b 	.word	0x40301f3b
    41ec:	ed916873 	.word	0xed916873
    41f0:	40301f7c 	.word	0x40301f7c
    41f4:	76c8b439 	.word	0x76c8b439
    41f8:	40301fbe 	.word	0x40301fbe
    41fc:	00000000 	.word	0x00000000
    4200:	40302000 	.word	0x40302000
    4204:	89374bc7 	.word	0x89374bc7
    4208:	40302041 	.word	0x40302041
    420c:	126e978d 	.word	0x126e978d
    4210:	40302083 	.word	0x40302083
    4214:	9ba5e354 	.word	0x9ba5e354
    4218:	403020c4 	.word	0x403020c4
    421c:	89374bc7 	.word	0x89374bc7
    4220:	40310041 	.word	0x40310041
    4224:	126e978d 	.word	0x126e978d
    4228:	40310083 	.word	0x40310083
    422c:	9ba5e354 	.word	0x9ba5e354
    4230:	403100c4 	.word	0x403100c4
    4234:	24dd2f1b 	.word	0x24dd2f1b
    4238:	40310106 	.word	0x40310106
    423c:	ae147ae1 	.word	0xae147ae1
    4240:	40310147 	.word	0x40310147
    4244:	374bc6a8 	.word	0x374bc6a8
    4248:	40310189 	.word	0x40310189
    424c:	c083126f 	.word	0xc083126f
    4250:	403101ca 	.word	0x403101ca
    4254:	49ba5e35 	.word	0x49ba5e35
    4258:	4031020c 	.word	0x4031020c
    425c:	d2f1a9fc 	.word	0xd2f1a9fc
    4260:	4031024d 	.word	0x4031024d
    4264:	5c28f5c3 	.word	0x5c28f5c3
    4268:	4031028f 	.word	0x4031028f
    426c:	e5604189 	.word	0xe5604189
    4270:	403102d0 	.word	0x403102d0
    4274:	6e978d50 	.word	0x6e978d50
    4278:	40310312 	.word	0x40310312
    427c:	f7ced917 	.word	0xf7ced917
    4280:	40310353 	.word	0x40310353
    4284:	810624dd 	.word	0x810624dd
    4288:	40310395 	.word	0x40310395
    428c:	0a3d70a4 	.word	0x0a3d70a4
    4290:	403103d7 	.word	0x403103d7
    4294:	9374bc6a 	.word	0x9374bc6a
    4298:	40310418 	.word	0x40310418
    429c:	1cac0831 	.word	0x1cac0831
    42a0:	4031045a 	.word	0x4031045a
    42a4:	a5e353f8 	.word	0xa5e353f8
    42a8:	4031049b 	.word	0x4031049b
    42ac:	2f1a9fbe 	.word	0x2f1a9fbe
    42b0:	403104dd 	.word	0x403104dd
    42b4:	b851eb85 	.word	0xb851eb85
    42b8:	4031051e 	.word	0x4031051e
    42bc:	4189374c 	.word	0x4189374c
    42c0:	40310560 	.word	0x40310560
    42c4:	cac08312 	.word	0xcac08312
    42c8:	403105a1 	.word	0x403105a1
    42cc:	53f7ced9 	.word	0x53f7ced9
    42d0:	403105e3 	.word	0x403105e3
    42d4:	dd2f1aa0 	.word	0xdd2f1aa0
    42d8:	40310624 	.word	0x40310624
    42dc:	66666666 	.word	0x66666666
    42e0:	40310666 	.word	0x40310666
    42e4:	ef9db22d 	.word	0xef9db22d
    42e8:	403106a7 	.word	0x403106a7
    42ec:	78d4fdf4 	.word	0x78d4fdf4
    42f0:	403106e9 	.word	0x403106e9
    42f4:	020c49ba 	.word	0x020c49ba
    42f8:	4031072b 	.word	0x4031072b
    42fc:	8b439581 	.word	0x8b439581
    4300:	4031076c 	.word	0x4031076c
    4304:	147ae148 	.word	0x147ae148
    4308:	403107ae 	.word	0x403107ae
    430c:	9db22d0e 	.word	0x9db22d0e
    4310:	403107ef 	.word	0x403107ef
    4314:	26e978d5 	.word	0x26e978d5
    4318:	40310831 	.word	0x40310831
    431c:	b020c49c 	.word	0xb020c49c
    4320:	40310872 	.word	0x40310872
    4324:	39581062 	.word	0x39581062
    4328:	403108b4 	.word	0x403108b4
    432c:	c28f5c29 	.word	0xc28f5c29
    4330:	403108f5 	.word	0x403108f5
    4334:	4bc6a7f0 	.word	0x4bc6a7f0
    4338:	40310937 	.word	0x40310937
    433c:	d4fdf3b6 	.word	0xd4fdf3b6
    4340:	40310978 	.word	0x40310978
    4344:	5e353f7d 	.word	0x5e353f7d
    4348:	403109ba 	.word	0x403109ba
    434c:	e76c8b44 	.word	0xe76c8b44
    4350:	403109fb 	.word	0x403109fb
    4354:	70a3d70a 	.word	0x70a3d70a
    4358:	40310a3d 	.word	0x40310a3d
    435c:	f9db22d1 	.word	0xf9db22d1
    4360:	40310a7e 	.word	0x40310a7e
    4364:	83126e98 	.word	0x83126e98
    4368:	40310ac0 	.word	0x40310ac0
    436c:	0c49ba5e 	.word	0x0c49ba5e
    4370:	40310b02 	.word	0x40310b02
    4374:	95810625 	.word	0x95810625
    4378:	40310b43 	.word	0x40310b43
    437c:	1eb851ec 	.word	0x1eb851ec
    4380:	40310b85 	.word	0x40310b85
    4384:	a7ef9db2 	.word	0xa7ef9db2
    4388:	40310bc6 	.word	0x40310bc6
    438c:	3126e979 	.word	0x3126e979
    4390:	40310c08 	.word	0x40310c08
    4394:	ba5e353f 	.word	0xba5e353f
    4398:	40310c49 	.word	0x40310c49
    439c:	43958106 	.word	0x43958106
    43a0:	40310c8b 	.word	0x40310c8b
    43a4:	cccccccd 	.word	0xcccccccd
    43a8:	40310ccc 	.word	0x40310ccc
    43ac:	56041893 	.word	0x56041893
    43b0:	40310d0e 	.word	0x40310d0e
    43b4:	df3b645a 	.word	0xdf3b645a
    43b8:	40310d4f 	.word	0x40310d4f
    43bc:	6872b021 	.word	0x6872b021
    43c0:	40310d91 	.word	0x40310d91
    43c4:	f1a9fbe7 	.word	0xf1a9fbe7
    43c8:	40310dd2 	.word	0x40310dd2
    43cc:	7ae147ae 	.word	0x7ae147ae
    43d0:	40310e14 	.word	0x40310e14
    43d4:	04189375 	.word	0x04189375
    43d8:	40310e56 	.word	0x40310e56
    43dc:	8d4fdf3b 	.word	0x8d4fdf3b
    43e0:	40310e97 	.word	0x40310e97
    43e4:	16872b02 	.word	0x16872b02
    43e8:	40310ed9 	.word	0x40310ed9
    43ec:	9fbe76c9 	.word	0x9fbe76c9
    43f0:	40310f1a 	.word	0x40310f1a
    43f4:	28f5c28f 	.word	0x28f5c28f
    43f8:	40310f5c 	.word	0x40310f5c
    43fc:	b22d0e56 	.word	0xb22d0e56
    4400:	40310f9d 	.word	0x40310f9d
    4404:	3b645a1d 	.word	0x3b645a1d
    4408:	40310fdf 	.word	0x40310fdf
    440c:	c49ba5e3 	.word	0xc49ba5e3
    4410:	40311020 	.word	0x40311020
    4414:	4dd2f1aa 	.word	0x4dd2f1aa
    4418:	40311062 	.word	0x40311062
    441c:	d70a3d71 	.word	0xd70a3d71
    4420:	403110a3 	.word	0x403110a3
    4424:	60418937 	.word	0x60418937
    4428:	403110e5 	.word	0x403110e5
    442c:	e978d4fe 	.word	0xe978d4fe
    4430:	40311126 	.word	0x40311126
    4434:	72b020c5 	.word	0x72b020c5
    4438:	40311168 	.word	0x40311168
    443c:	fbe76c8b 	.word	0xfbe76c8b
    4440:	403111a9 	.word	0x403111a9
    4444:	851eb852 	.word	0x851eb852
    4448:	403111eb 	.word	0x403111eb
    444c:	0e560419 	.word	0x0e560419
    4450:	4031122d 	.word	0x4031122d
    4454:	978d4fdf 	.word	0x978d4fdf
    4458:	4031126e 	.word	0x4031126e
    445c:	20c49ba6 	.word	0x20c49ba6
    4460:	403112b0 	.word	0x403112b0
    4464:	a9fbe76d 	.word	0xa9fbe76d
    4468:	403112f1 	.word	0x403112f1
    446c:	33333333 	.word	0x33333333
    4470:	40311333 	.word	0x40311333
    4474:	bc6a7efa 	.word	0xbc6a7efa
    4478:	40311374 	.word	0x40311374
    447c:	45a1cac1 	.word	0x45a1cac1
    4480:	403113b6 	.word	0x403113b6
    4484:	ced91687 	.word	0xced91687
    4488:	403113f7 	.word	0x403113f7
    448c:	5810624e 	.word	0x5810624e
    4490:	40311439 	.word	0x40311439
    4494:	e147ae14 	.word	0xe147ae14
    4498:	4031147a 	.word	0x4031147a
    449c:	6a7ef9db 	.word	0x6a7ef9db
    44a0:	403114bc 	.word	0x403114bc
    44a4:	f3b645a2 	.word	0xf3b645a2
    44a8:	403114fd 	.word	0x403114fd
    44ac:	7ced9168 	.word	0x7ced9168
    44b0:	4031153f 	.word	0x4031153f
    44b4:	0624dd2f 	.word	0x0624dd2f
    44b8:	40311581 	.word	0x40311581
    44bc:	8f5c28f6 	.word	0x8f5c28f6
    44c0:	403115c2 	.word	0x403115c2
    44c4:	189374bc 	.word	0x189374bc
    44c8:	40311604 	.word	0x40311604
    44cc:	a1cac083 	.word	0xa1cac083
    44d0:	40311645 	.word	0x40311645
    44d4:	2b020c4a 	.word	0x2b020c4a
    44d8:	40311687 	.word	0x40311687
    44dc:	b4395810 	.word	0xb4395810
    44e0:	403116c8 	.word	0x403116c8
    44e4:	3d70a3d7 	.word	0x3d70a3d7
    44e8:	4031170a 	.word	0x4031170a
    44ec:	c6a7ef9e 	.word	0xc6a7ef9e
    44f0:	4031174b 	.word	0x4031174b
    44f4:	4fdf3b64 	.word	0x4fdf3b64
    44f8:	4031178d 	.word	0x4031178d
    44fc:	d916872b 	.word	0xd916872b
    4500:	403117ce 	.word	0x403117ce
    4504:	624dd2f2 	.word	0x624dd2f2
    4508:	40311810 	.word	0x40311810
    450c:	eb851eb8 	.word	0xeb851eb8
    4510:	40311851 	.word	0x40311851
    4514:	74bc6a7f 	.word	0x74bc6a7f
    4518:	40311893 	.word	0x40311893
    451c:	fdf3b646 	.word	0xfdf3b646
    4520:	403118d4 	.word	0x403118d4
    4524:	872b020c 	.word	0x872b020c
    4528:	40311916 	.word	0x40311916
    452c:	10624dd3 	.word	0x10624dd3
    4530:	40311958 	.word	0x40311958
    4534:	9999999a 	.word	0x9999999a
    4538:	40311999 	.word	0x40311999
    453c:	22d0e560 	.word	0x22d0e560
    4540:	403119db 	.word	0x403119db
    4544:	ac083127 	.word	0xac083127
    4548:	40311a1c 	.word	0x40311a1c
    454c:	353f7cee 	.word	0x353f7cee
    4550:	40311a5e 	.word	0x40311a5e
    4554:	be76c8b4 	.word	0xbe76c8b4
    4558:	40311a9f 	.word	0x40311a9f
    455c:	47ae147b 	.word	0x47ae147b
    4560:	40311ae1 	.word	0x40311ae1
    4564:	d0e56042 	.word	0xd0e56042
    4568:	40311b22 	.word	0x40311b22
    456c:	5a1cac08 	.word	0x5a1cac08
    4570:	40311b64 	.word	0x40311b64
    4574:	e353f7cf 	.word	0xe353f7cf
    4578:	40311ba5 	.word	0x40311ba5
    457c:	6c8b4396 	.word	0x6c8b4396
    4580:	40311be7 	.word	0x40311be7
    4584:	f5c28f5c 	.word	0xf5c28f5c
    4588:	40311c28 	.word	0x40311c28
    458c:	7ef9db23 	.word	0x7ef9db23
    4590:	40311c6a 	.word	0x40311c6a
    4594:	083126e9 	.word	0x083126e9
    4598:	40311cac 	.word	0x40311cac
    459c:	916872b0 	.word	0x916872b0
    45a0:	40311ced 	.word	0x40311ced
    45a4:	1a9fbe77 	.word	0x1a9fbe77
    45a8:	40311d2f 	.word	0x40311d2f
    45ac:	a3d70a3d 	.word	0xa3d70a3d
    45b0:	40311d70 	.word	0x40311d70
    45b4:	2d0e5604 	.word	0x2d0e5604
    45b8:	40311db2 	.word	0x40311db2
    45bc:	b645a1cb 	.word	0xb645a1cb
    45c0:	40311df3 	.word	0x40311df3
    45c4:	3f7ced91 	.word	0x3f7ced91
    45c8:	40311e35 	.word	0x40311e35
    45cc:	c8b43958 	.word	0xc8b43958
    45d0:	40311e76 	.word	0x40311e76
    45d4:	51eb851f 	.word	0x51eb851f
    45d8:	40311eb8 	.word	0x40311eb8
    45dc:	db22d0e5 	.word	0xdb22d0e5
    45e0:	40311ef9 	.word	0x40311ef9
    45e4:	645a1cac 	.word	0x645a1cac
    45e8:	40311f3b 	.word	0x40311f3b
    45ec:	ed916873 	.word	0xed916873
    45f0:	40311f7c 	.word	0x40311f7c
    45f4:	76c8b439 	.word	0x76c8b439
    45f8:	40311fbe 	.word	0x40311fbe
    45fc:	00000000 	.word	0x00000000
    4600:	40312000 	.word	0x40312000
    4604:	89374bc7 	.word	0x89374bc7
    4608:	40312041 	.word	0x40312041
    460c:	126e978d 	.word	0x126e978d
    4610:	40312083 	.word	0x40312083
    4614:	9ba5e354 	.word	0x9ba5e354
    4618:	403120c4 	.word	0x403120c4
    461c:	89374bc7 	.word	0x89374bc7
    4620:	40320041 	.word	0x40320041
    4624:	126e978d 	.word	0x126e978d
    4628:	40320083 	.word	0x40320083
    462c:	9ba5e354 	.word	0x9ba5e354
    4630:	403200c4 	.word	0x403200c4
    4634:	24dd2f1b 	.word	0x24dd2f1b
    4638:	40320106 	.word	0x40320106
    463c:	ae147ae1 	.word	0xae147ae1
    4640:	40320147 	.word	0x40320147
    4644:	374bc6a8 	.word	0x374bc6a8
    4648:	40320189 	.word	0x40320189
    464c:	c083126f 	.word	0xc083126f
    4650:	403201ca 	.word	0x403201ca
    4654:	49ba5e35 	.word	0x49ba5e35
    4658:	4032020c 	.word	0x4032020c
    465c:	d2f1a9fc 	.word	0xd2f1a9fc
    4660:	4032024d 	.word	0x4032024d
    4664:	5c28f5c3 	.word	0x5c28f5c3
    4668:	4032028f 	.word	0x4032028f
    466c:	e5604189 	.word	0xe5604189
    4670:	403202d0 	.word	0x403202d0
    4674:	6e978d50 	.word	0x6e978d50
    4678:	40320312 	.word	0x40320312
    467c:	f7ced917 	.word	0xf7ced917
    4680:	40320353 	.word	0x40320353
    4684:	810624dd 	.word	0x810624dd
    4688:	40320395 	.word	0x40320395
    468c:	0a3d70a4 	.word	0x0a3d70a4
    4690:	403203d7 	.word	0x403203d7
    4694:	9374bc6a 	.word	0x9374bc6a
    4698:	40320418 	.word	0x40320418
    469c:	1cac0831 	.word	0x1cac0831
    46a0:	4032045a 	.word	0x4032045a
    46a4:	a5e353f8 	.word	0xa5e353f8
    46a8:	4032049b 	.word	0x4032049b
    46ac:	2f1a9fbe 	.word	0x2f1a9fbe
    46b0:	403204dd 	.word	0x403204dd
    46b4:	b851eb85 	.word	0xb851eb85
    46b8:	4032051e 	.word	0x4032051e
    46bc:	4189374c 	.word	0x4189374c
    46c0:	40320560 	.word	0x40320560
    46c4:	cac08312 	.word	0xcac08312
    46c8:	403205a1 	.word	0x403205a1
    46cc:	53f7ced9 	.word	0x53f7ced9
    46d0:	403205e3 	.word	0x403205e3
    46d4:	dd2f1aa0 	.word	0xdd2f1aa0
    46d8:	40320624 	.word	0x40320624
    46dc:	66666666 	.word	0x66666666
    46e0:	40320666 	.word	0x40320666
    46e4:	ef9db22d 	.word	0xef9db22d
    46e8:	403206a7 	.word	0x403206a7
    46ec:	78d4fdf4 	.word	0x78d4fdf4
    46f0:	403206e9 	.word	0x403206e9
    46f4:	020c49ba 	.word	0x020c49ba
    46f8:	4032072b 	.word	0x4032072b
    46fc:	8b439581 	.word	0x8b439581
    4700:	4032076c 	.word	0x4032076c
    4704:	147ae148 	.word	0x147ae148
    4708:	403207ae 	.word	0x403207ae
    470c:	9db22d0e 	.word	0x9db22d0e
    4710:	403207ef 	.word	0x403207ef
    4714:	26e978d5 	.word	0x26e978d5
    4718:	40320831 	.word	0x40320831
    471c:	b020c49c 	.word	0xb020c49c
    4720:	40320872 	.word	0x40320872
    4724:	39581062 	.word	0x39581062
    4728:	403208b4 	.word	0x403208b4
    472c:	c28f5c29 	.word	0xc28f5c29
    4730:	403208f5 	.word	0x403208f5
    4734:	4bc6a7f0 	.word	0x4bc6a7f0
    4738:	40320937 	.word	0x40320937
    473c:	d4fdf3b6 	.word	0xd4fdf3b6
    4740:	40320978 	.word	0x40320978
    4744:	5e353f7d 	.word	0x5e353f7d
    4748:	403209ba 	.word	0x403209ba
    474c:	e76c8b44 	.word	0xe76c8b44
    4750:	403209fb 	.word	0x403209fb
    4754:	70a3d70a 	.word	0x70a3d70a
    4758:	40320a3d 	.word	0x40320a3d
    475c:	f9db22d1 	.word	0xf9db22d1
    4760:	40320a7e 	.word	0x40320a7e
    4764:	83126e98 	.word	0x83126e98
    4768:	40320ac0 	.word	0x40320ac0
    476c:	0c49ba5e 	.word	0x0c49ba5e
    4770:	40320b02 	.word	0x40320b02
    4774:	95810625 	.word	0x95810625
    4778:	40320b43 	.word	0x40320b43
    477c:	1eb851ec 	.word	0x1eb851ec
    4780:	40320b85 	.word	0x40320b85
    4784:	a7ef9db2 	.word	0xa7ef9db2
    4788:	40320bc6 	.word	0x40320bc6
    478c:	3126e979 	.word	0x3126e979
    4790:	40320c08 	.word	0x40320c08
    4794:	ba5e353f 	.word	0xba5e353f
    4798:	40320c49 	.word	0x40320c49
    479c:	43958106 	.word	0x43958106
    47a0:	40320c8b 	.word	0x40320c8b
    47a4:	cccccccd 	.word	0xcccccccd
    47a8:	40320ccc 	.word	0x40320ccc
    47ac:	56041893 	.word	0x56041893
    47b0:	40320d0e 	.word	0x40320d0e
    47b4:	df3b645a 	.word	0xdf3b645a
    47b8:	40320d4f 	.word	0x40320d4f
    47bc:	6872b021 	.word	0x6872b021
    47c0:	40320d91 	.word	0x40320d91
    47c4:	f1a9fbe7 	.word	0xf1a9fbe7
    47c8:	40320dd2 	.word	0x40320dd2
    47cc:	7ae147ae 	.word	0x7ae147ae
    47d0:	40320e14 	.word	0x40320e14
    47d4:	04189375 	.word	0x04189375
    47d8:	40320e56 	.word	0x40320e56
    47dc:	8d4fdf3b 	.word	0x8d4fdf3b
    47e0:	40320e97 	.word	0x40320e97
    47e4:	16872b02 	.word	0x16872b02
    47e8:	40320ed9 	.word	0x40320ed9
    47ec:	9fbe76c9 	.word	0x9fbe76c9
    47f0:	40320f1a 	.word	0x40320f1a
    47f4:	28f5c28f 	.word	0x28f5c28f
    47f8:	40320f5c 	.word	0x40320f5c
    47fc:	b22d0e56 	.word	0xb22d0e56
    4800:	40320f9d 	.word	0x40320f9d
    4804:	3b645a1d 	.word	0x3b645a1d
    4808:	40320fdf 	.word	0x40320fdf
    480c:	c49ba5e3 	.word	0xc49ba5e3
    4810:	40321020 	.word	0x40321020
    4814:	4dd2f1aa 	.word	0x4dd2f1aa
    4818:	40321062 	.word	0x40321062
    481c:	d70a3d71 	.word	0xd70a3d71
    4820:	403210a3 	.word	0x403210a3
    4824:	60418937 	.word	0x60418937
    4828:	403210e5 	.word	0x403210e5
    482c:	e978d4fe 	.word	0xe978d4fe
    4830:	40321126 	.word	0x40321126
    4834:	72b020c5 	.word	0x72b020c5
    4838:	40321168 	.word	0x40321168
    483c:	fbe76c8b 	.word	0xfbe76c8b
    4840:	403211a9 	.word	0x403211a9
    4844:	851eb852 	.word	0x851eb852
    4848:	403211eb 	.word	0x403211eb
    484c:	0e560419 	.word	0x0e560419
    4850:	4032122d 	.word	0x4032122d
    4854:	978d4fdf 	.word	0x978d4fdf
    4858:	4032126e 	.word	0x4032126e
    485c:	20c49ba6 	.word	0x20c49ba6
    4860:	403212b0 	.word	0x403212b0
    4864:	a9fbe76d 	.word	0xa9fbe76d
    4868:	403212f1 	.word	0x403212f1
    486c:	33333333 	.word	0x33333333
    4870:	40321333 	.word	0x40321333
    4874:	bc6a7efa 	.word	0xbc6a7efa
    4878:	40321374 	.word	0x40321374
    487c:	45a1cac1 	.word	0x45a1cac1
    4880:	403213b6 	.word	0x403213b6
    4884:	ced91687 	.word	0xced91687
    4888:	403213f7 	.word	0x403213f7
    488c:	5810624e 	.word	0x5810624e
    4890:	40321439 	.word	0x40321439
    4894:	e147ae14 	.word	0xe147ae14
    4898:	4032147a 	.word	0x4032147a
    489c:	6a7ef9db 	.word	0x6a7ef9db
    48a0:	403214bc 	.word	0x403214bc
    48a4:	f3b645a2 	.word	0xf3b645a2
    48a8:	403214fd 	.word	0x403214fd
    48ac:	7ced9168 	.word	0x7ced9168
    48b0:	4032153f 	.word	0x4032153f
    48b4:	0624dd2f 	.word	0x0624dd2f
    48b8:	40321581 	.word	0x40321581
    48bc:	8f5c28f6 	.word	0x8f5c28f6
    48c0:	403215c2 	.word	0x403215c2
    48c4:	189374bc 	.word	0x189374bc
    48c8:	40321604 	.word	0x40321604
    48cc:	a1cac083 	.word	0xa1cac083
    48d0:	40321645 	.word	0x40321645
    48d4:	2b020c4a 	.word	0x2b020c4a
    48d8:	40321687 	.word	0x40321687
    48dc:	b4395810 	.word	0xb4395810
    48e0:	403216c8 	.word	0x403216c8
    48e4:	3d70a3d7 	.word	0x3d70a3d7
    48e8:	4032170a 	.word	0x4032170a
    48ec:	c6a7ef9e 	.word	0xc6a7ef9e
    48f0:	4032174b 	.word	0x4032174b
    48f4:	4fdf3b64 	.word	0x4fdf3b64
    48f8:	4032178d 	.word	0x4032178d
    48fc:	d916872b 	.word	0xd916872b
    4900:	403217ce 	.word	0x403217ce
    4904:	624dd2f2 	.word	0x624dd2f2
    4908:	40321810 	.word	0x40321810
    490c:	eb851eb8 	.word	0xeb851eb8
    4910:	40321851 	.word	0x40321851
    4914:	74bc6a7f 	.word	0x74bc6a7f
    4918:	40321893 	.word	0x40321893
    491c:	fdf3b646 	.word	0xfdf3b646
    4920:	403218d4 	.word	0x403218d4
    4924:	872b020c 	.word	0x872b020c
    4928:	40321916 	.word	0x40321916
    492c:	10624dd3 	.word	0x10624dd3
    4930:	40321958 	.word	0x40321958
    4934:	9999999a 	.word	0x9999999a
    4938:	40321999 	.word	0x40321999
    493c:	22d0e560 	.word	0x22d0e560
    4940:	403219db 	.word	0x403219db
    4944:	ac083127 	.word	0xac083127
    4948:	40321a1c 	.word	0x40321a1c
    494c:	353f7cee 	.word	0x353f7cee
    4950:	40321a5e 	.word	0x40321a5e
    4954:	be76c8b4 	.word	0xbe76c8b4
    4958:	40321a9f 	.word	0x40321a9f
    495c:	47ae147b 	.word	0x47ae147b
    4960:	40321ae1 	.word	0x40321ae1
    4964:	d0e56042 	.word	0xd0e56042
    4968:	40321b22 	.word	0x40321b22
    496c:	5a1cac08 	.word	0x5a1cac08
    4970:	40321b64 	.word	0x40321b64
    4974:	e353f7cf 	.word	0xe353f7cf
    4978:	40321ba5 	.word	0x40321ba5
    497c:	6c8b4396 	.word	0x6c8b4396
    4980:	40321be7 	.word	0x40321be7
    4984:	f5c28f5c 	.word	0xf5c28f5c
    4988:	40321c28 	.word	0x40321c28
    498c:	7ef9db23 	.word	0x7ef9db23
    4990:	40321c6a 	.word	0x40321c6a
    4994:	083126e9 	.word	0x083126e9
    4998:	40321cac 	.word	0x40321cac
    499c:	916872b0 	.word	0x916872b0
    49a0:	40321ced 	.word	0x40321ced
    49a4:	1a9fbe77 	.word	0x1a9fbe77
    49a8:	40321d2f 	.word	0x40321d2f
    49ac:	a3d70a3d 	.word	0xa3d70a3d
    49b0:	40321d70 	.word	0x40321d70
    49b4:	2d0e5604 	.word	0x2d0e5604
    49b8:	40321db2 	.word	0x40321db2
    49bc:	b645a1cb 	.word	0xb645a1cb
    49c0:	40321df3 	.word	0x40321df3
    49c4:	3f7ced91 	.word	0x3f7ced91
    49c8:	40321e35 	.word	0x40321e35
    49cc:	c8b43958 	.word	0xc8b43958
    49d0:	40321e76 	.word	0x40321e76
    49d4:	51eb851f 	.word	0x51eb851f
    49d8:	40321eb8 	.word	0x40321eb8
    49dc:	db22d0e5 	.word	0xdb22d0e5
    49e0:	40321ef9 	.word	0x40321ef9
    49e4:	645a1cac 	.word	0x645a1cac
    49e8:	40321f3b 	.word	0x40321f3b
    49ec:	ed916873 	.word	0xed916873
    49f0:	40321f7c 	.word	0x40321f7c
    49f4:	76c8b439 	.word	0x76c8b439
    49f8:	40321fbe 	.word	0x40321fbe
    49fc:	00000000 	.word	0x00000000
    4a00:	40322000 	.word	0x40322000
    4a04:	89374bc7 	.word	0x89374bc7
    4a08:	40322041 	.word	0x40322041
    4a0c:	126e978d 	.word	0x126e978d
    4a10:	40322083 	.word	0x40322083
    4a14:	9ba5e354 	.word	0x9ba5e354
    4a18:	403220c4 	.word	0x403220c4
    4a1c:	89374bc7 	.word	0x89374bc7
    4a20:	40330041 	.word	0x40330041
    4a24:	126e978d 	.word	0x126e978d
    4a28:	40330083 	.word	0x40330083
    4a2c:	9ba5e354 	.word	0x9ba5e354
    4a30:	403300c4 	.word	0x403300c4
    4a34:	24dd2f1b 	.word	0x24dd2f1b
    4a38:	40330106 	.word	0x40330106
    4a3c:	ae147ae1 	.word	0xae147ae1
    4a40:	40330147 	.word	0x40330147
    4a44:	374bc6a8 	.word	0x374bc6a8
    4a48:	40330189 	.word	0x40330189
    4a4c:	c083126f 	.word	0xc083126f
    4a50:	403301ca 	.word	0x403301ca
    4a54:	49ba5e35 	.word	0x49ba5e35
    4a58:	4033020c 	.word	0x4033020c
    4a5c:	d2f1a9fc 	.word	0xd2f1a9fc
    4a60:	4033024d 	.word	0x4033024d
    4a64:	5c28f5c3 	.word	0x5c28f5c3
    4a68:	4033028f 	.word	0x4033028f
    4a6c:	e5604189 	.word	0xe5604189
    4a70:	403302d0 	.word	0x403302d0
    4a74:	6e978d50 	.word	0x6e978d50
    4a78:	40330312 	.word	0x40330312
    4a7c:	f7ced917 	.word	0xf7ced917
    4a80:	40330353 	.word	0x40330353
    4a84:	810624dd 	.word	0x810624dd
    4a88:	40330395 	.word	0x40330395
    4a8c:	0a3d70a4 	.word	0x0a3d70a4
    4a90:	403303d7 	.word	0x403303d7
    4a94:	9374bc6a 	.word	0x9374bc6a
    4a98:	40330418 	.word	0x40330418
    4a9c:	1cac0831 	.word	0x1cac0831
    4aa0:	4033045a 	.word	0x4033045a
    4aa4:	a5e353f8 	.word	0xa5e353f8
    4aa8:	4033049b 	.word	0x4033049b
    4aac:	2f1a9fbe 	.word	0x2f1a9fbe
    4ab0:	403304dd 	.word	0x403304dd
    4ab4:	b851eb85 	.word	0xb851eb85
    4ab8:	4033051e 	.word	0x4033051e
    4abc:	4189374c 	.word	0x4189374c
    4ac0:	40330560 	.word	0x40330560
    4ac4:	cac08312 	.word	0xcac08312
    4ac8:	403305a1 	.word	0x403305a1
    4acc:	53f7ced9 	.word	0x53f7ced9
    4ad0:	403305e3 	.word	0x403305e3
    4ad4:	dd2f1aa0 	.word	0xdd2f1aa0
    4ad8:	40330624 	.word	0x40330624
    4adc:	66666666 	.word	0x66666666
    4ae0:	40330666 	.word	0x40330666
    4ae4:	ef9db22d 	.word	0xef9db22d
    4ae8:	403306a7 	.word	0x403306a7
    4aec:	78d4fdf4 	.word	0x78d4fdf4
    4af0:	403306e9 	.word	0x403306e9
    4af4:	020c49ba 	.word	0x020c49ba
    4af8:	4033072b 	.word	0x4033072b
    4afc:	8b439581 	.word	0x8b439581
    4b00:	4033076c 	.word	0x4033076c
    4b04:	147ae148 	.word	0x147ae148
    4b08:	403307ae 	.word	0x403307ae
    4b0c:	9db22d0e 	.word	0x9db22d0e
    4b10:	403307ef 	.word	0x403307ef
    4b14:	26e978d5 	.word	0x26e978d5
    4b18:	40330831 	.word	0x40330831
    4b1c:	b020c49c 	.word	0xb020c49c
    4b20:	40330872 	.word	0x40330872
    4b24:	39581062 	.word	0x39581062
    4b28:	403308b4 	.word	0x403308b4
    4b2c:	c28f5c29 	.word	0xc28f5c29
    4b30:	403308f5 	.word	0x403308f5
    4b34:	4bc6a7f0 	.word	0x4bc6a7f0
    4b38:	40330937 	.word	0x40330937
    4b3c:	d4fdf3b6 	.word	0xd4fdf3b6
    4b40:	40330978 	.word	0x40330978
    4b44:	5e353f7d 	.word	0x5e353f7d
    4b48:	403309ba 	.word	0x403309ba
    4b4c:	e76c8b44 	.word	0xe76c8b44
    4b50:	403309fb 	.word	0x403309fb
    4b54:	70a3d70a 	.word	0x70a3d70a
    4b58:	40330a3d 	.word	0x40330a3d
    4b5c:	f9db22d1 	.word	0xf9db22d1
    4b60:	40330a7e 	.word	0x40330a7e
    4b64:	83126e98 	.word	0x83126e98
    4b68:	40330ac0 	.word	0x40330ac0
    4b6c:	0c49ba5e 	.word	0x0c49ba5e
    4b70:	40330b02 	.word	0x40330b02
    4b74:	95810625 	.word	0x95810625
    4b78:	40330b43 	.word	0x40330b43
    4b7c:	1eb851ec 	.word	0x1eb851ec
    4b80:	40330b85 	.word	0x40330b85
    4b84:	a7ef9db2 	.word	0xa7ef9db2
    4b88:	40330bc6 	.word	0x40330bc6
    4b8c:	3126e979 	.word	0x3126e979
    4b90:	40330c08 	.word	0x40330c08
    4b94:	ba5e353f 	.word	0xba5e353f
    4b98:	40330c49 	.word	0x40330c49
    4b9c:	43958106 	.word	0x43958106
    4ba0:	40330c8b 	.word	0x40330c8b
    4ba4:	cccccccd 	.word	0xcccccccd
    4ba8:	40330ccc 	.word	0x40330ccc
    4bac:	56041893 	.word	0x56041893
    4bb0:	40330d0e 	.word	0x40330d0e
    4bb4:	df3b645a 	.word	0xdf3b645a
    4bb8:	40330d4f 	.word	0x40330d4f
    4bbc:	6872b021 	.word	0x6872b021
    4bc0:	40330d91 	.word	0x40330d91
    4bc4:	f1a9fbe7 	.word	0xf1a9fbe7
    4bc8:	40330dd2 	.word	0x40330dd2
    4bcc:	7ae147ae 	.word	0x7ae147ae
    4bd0:	40330e14 	.word	0x40330e14
    4bd4:	04189375 	.word	0x04189375
    4bd8:	40330e56 	.word	0x40330e56
    4bdc:	8d4fdf3b 	.word	0x8d4fdf3b
    4be0:	40330e97 	.word	0x40330e97
    4be4:	16872b02 	.word	0x16872b02
    4be8:	40330ed9 	.word	0x40330ed9
    4bec:	9fbe76c9 	.word	0x9fbe76c9
    4bf0:	40330f1a 	.word	0x40330f1a
    4bf4:	28f5c28f 	.word	0x28f5c28f
    4bf8:	40330f5c 	.word	0x40330f5c
    4bfc:	b22d0e56 	.word	0xb22d0e56
    4c00:	40330f9d 	.word	0x40330f9d
    4c04:	3b645a1d 	.word	0x3b645a1d
    4c08:	40330fdf 	.word	0x40330fdf
    4c0c:	c49ba5e3 	.word	0xc49ba5e3
    4c10:	40331020 	.word	0x40331020
    4c14:	4dd2f1aa 	.word	0x4dd2f1aa
    4c18:	40331062 	.word	0x40331062
    4c1c:	d70a3d71 	.word	0xd70a3d71
    4c20:	403310a3 	.word	0x403310a3
    4c24:	60418937 	.word	0x60418937
    4c28:	403310e5 	.word	0x403310e5
    4c2c:	e978d4fe 	.word	0xe978d4fe
    4c30:	40331126 	.word	0x40331126
    4c34:	72b020c5 	.word	0x72b020c5
    4c38:	40331168 	.word	0x40331168
    4c3c:	fbe76c8b 	.word	0xfbe76c8b
    4c40:	403311a9 	.word	0x403311a9
    4c44:	851eb852 	.word	0x851eb852
    4c48:	403311eb 	.word	0x403311eb
    4c4c:	0e560419 	.word	0x0e560419
    4c50:	4033122d 	.word	0x4033122d
    4c54:	978d4fdf 	.word	0x978d4fdf
    4c58:	4033126e 	.word	0x4033126e
    4c5c:	20c49ba6 	.word	0x20c49ba6
    4c60:	403312b0 	.word	0x403312b0
    4c64:	a9fbe76d 	.word	0xa9fbe76d
    4c68:	403312f1 	.word	0x403312f1
    4c6c:	33333333 	.word	0x33333333
    4c70:	40331333 	.word	0x40331333
    4c74:	bc6a7efa 	.word	0xbc6a7efa
    4c78:	40331374 	.word	0x40331374
    4c7c:	45a1cac1 	.word	0x45a1cac1
    4c80:	403313b6 	.word	0x403313b6
    4c84:	ced91687 	.word	0xced91687
    4c88:	403313f7 	.word	0x403313f7
    4c8c:	5810624e 	.word	0x5810624e
    4c90:	40331439 	.word	0x40331439
    4c94:	e147ae14 	.word	0xe147ae14
    4c98:	4033147a 	.word	0x4033147a
    4c9c:	6a7ef9db 	.word	0x6a7ef9db
    4ca0:	403314bc 	.word	0x403314bc
    4ca4:	f3b645a2 	.word	0xf3b645a2
    4ca8:	403314fd 	.word	0x403314fd
    4cac:	7ced9168 	.word	0x7ced9168
    4cb0:	4033153f 	.word	0x4033153f
    4cb4:	0624dd2f 	.word	0x0624dd2f
    4cb8:	40331581 	.word	0x40331581
    4cbc:	8f5c28f6 	.word	0x8f5c28f6
    4cc0:	403315c2 	.word	0x403315c2
    4cc4:	189374bc 	.word	0x189374bc
    4cc8:	40331604 	.word	0x40331604
    4ccc:	a1cac083 	.word	0xa1cac083
    4cd0:	40331645 	.word	0x40331645
    4cd4:	2b020c4a 	.word	0x2b020c4a
    4cd8:	40331687 	.word	0x40331687
    4cdc:	b4395810 	.word	0xb4395810
    4ce0:	403316c8 	.word	0x403316c8
    4ce4:	3d70a3d7 	.word	0x3d70a3d7
    4ce8:	4033170a 	.word	0x4033170a
    4cec:	c6a7ef9e 	.word	0xc6a7ef9e
    4cf0:	4033174b 	.word	0x4033174b
    4cf4:	4fdf3b64 	.word	0x4fdf3b64
    4cf8:	4033178d 	.word	0x4033178d
    4cfc:	d916872b 	.word	0xd916872b
    4d00:	403317ce 	.word	0x403317ce
    4d04:	624dd2f2 	.word	0x624dd2f2
    4d08:	40331810 	.word	0x40331810
    4d0c:	eb851eb8 	.word	0xeb851eb8
    4d10:	40331851 	.word	0x40331851
    4d14:	74bc6a7f 	.word	0x74bc6a7f
    4d18:	40331893 	.word	0x40331893
    4d1c:	fdf3b646 	.word	0xfdf3b646
    4d20:	403318d4 	.word	0x403318d4
    4d24:	872b020c 	.word	0x872b020c
    4d28:	40331916 	.word	0x40331916
    4d2c:	10624dd3 	.word	0x10624dd3
    4d30:	40331958 	.word	0x40331958
    4d34:	9999999a 	.word	0x9999999a
    4d38:	40331999 	.word	0x40331999
    4d3c:	22d0e560 	.word	0x22d0e560
    4d40:	403319db 	.word	0x403319db
    4d44:	ac083127 	.word	0xac083127
    4d48:	40331a1c 	.word	0x40331a1c
    4d4c:	353f7cee 	.word	0x353f7cee
    4d50:	40331a5e 	.word	0x40331a5e
    4d54:	be76c8b4 	.word	0xbe76c8b4
    4d58:	40331a9f 	.word	0x40331a9f
    4d5c:	47ae147b 	.word	0x47ae147b
    4d60:	40331ae1 	.word	0x40331ae1
    4d64:	d0e56042 	.word	0xd0e56042
    4d68:	40331b22 	.word	0x40331b22
    4d6c:	5a1cac08 	.word	0x5a1cac08
    4d70:	40331b64 	.word	0x40331b64
    4d74:	e353f7cf 	.word	0xe353f7cf
    4d78:	40331ba5 	.word	0x40331ba5
    4d7c:	6c8b4396 	.word	0x6c8b4396
    4d80:	40331be7 	.word	0x40331be7
    4d84:	f5c28f5c 	.word	0xf5c28f5c
    4d88:	40331c28 	.word	0x40331c28
    4d8c:	7ef9db23 	.word	0x7ef9db23
    4d90:	40331c6a 	.word	0x40331c6a
    4d94:	083126e9 	.word	0x083126e9
    4d98:	40331cac 	.word	0x40331cac
    4d9c:	916872b0 	.word	0x916872b0
    4da0:	40331ced 	.word	0x40331ced
    4da4:	1a9fbe77 	.word	0x1a9fbe77
    4da8:	40331d2f 	.word	0x40331d2f
    4dac:	a3d70a3d 	.word	0xa3d70a3d
    4db0:	40331d70 	.word	0x40331d70
    4db4:	2d0e5604 	.word	0x2d0e5604
    4db8:	40331db2 	.word	0x40331db2
    4dbc:	b645a1cb 	.word	0xb645a1cb
    4dc0:	40331df3 	.word	0x40331df3
    4dc4:	3f7ced91 	.word	0x3f7ced91
    4dc8:	40331e35 	.word	0x40331e35
    4dcc:	c8b43958 	.word	0xc8b43958
    4dd0:	40331e76 	.word	0x40331e76
    4dd4:	51eb851f 	.word	0x51eb851f
    4dd8:	40331eb8 	.word	0x40331eb8
    4ddc:	db22d0e5 	.word	0xdb22d0e5
    4de0:	40331ef9 	.word	0x40331ef9
    4de4:	645a1cac 	.word	0x645a1cac
    4de8:	40331f3b 	.word	0x40331f3b
    4dec:	ed916873 	.word	0xed916873
    4df0:	40331f7c 	.word	0x40331f7c
    4df4:	76c8b439 	.word	0x76c8b439
    4df8:	40331fbe 	.word	0x40331fbe
    4dfc:	00000000 	.word	0x00000000
    4e00:	40332000 	.word	0x40332000
    4e04:	89374bc7 	.word	0x89374bc7
    4e08:	40332041 	.word	0x40332041
    4e0c:	126e978d 	.word	0x126e978d
    4e10:	40332083 	.word	0x40332083
    4e14:	9ba5e354 	.word	0x9ba5e354
    4e18:	403320c4 	.word	0x403320c4
    4e1c:	89374bc7 	.word	0x89374bc7
    4e20:	40340041 	.word	0x40340041
    4e24:	126e978d 	.word	0x126e978d
    4e28:	40340083 	.word	0x40340083
    4e2c:	9ba5e354 	.word	0x9ba5e354
    4e30:	403400c4 	.word	0x403400c4
    4e34:	24dd2f1b 	.word	0x24dd2f1b
    4e38:	40340106 	.word	0x40340106
    4e3c:	ae147ae1 	.word	0xae147ae1
    4e40:	40340147 	.word	0x40340147
    4e44:	374bc6a8 	.word	0x374bc6a8
    4e48:	40340189 	.word	0x40340189
    4e4c:	c083126f 	.word	0xc083126f
    4e50:	403401ca 	.word	0x403401ca
    4e54:	49ba5e35 	.word	0x49ba5e35
    4e58:	4034020c 	.word	0x4034020c
    4e5c:	d2f1a9fc 	.word	0xd2f1a9fc
    4e60:	4034024d 	.word	0x4034024d
    4e64:	5c28f5c3 	.word	0x5c28f5c3
    4e68:	4034028f 	.word	0x4034028f
    4e6c:	e5604189 	.word	0xe5604189
    4e70:	403402d0 	.word	0x403402d0
    4e74:	6e978d50 	.word	0x6e978d50
    4e78:	40340312 	.word	0x40340312
    4e7c:	f7ced917 	.word	0xf7ced917
    4e80:	40340353 	.word	0x40340353
    4e84:	810624dd 	.word	0x810624dd
    4e88:	40340395 	.word	0x40340395
    4e8c:	0a3d70a4 	.word	0x0a3d70a4
    4e90:	403403d7 	.word	0x403403d7
    4e94:	9374bc6a 	.word	0x9374bc6a
    4e98:	40340418 	.word	0x40340418
    4e9c:	1cac0831 	.word	0x1cac0831
    4ea0:	4034045a 	.word	0x4034045a
    4ea4:	a5e353f8 	.word	0xa5e353f8
    4ea8:	4034049b 	.word	0x4034049b
    4eac:	2f1a9fbe 	.word	0x2f1a9fbe
    4eb0:	403404dd 	.word	0x403404dd
    4eb4:	b851eb85 	.word	0xb851eb85
    4eb8:	4034051e 	.word	0x4034051e
    4ebc:	4189374c 	.word	0x4189374c
    4ec0:	40340560 	.word	0x40340560
    4ec4:	cac08312 	.word	0xcac08312
    4ec8:	403405a1 	.word	0x403405a1
    4ecc:	53f7ced9 	.word	0x53f7ced9
    4ed0:	403405e3 	.word	0x403405e3
    4ed4:	dd2f1aa0 	.word	0xdd2f1aa0
    4ed8:	40340624 	.word	0x40340624
    4edc:	66666666 	.word	0x66666666
    4ee0:	40340666 	.word	0x40340666
    4ee4:	ef9db22d 	.word	0xef9db22d
    4ee8:	403406a7 	.word	0x403406a7
    4eec:	78d4fdf4 	.word	0x78d4fdf4
    4ef0:	403406e9 	.word	0x403406e9
    4ef4:	020c49ba 	.word	0x020c49ba
    4ef8:	4034072b 	.word	0x4034072b
    4efc:	8b439581 	.word	0x8b439581
    4f00:	4034076c 	.word	0x4034076c
    4f04:	147ae148 	.word	0x147ae148
    4f08:	403407ae 	.word	0x403407ae
    4f0c:	9db22d0e 	.word	0x9db22d0e
    4f10:	403407ef 	.word	0x403407ef
    4f14:	26e978d5 	.word	0x26e978d5
    4f18:	40340831 	.word	0x40340831
    4f1c:	b020c49c 	.word	0xb020c49c
    4f20:	40340872 	.word	0x40340872
    4f24:	39581062 	.word	0x39581062
    4f28:	403408b4 	.word	0x403408b4
    4f2c:	c28f5c29 	.word	0xc28f5c29
    4f30:	403408f5 	.word	0x403408f5
    4f34:	4bc6a7f0 	.word	0x4bc6a7f0
    4f38:	40340937 	.word	0x40340937
    4f3c:	d4fdf3b6 	.word	0xd4fdf3b6
    4f40:	40340978 	.word	0x40340978
    4f44:	5e353f7d 	.word	0x5e353f7d
    4f48:	403409ba 	.word	0x403409ba
    4f4c:	e76c8b44 	.word	0xe76c8b44
    4f50:	403409fb 	.word	0x403409fb
    4f54:	70a3d70a 	.word	0x70a3d70a
    4f58:	40340a3d 	.word	0x40340a3d
    4f5c:	f9db22d1 	.word	0xf9db22d1
    4f60:	40340a7e 	.word	0x40340a7e
    4f64:	83126e98 	.word	0x83126e98
    4f68:	40340ac0 	.word	0x40340ac0
    4f6c:	0c49ba5e 	.word	0x0c49ba5e
    4f70:	40340b02 	.word	0x40340b02
    4f74:	95810625 	.word	0x95810625
    4f78:	40340b43 	.word	0x40340b43
    4f7c:	1eb851ec 	.word	0x1eb851ec
    4f80:	40340b85 	.word	0x40340b85
    4f84:	a7ef9db2 	.word	0xa7ef9db2
    4f88:	40340bc6 	.word	0x40340bc6
    4f8c:	3126e979 	.word	0x3126e979
    4f90:	40340c08 	.word	0x40340c08
    4f94:	ba5e353f 	.word	0xba5e353f
    4f98:	40340c49 	.word	0x40340c49
    4f9c:	43958106 	.word	0x43958106
    4fa0:	40340c8b 	.word	0x40340c8b
    4fa4:	cccccccd 	.word	0xcccccccd
    4fa8:	40340ccc 	.word	0x40340ccc
    4fac:	56041893 	.word	0x56041893
    4fb0:	40340d0e 	.word	0x40340d0e
    4fb4:	df3b645a 	.word	0xdf3b645a
    4fb8:	40340d4f 	.word	0x40340d4f
    4fbc:	6872b021 	.word	0x6872b021
    4fc0:	40340d91 	.word	0x40340d91
    4fc4:	f1a9fbe7 	.word	0xf1a9fbe7
    4fc8:	40340dd2 	.word	0x40340dd2
    4fcc:	7ae147ae 	.word	0x7ae147ae
    4fd0:	40340e14 	.word	0x40340e14
    4fd4:	04189375 	.word	0x04189375
    4fd8:	40340e56 	.word	0x40340e56
    4fdc:	8d4fdf3b 	.word	0x8d4fdf3b
    4fe0:	40340e97 	.word	0x40340e97
    4fe4:	16872b02 	.word	0x16872b02
    4fe8:	40340ed9 	.word	0x40340ed9
    4fec:	9fbe76c9 	.word	0x9fbe76c9
    4ff0:	40340f1a 	.word	0x40340f1a
    4ff4:	28f5c28f 	.word	0x28f5c28f
    4ff8:	40340f5c 	.word	0x40340f5c
    4ffc:	b22d0e56 	.word	0xb22d0e56
    5000:	40340f9d 	.word	0x40340f9d
    5004:	3b645a1d 	.word	0x3b645a1d
    5008:	40340fdf 	.word	0x40340fdf
    500c:	c49ba5e3 	.word	0xc49ba5e3
    5010:	40341020 	.word	0x40341020
    5014:	4dd2f1aa 	.word	0x4dd2f1aa
    5018:	40341062 	.word	0x40341062
    501c:	d70a3d71 	.word	0xd70a3d71
    5020:	403410a3 	.word	0x403410a3
    5024:	60418937 	.word	0x60418937
    5028:	403410e5 	.word	0x403410e5
    502c:	e978d4fe 	.word	0xe978d4fe
    5030:	40341126 	.word	0x40341126
    5034:	72b020c5 	.word	0x72b020c5
    5038:	40341168 	.word	0x40341168
    503c:	fbe76c8b 	.word	0xfbe76c8b
    5040:	403411a9 	.word	0x403411a9
    5044:	851eb852 	.word	0x851eb852
    5048:	403411eb 	.word	0x403411eb
    504c:	0e560419 	.word	0x0e560419
    5050:	4034122d 	.word	0x4034122d
    5054:	978d4fdf 	.word	0x978d4fdf
    5058:	4034126e 	.word	0x4034126e
    505c:	20c49ba6 	.word	0x20c49ba6
    5060:	403412b0 	.word	0x403412b0
    5064:	a9fbe76d 	.word	0xa9fbe76d
    5068:	403412f1 	.word	0x403412f1
    506c:	33333333 	.word	0x33333333
    5070:	40341333 	.word	0x40341333
    5074:	bc6a7efa 	.word	0xbc6a7efa
    5078:	40341374 	.word	0x40341374
    507c:	45a1cac1 	.word	0x45a1cac1
    5080:	403413b6 	.word	0x403413b6
    5084:	ced91687 	.word	0xced91687
    5088:	403413f7 	.word	0x403413f7
    508c:	5810624e 	.word	0x5810624e
    5090:	40341439 	.word	0x40341439
    5094:	e147ae14 	.word	0xe147ae14
    5098:	4034147a 	.word	0x4034147a
    509c:	6a7ef9db 	.word	0x6a7ef9db
    50a0:	403414bc 	.word	0x403414bc
    50a4:	f3b645a2 	.word	0xf3b645a2
    50a8:	403414fd 	.word	0x403414fd
    50ac:	7ced9168 	.word	0x7ced9168
    50b0:	4034153f 	.word	0x4034153f
    50b4:	0624dd2f 	.word	0x0624dd2f
    50b8:	40341581 	.word	0x40341581
    50bc:	8f5c28f6 	.word	0x8f5c28f6
    50c0:	403415c2 	.word	0x403415c2
    50c4:	189374bc 	.word	0x189374bc
    50c8:	40341604 	.word	0x40341604
    50cc:	a1cac083 	.word	0xa1cac083
    50d0:	40341645 	.word	0x40341645
    50d4:	2b020c4a 	.word	0x2b020c4a
    50d8:	40341687 	.word	0x40341687
    50dc:	b4395810 	.word	0xb4395810
    50e0:	403416c8 	.word	0x403416c8
    50e4:	3d70a3d7 	.word	0x3d70a3d7
    50e8:	4034170a 	.word	0x4034170a
    50ec:	c6a7ef9e 	.word	0xc6a7ef9e
    50f0:	4034174b 	.word	0x4034174b
    50f4:	4fdf3b64 	.word	0x4fdf3b64
    50f8:	4034178d 	.word	0x4034178d
    50fc:	d916872b 	.word	0xd916872b
    5100:	403417ce 	.word	0x403417ce
    5104:	624dd2f2 	.word	0x624dd2f2
    5108:	40341810 	.word	0x40341810
    510c:	eb851eb8 	.word	0xeb851eb8
    5110:	40341851 	.word	0x40341851
    5114:	74bc6a7f 	.word	0x74bc6a7f
    5118:	40341893 	.word	0x40341893
    511c:	fdf3b646 	.word	0xfdf3b646
    5120:	403418d4 	.word	0x403418d4
    5124:	872b020c 	.word	0x872b020c
    5128:	40341916 	.word	0x40341916
    512c:	10624dd3 	.word	0x10624dd3
    5130:	40341958 	.word	0x40341958
    5134:	9999999a 	.word	0x9999999a
    5138:	40341999 	.word	0x40341999
    513c:	22d0e560 	.word	0x22d0e560
    5140:	403419db 	.word	0x403419db
    5144:	ac083127 	.word	0xac083127
    5148:	40341a1c 	.word	0x40341a1c
    514c:	353f7cee 	.word	0x353f7cee
    5150:	40341a5e 	.word	0x40341a5e
    5154:	be76c8b4 	.word	0xbe76c8b4
    5158:	40341a9f 	.word	0x40341a9f
    515c:	47ae147b 	.word	0x47ae147b
    5160:	40341ae1 	.word	0x40341ae1
    5164:	d0e56042 	.word	0xd0e56042
    5168:	40341b22 	.word	0x40341b22
    516c:	5a1cac08 	.word	0x5a1cac08
    5170:	40341b64 	.word	0x40341b64
    5174:	e353f7cf 	.word	0xe353f7cf
    5178:	40341ba5 	.word	0x40341ba5
    517c:	6c8b4396 	.word	0x6c8b4396
    5180:	40341be7 	.word	0x40341be7
    5184:	f5c28f5c 	.word	0xf5c28f5c
    5188:	40341c28 	.word	0x40341c28
    518c:	7ef9db23 	.word	0x7ef9db23
    5190:	40341c6a 	.word	0x40341c6a
    5194:	083126e9 	.word	0x083126e9
    5198:	40341cac 	.word	0x40341cac
    519c:	916872b0 	.word	0x916872b0
    51a0:	40341ced 	.word	0x40341ced
    51a4:	1a9fbe77 	.word	0x1a9fbe77
    51a8:	40341d2f 	.word	0x40341d2f
    51ac:	a3d70a3d 	.word	0xa3d70a3d
    51b0:	40341d70 	.word	0x40341d70
    51b4:	2d0e5604 	.word	0x2d0e5604
    51b8:	40341db2 	.word	0x40341db2
    51bc:	b645a1cb 	.word	0xb645a1cb
    51c0:	40341df3 	.word	0x40341df3
    51c4:	3f7ced91 	.word	0x3f7ced91
    51c8:	40341e35 	.word	0x40341e35
    51cc:	c8b43958 	.word	0xc8b43958
    51d0:	40341e76 	.word	0x40341e76
    51d4:	51eb851f 	.word	0x51eb851f
    51d8:	40341eb8 	.word	0x40341eb8
    51dc:	db22d0e5 	.word	0xdb22d0e5
    51e0:	40341ef9 	.word	0x40341ef9
    51e4:	645a1cac 	.word	0x645a1cac
    51e8:	40341f3b 	.word	0x40341f3b
    51ec:	ed916873 	.word	0xed916873
    51f0:	40341f7c 	.word	0x40341f7c
    51f4:	76c8b439 	.word	0x76c8b439
    51f8:	40341fbe 	.word	0x40341fbe
    51fc:	00000000 	.word	0x00000000
    5200:	40342000 	.word	0x40342000
    5204:	89374bc7 	.word	0x89374bc7
    5208:	40342041 	.word	0x40342041
    520c:	126e978d 	.word	0x126e978d
    5210:	40342083 	.word	0x40342083
    5214:	9ba5e354 	.word	0x9ba5e354
    5218:	403420c4 	.word	0x403420c4
    521c:	89374bc7 	.word	0x89374bc7
    5220:	40350041 	.word	0x40350041
    5224:	126e978d 	.word	0x126e978d
    5228:	40350083 	.word	0x40350083
    522c:	9ba5e354 	.word	0x9ba5e354
    5230:	403500c4 	.word	0x403500c4
    5234:	24dd2f1b 	.word	0x24dd2f1b
    5238:	40350106 	.word	0x40350106
    523c:	ae147ae1 	.word	0xae147ae1
    5240:	40350147 	.word	0x40350147
    5244:	374bc6a8 	.word	0x374bc6a8
    5248:	40350189 	.word	0x40350189
    524c:	c083126f 	.word	0xc083126f
    5250:	403501ca 	.word	0x403501ca
    5254:	49ba5e35 	.word	0x49ba5e35
    5258:	4035020c 	.word	0x4035020c
    525c:	d2f1a9fc 	.word	0xd2f1a9fc
    5260:	4035024d 	.word	0x4035024d
    5264:	5c28f5c3 	.word	0x5c28f5c3
    5268:	4035028f 	.word	0x4035028f
    526c:	e5604189 	.word	0xe5604189
    5270:	403502d0 	.word	0x403502d0
    5274:	6e978d50 	.word	0x6e978d50
    5278:	40350312 	.word	0x40350312
    527c:	f7ced917 	.word	0xf7ced917
    5280:	40350353 	.word	0x40350353
    5284:	810624dd 	.word	0x810624dd
    5288:	40350395 	.word	0x40350395
    528c:	0a3d70a4 	.word	0x0a3d70a4
    5290:	403503d7 	.word	0x403503d7
    5294:	9374bc6a 	.word	0x9374bc6a
    5298:	40350418 	.word	0x40350418
    529c:	1cac0831 	.word	0x1cac0831
    52a0:	4035045a 	.word	0x4035045a
    52a4:	a5e353f8 	.word	0xa5e353f8
    52a8:	4035049b 	.word	0x4035049b
    52ac:	2f1a9fbe 	.word	0x2f1a9fbe
    52b0:	403504dd 	.word	0x403504dd
    52b4:	b851eb85 	.word	0xb851eb85
    52b8:	4035051e 	.word	0x4035051e
    52bc:	4189374c 	.word	0x4189374c
    52c0:	40350560 	.word	0x40350560
    52c4:	cac08312 	.word	0xcac08312
    52c8:	403505a1 	.word	0x403505a1
    52cc:	53f7ced9 	.word	0x53f7ced9
    52d0:	403505e3 	.word	0x403505e3
    52d4:	dd2f1aa0 	.word	0xdd2f1aa0
    52d8:	40350624 	.word	0x40350624
    52dc:	66666666 	.word	0x66666666
    52e0:	40350666 	.word	0x40350666
    52e4:	ef9db22d 	.word	0xef9db22d
    52e8:	403506a7 	.word	0x403506a7
    52ec:	78d4fdf4 	.word	0x78d4fdf4
    52f0:	403506e9 	.word	0x403506e9
    52f4:	020c49ba 	.word	0x020c49ba
    52f8:	4035072b 	.word	0x4035072b
    52fc:	8b439581 	.word	0x8b439581
    5300:	4035076c 	.word	0x4035076c
    5304:	147ae148 	.word	0x147ae148
    5308:	403507ae 	.word	0x403507ae
    530c:	9db22d0e 	.word	0x9db22d0e
    5310:	403507ef 	.word	0x403507ef
    5314:	26e978d5 	.word	0x26e978d5
    5318:	40350831 	.word	0x40350831
    531c:	b020c49c 	.word	0xb020c49c
    5320:	40350872 	.word	0x40350872
    5324:	39581062 	.word	0x39581062
    5328:	403508b4 	.word	0x403508b4
    532c:	c28f5c29 	.word	0xc28f5c29
    5330:	403508f5 	.word	0x403508f5
    5334:	4bc6a7f0 	.word	0x4bc6a7f0
    5338:	40350937 	.word	0x40350937
    533c:	d4fdf3b6 	.word	0xd4fdf3b6
    5340:	40350978 	.word	0x40350978
    5344:	5e353f7d 	.word	0x5e353f7d
    5348:	403509ba 	.word	0x403509ba
    534c:	e76c8b44 	.word	0xe76c8b44
    5350:	403509fb 	.word	0x403509fb
    5354:	70a3d70a 	.word	0x70a3d70a
    5358:	40350a3d 	.word	0x40350a3d
    535c:	f9db22d1 	.word	0xf9db22d1
    5360:	40350a7e 	.word	0x40350a7e
    5364:	83126e98 	.word	0x83126e98
    5368:	40350ac0 	.word	0x40350ac0
    536c:	0c49ba5e 	.word	0x0c49ba5e
    5370:	40350b02 	.word	0x40350b02
    5374:	95810625 	.word	0x95810625
    5378:	40350b43 	.word	0x40350b43
    537c:	1eb851ec 	.word	0x1eb851ec
    5380:	40350b85 	.word	0x40350b85
    5384:	a7ef9db2 	.word	0xa7ef9db2
    5388:	40350bc6 	.word	0x40350bc6
    538c:	3126e979 	.word	0x3126e979
    5390:	40350c08 	.word	0x40350c08
    5394:	ba5e353f 	.word	0xba5e353f
    5398:	40350c49 	.word	0x40350c49
    539c:	43958106 	.word	0x43958106
    53a0:	40350c8b 	.word	0x40350c8b
    53a4:	cccccccd 	.word	0xcccccccd
    53a8:	40350ccc 	.word	0x40350ccc
    53ac:	56041893 	.word	0x56041893
    53b0:	40350d0e 	.word	0x40350d0e
    53b4:	df3b645a 	.word	0xdf3b645a
    53b8:	40350d4f 	.word	0x40350d4f
    53bc:	6872b021 	.word	0x6872b021
    53c0:	40350d91 	.word	0x40350d91
    53c4:	f1a9fbe7 	.word	0xf1a9fbe7
    53c8:	40350dd2 	.word	0x40350dd2
    53cc:	7ae147ae 	.word	0x7ae147ae
    53d0:	40350e14 	.word	0x40350e14
    53d4:	04189375 	.word	0x04189375
    53d8:	40350e56 	.word	0x40350e56
    53dc:	8d4fdf3b 	.word	0x8d4fdf3b
    53e0:	40350e97 	.word	0x40350e97
    53e4:	16872b02 	.word	0x16872b02
    53e8:	40350ed9 	.word	0x40350ed9
    53ec:	9fbe76c9 	.word	0x9fbe76c9
    53f0:	40350f1a 	.word	0x40350f1a
    53f4:	28f5c28f 	.word	0x28f5c28f
    53f8:	40350f5c 	.word	0x40350f5c
    53fc:	b22d0e56 	.word	0xb22d0e56
    5400:	40350f9d 	.word	0x40350f9d
    5404:	3b645a1d 	.word	0x3b645a1d
    5408:	40350fdf 	.word	0x40350fdf
    540c:	c49ba5e3 	.word	0xc49ba5e3
    5410:	40351020 	.word	0x40351020
    5414:	4dd2f1aa 	.word	0x4dd2f1aa
    5418:	40351062 	.word	0x40351062
    541c:	d70a3d71 	.word	0xd70a3d71
    5420:	403510a3 	.word	0x403510a3
    5424:	60418937 	.word	0x60418937
    5428:	403510e5 	.word	0x403510e5
    542c:	e978d4fe 	.word	0xe978d4fe
    5430:	40351126 	.word	0x40351126
    5434:	72b020c5 	.word	0x72b020c5
    5438:	40351168 	.word	0x40351168
    543c:	fbe76c8b 	.word	0xfbe76c8b
    5440:	403511a9 	.word	0x403511a9
    5444:	851eb852 	.word	0x851eb852
    5448:	403511eb 	.word	0x403511eb
    544c:	0e560419 	.word	0x0e560419
    5450:	4035122d 	.word	0x4035122d
    5454:	978d4fdf 	.word	0x978d4fdf
    5458:	4035126e 	.word	0x4035126e
    545c:	20c49ba6 	.word	0x20c49ba6
    5460:	403512b0 	.word	0x403512b0
    5464:	a9fbe76d 	.word	0xa9fbe76d
    5468:	403512f1 	.word	0x403512f1
    546c:	33333333 	.word	0x33333333
    5470:	40351333 	.word	0x40351333
    5474:	bc6a7efa 	.word	0xbc6a7efa
    5478:	40351374 	.word	0x40351374
    547c:	45a1cac1 	.word	0x45a1cac1
    5480:	403513b6 	.word	0x403513b6
    5484:	ced91687 	.word	0xced91687
    5488:	403513f7 	.word	0x403513f7
    548c:	5810624e 	.word	0x5810624e
    5490:	40351439 	.word	0x40351439
    5494:	e147ae14 	.word	0xe147ae14
    5498:	4035147a 	.word	0x4035147a
    549c:	6a7ef9db 	.word	0x6a7ef9db
    54a0:	403514bc 	.word	0x403514bc
    54a4:	f3b645a2 	.word	0xf3b645a2
    54a8:	403514fd 	.word	0x403514fd
    54ac:	7ced9168 	.word	0x7ced9168
    54b0:	4035153f 	.word	0x4035153f
    54b4:	0624dd2f 	.word	0x0624dd2f
    54b8:	40351581 	.word	0x40351581
    54bc:	8f5c28f6 	.word	0x8f5c28f6
    54c0:	403515c2 	.word	0x403515c2
    54c4:	189374bc 	.word	0x189374bc
    54c8:	40351604 	.word	0x40351604
    54cc:	a1cac083 	.word	0xa1cac083
    54d0:	40351645 	.word	0x40351645
    54d4:	2b020c4a 	.word	0x2b020c4a
    54d8:	40351687 	.word	0x40351687
    54dc:	b4395810 	.word	0xb4395810
    54e0:	403516c8 	.word	0x403516c8
    54e4:	3d70a3d7 	.word	0x3d70a3d7
    54e8:	4035170a 	.word	0x4035170a
    54ec:	c6a7ef9e 	.word	0xc6a7ef9e
    54f0:	4035174b 	.word	0x4035174b
    54f4:	4fdf3b64 	.word	0x4fdf3b64
    54f8:	4035178d 	.word	0x4035178d
    54fc:	d916872b 	.word	0xd916872b
    5500:	403517ce 	.word	0x403517ce
    5504:	624dd2f2 	.word	0x624dd2f2
    5508:	40351810 	.word	0x40351810
    550c:	eb851eb8 	.word	0xeb851eb8
    5510:	40351851 	.word	0x40351851
    5514:	74bc6a7f 	.word	0x74bc6a7f
    5518:	40351893 	.word	0x40351893
    551c:	fdf3b646 	.word	0xfdf3b646
    5520:	403518d4 	.word	0x403518d4
    5524:	872b020c 	.word	0x872b020c
    5528:	40351916 	.word	0x40351916
    552c:	10624dd3 	.word	0x10624dd3
    5530:	40351958 	.word	0x40351958
    5534:	9999999a 	.word	0x9999999a
    5538:	40351999 	.word	0x40351999
    553c:	22d0e560 	.word	0x22d0e560
    5540:	403519db 	.word	0x403519db
    5544:	ac083127 	.word	0xac083127
    5548:	40351a1c 	.word	0x40351a1c
    554c:	353f7cee 	.word	0x353f7cee
    5550:	40351a5e 	.word	0x40351a5e
    5554:	be76c8b4 	.word	0xbe76c8b4
    5558:	40351a9f 	.word	0x40351a9f
    555c:	47ae147b 	.word	0x47ae147b
    5560:	40351ae1 	.word	0x40351ae1
    5564:	d0e56042 	.word	0xd0e56042
    5568:	40351b22 	.word	0x40351b22
    556c:	5a1cac08 	.word	0x5a1cac08
    5570:	40351b64 	.word	0x40351b64
    5574:	e353f7cf 	.word	0xe353f7cf
    5578:	40351ba5 	.word	0x40351ba5
    557c:	6c8b4396 	.word	0x6c8b4396
    5580:	40351be7 	.word	0x40351be7
    5584:	f5c28f5c 	.word	0xf5c28f5c
    5588:	40351c28 	.word	0x40351c28
    558c:	7ef9db23 	.word	0x7ef9db23
    5590:	40351c6a 	.word	0x40351c6a
    5594:	083126e9 	.word	0x083126e9
    5598:	40351cac 	.word	0x40351cac
    559c:	916872b0 	.word	0x916872b0
    55a0:	40351ced 	.word	0x40351ced
    55a4:	1a9fbe77 	.word	0x1a9fbe77
    55a8:	40351d2f 	.word	0x40351d2f
    55ac:	a3d70a3d 	.word	0xa3d70a3d
    55b0:	40351d70 	.word	0x40351d70
    55b4:	2d0e5604 	.word	0x2d0e5604
    55b8:	40351db2 	.word	0x40351db2
    55bc:	b645a1cb 	.word	0xb645a1cb
    55c0:	40351df3 	.word	0x40351df3
    55c4:	3f7ced91 	.word	0x3f7ced91
    55c8:	40351e35 	.word	0x40351e35
    55cc:	c8b43958 	.word	0xc8b43958
    55d0:	40351e76 	.word	0x40351e76
    55d4:	51eb851f 	.word	0x51eb851f
    55d8:	40351eb8 	.word	0x40351eb8
    55dc:	db22d0e5 	.word	0xdb22d0e5
    55e0:	40351ef9 	.word	0x40351ef9
    55e4:	645a1cac 	.word	0x645a1cac
    55e8:	40351f3b 	.word	0x40351f3b
    55ec:	ed916873 	.word	0xed916873
    55f0:	40351f7c 	.word	0x40351f7c
    55f4:	76c8b439 	.word	0x76c8b439
    55f8:	40351fbe 	.word	0x40351fbe
    55fc:	00000000 	.word	0x00000000
    5600:	40352000 	.word	0x40352000
    5604:	89374bc7 	.word	0x89374bc7
    5608:	40352041 	.word	0x40352041
    560c:	126e978d 	.word	0x126e978d
    5610:	40352083 	.word	0x40352083
    5614:	9ba5e354 	.word	0x9ba5e354
    5618:	403520c4 	.word	0x403520c4
    561c:	89374bc7 	.word	0x89374bc7
    5620:	40360041 	.word	0x40360041
    5624:	126e978d 	.word	0x126e978d
    5628:	40360083 	.word	0x40360083
    562c:	9ba5e354 	.word	0x9ba5e354
    5630:	403600c4 	.word	0x403600c4
    5634:	24dd2f1b 	.word	0x24dd2f1b
    5638:	40360106 	.word	0x40360106
    563c:	ae147ae1 	.word	0xae147ae1
    5640:	40360147 	.word	0x40360147
    5644:	374bc6a8 	.word	0x374bc6a8
    5648:	40360189 	.word	0x40360189
    564c:	c083126f 	.word	0xc083126f
    5650:	403601ca 	.word	0x403601ca
    5654:	49ba5e35 	.word	0x49ba5e35
    5658:	4036020c 	.word	0x4036020c
    565c:	d2f1a9fc 	.word	0xd2f1a9fc
    5660:	4036024d 	.word	0x4036024d
    5664:	5c28f5c3 	.word	0x5c28f5c3
    5668:	4036028f 	.word	0x4036028f
    566c:	e5604189 	.word	0xe5604189
    5670:	403602d0 	.word	0x403602d0
    5674:	6e978d50 	.word	0x6e978d50
    5678:	40360312 	.word	0x40360312
    567c:	f7ced917 	.word	0xf7ced917
    5680:	40360353 	.word	0x40360353
    5684:	810624dd 	.word	0x810624dd
    5688:	40360395 	.word	0x40360395
    568c:	0a3d70a4 	.word	0x0a3d70a4
    5690:	403603d7 	.word	0x403603d7
    5694:	9374bc6a 	.word	0x9374bc6a
    5698:	40360418 	.word	0x40360418
    569c:	1cac0831 	.word	0x1cac0831
    56a0:	4036045a 	.word	0x4036045a
    56a4:	a5e353f8 	.word	0xa5e353f8
    56a8:	4036049b 	.word	0x4036049b
    56ac:	2f1a9fbe 	.word	0x2f1a9fbe
    56b0:	403604dd 	.word	0x403604dd
    56b4:	b851eb85 	.word	0xb851eb85
    56b8:	4036051e 	.word	0x4036051e
    56bc:	4189374c 	.word	0x4189374c
    56c0:	40360560 	.word	0x40360560
    56c4:	cac08312 	.word	0xcac08312
    56c8:	403605a1 	.word	0x403605a1
    56cc:	53f7ced9 	.word	0x53f7ced9
    56d0:	403605e3 	.word	0x403605e3
    56d4:	dd2f1aa0 	.word	0xdd2f1aa0
    56d8:	40360624 	.word	0x40360624
    56dc:	66666666 	.word	0x66666666
    56e0:	40360666 	.word	0x40360666
    56e4:	ef9db22d 	.word	0xef9db22d
    56e8:	403606a7 	.word	0x403606a7
    56ec:	78d4fdf4 	.word	0x78d4fdf4
    56f0:	403606e9 	.word	0x403606e9
    56f4:	020c49ba 	.word	0x020c49ba
    56f8:	4036072b 	.word	0x4036072b
    56fc:	8b439581 	.word	0x8b439581
    5700:	4036076c 	.word	0x4036076c
    5704:	147ae148 	.word	0x147ae148
    5708:	403607ae 	.word	0x403607ae
    570c:	9db22d0e 	.word	0x9db22d0e
    5710:	403607ef 	.word	0x403607ef
    5714:	26e978d5 	.word	0x26e978d5
    5718:	40360831 	.word	0x40360831
    571c:	b020c49c 	.word	0xb020c49c
    5720:	40360872 	.word	0x40360872
    5724:	39581062 	.word	0x39581062
    5728:	403608b4 	.word	0x403608b4
    572c:	c28f5c29 	.word	0xc28f5c29
    5730:	403608f5 	.word	0x403608f5
    5734:	4bc6a7f0 	.word	0x4bc6a7f0
    5738:	40360937 	.word	0x40360937
    573c:	d4fdf3b6 	.word	0xd4fdf3b6
    5740:	40360978 	.word	0x40360978
    5744:	5e353f7d 	.word	0x5e353f7d
    5748:	403609ba 	.word	0x403609ba
    574c:	e76c8b44 	.word	0xe76c8b44
    5750:	403609fb 	.word	0x403609fb
    5754:	70a3d70a 	.word	0x70a3d70a
    5758:	40360a3d 	.word	0x40360a3d
    575c:	f9db22d1 	.word	0xf9db22d1
    5760:	40360a7e 	.word	0x40360a7e
    5764:	83126e98 	.word	0x83126e98
    5768:	40360ac0 	.word	0x40360ac0
    576c:	0c49ba5e 	.word	0x0c49ba5e
    5770:	40360b02 	.word	0x40360b02
    5774:	95810625 	.word	0x95810625
    5778:	40360b43 	.word	0x40360b43
    577c:	1eb851ec 	.word	0x1eb851ec
    5780:	40360b85 	.word	0x40360b85
    5784:	a7ef9db2 	.word	0xa7ef9db2
    5788:	40360bc6 	.word	0x40360bc6
    578c:	3126e979 	.word	0x3126e979
    5790:	40360c08 	.word	0x40360c08
    5794:	ba5e353f 	.word	0xba5e353f
    5798:	40360c49 	.word	0x40360c49
    579c:	43958106 	.word	0x43958106
    57a0:	40360c8b 	.word	0x40360c8b
    57a4:	cccccccd 	.word	0xcccccccd
    57a8:	40360ccc 	.word	0x40360ccc
    57ac:	56041893 	.word	0x56041893
    57b0:	40360d0e 	.word	0x40360d0e
    57b4:	df3b645a 	.word	0xdf3b645a
    57b8:	40360d4f 	.word	0x40360d4f
    57bc:	6872b021 	.word	0x6872b021
    57c0:	40360d91 	.word	0x40360d91
    57c4:	f1a9fbe7 	.word	0xf1a9fbe7
    57c8:	40360dd2 	.word	0x40360dd2
    57cc:	7ae147ae 	.word	0x7ae147ae
    57d0:	40360e14 	.word	0x40360e14
    57d4:	04189375 	.word	0x04189375
    57d8:	40360e56 	.word	0x40360e56
    57dc:	8d4fdf3b 	.word	0x8d4fdf3b
    57e0:	40360e97 	.word	0x40360e97
    57e4:	16872b02 	.word	0x16872b02
    57e8:	40360ed9 	.word	0x40360ed9
    57ec:	9fbe76c9 	.word	0x9fbe76c9
    57f0:	40360f1a 	.word	0x40360f1a
    57f4:	28f5c28f 	.word	0x28f5c28f
    57f8:	40360f5c 	.word	0x40360f5c
    57fc:	b22d0e56 	.word	0xb22d0e56
    5800:	40360f9d 	.word	0x40360f9d
    5804:	3b645a1d 	.word	0x3b645a1d
    5808:	40360fdf 	.word	0x40360fdf
    580c:	c49ba5e3 	.word	0xc49ba5e3
    5810:	40361020 	.word	0x40361020
    5814:	4dd2f1aa 	.word	0x4dd2f1aa
    5818:	40361062 	.word	0x40361062
    581c:	d70a3d71 	.word	0xd70a3d71
    5820:	403610a3 	.word	0x403610a3
    5824:	60418937 	.word	0x60418937
    5828:	403610e5 	.word	0x403610e5
    582c:	e978d4fe 	.word	0xe978d4fe
    5830:	40361126 	.word	0x40361126
    5834:	72b020c5 	.word	0x72b020c5
    5838:	40361168 	.word	0x40361168
    583c:	fbe76c8b 	.word	0xfbe76c8b
    5840:	403611a9 	.word	0x403611a9
    5844:	851eb852 	.word	0x851eb852
    5848:	403611eb 	.word	0x403611eb
    584c:	0e560419 	.word	0x0e560419
    5850:	4036122d 	.word	0x4036122d
    5854:	978d4fdf 	.word	0x978d4fdf
    5858:	4036126e 	.word	0x4036126e
    585c:	20c49ba6 	.word	0x20c49ba6
    5860:	403612b0 	.word	0x403612b0
    5864:	a9fbe76d 	.word	0xa9fbe76d
    5868:	403612f1 	.word	0x403612f1
    586c:	33333333 	.word	0x33333333
    5870:	40361333 	.word	0x40361333
    5874:	bc6a7efa 	.word	0xbc6a7efa
    5878:	40361374 	.word	0x40361374
    587c:	45a1cac1 	.word	0x45a1cac1
    5880:	403613b6 	.word	0x403613b6
    5884:	ced91687 	.word	0xced91687
    5888:	403613f7 	.word	0x403613f7
    588c:	5810624e 	.word	0x5810624e
    5890:	40361439 	.word	0x40361439
    5894:	e147ae14 	.word	0xe147ae14
    5898:	4036147a 	.word	0x4036147a
    589c:	6a7ef9db 	.word	0x6a7ef9db
    58a0:	403614bc 	.word	0x403614bc
    58a4:	f3b645a2 	.word	0xf3b645a2
    58a8:	403614fd 	.word	0x403614fd
    58ac:	7ced9168 	.word	0x7ced9168
    58b0:	4036153f 	.word	0x4036153f
    58b4:	0624dd2f 	.word	0x0624dd2f
    58b8:	40361581 	.word	0x40361581
    58bc:	8f5c28f6 	.word	0x8f5c28f6
    58c0:	403615c2 	.word	0x403615c2
    58c4:	189374bc 	.word	0x189374bc
    58c8:	40361604 	.word	0x40361604
    58cc:	a1cac083 	.word	0xa1cac083
    58d0:	40361645 	.word	0x40361645
    58d4:	2b020c4a 	.word	0x2b020c4a
    58d8:	40361687 	.word	0x40361687
    58dc:	b4395810 	.word	0xb4395810
    58e0:	403616c8 	.word	0x403616c8
    58e4:	3d70a3d7 	.word	0x3d70a3d7
    58e8:	4036170a 	.word	0x4036170a
    58ec:	c6a7ef9e 	.word	0xc6a7ef9e
    58f0:	4036174b 	.word	0x4036174b
    58f4:	4fdf3b64 	.word	0x4fdf3b64
    58f8:	4036178d 	.word	0x4036178d
    58fc:	d916872b 	.word	0xd916872b
    5900:	403617ce 	.word	0x403617ce
    5904:	624dd2f2 	.word	0x624dd2f2
    5908:	40361810 	.word	0x40361810
    590c:	eb851eb8 	.word	0xeb851eb8
    5910:	40361851 	.word	0x40361851
    5914:	74bc6a7f 	.word	0x74bc6a7f
    5918:	40361893 	.word	0x40361893
    591c:	fdf3b646 	.word	0xfdf3b646
    5920:	403618d4 	.word	0x403618d4
    5924:	872b020c 	.word	0x872b020c
    5928:	40361916 	.word	0x40361916
    592c:	10624dd3 	.word	0x10624dd3
    5930:	40361958 	.word	0x40361958
    5934:	9999999a 	.word	0x9999999a
    5938:	40361999 	.word	0x40361999
    593c:	22d0e560 	.word	0x22d0e560
    5940:	403619db 	.word	0x403619db
    5944:	ac083127 	.word	0xac083127
    5948:	40361a1c 	.word	0x40361a1c
    594c:	353f7cee 	.word	0x353f7cee
    5950:	40361a5e 	.word	0x40361a5e
    5954:	be76c8b4 	.word	0xbe76c8b4
    5958:	40361a9f 	.word	0x40361a9f
    595c:	47ae147b 	.word	0x47ae147b
    5960:	40361ae1 	.word	0x40361ae1
    5964:	d0e56042 	.word	0xd0e56042
    5968:	40361b22 	.word	0x40361b22
    596c:	5a1cac08 	.word	0x5a1cac08
    5970:	40361b64 	.word	0x40361b64
    5974:	e353f7cf 	.word	0xe353f7cf
    5978:	40361ba5 	.word	0x40361ba5
    597c:	6c8b4396 	.word	0x6c8b4396
    5980:	40361be7 	.word	0x40361be7
    5984:	f5c28f5c 	.word	0xf5c28f5c
    5988:	40361c28 	.word	0x40361c28
    598c:	7ef9db23 	.word	0x7ef9db23
    5990:	40361c6a 	.word	0x40361c6a
    5994:	083126e9 	.word	0x083126e9
    5998:	40361cac 	.word	0x40361cac
    599c:	916872b0 	.word	0x916872b0
    59a0:	40361ced 	.word	0x40361ced
    59a4:	1a9fbe77 	.word	0x1a9fbe77
    59a8:	40361d2f 	.word	0x40361d2f
    59ac:	a3d70a3d 	.word	0xa3d70a3d
    59b0:	40361d70 	.word	0x40361d70
    59b4:	2d0e5604 	.word	0x2d0e5604
    59b8:	40361db2 	.word	0x40361db2
    59bc:	b645a1cb 	.word	0xb645a1cb
    59c0:	40361df3 	.word	0x40361df3
    59c4:	3f7ced91 	.word	0x3f7ced91
    59c8:	40361e35 	.word	0x40361e35
    59cc:	c8b43958 	.word	0xc8b43958
    59d0:	40361e76 	.word	0x40361e76
    59d4:	51eb851f 	.word	0x51eb851f
    59d8:	40361eb8 	.word	0x40361eb8
    59dc:	db22d0e5 	.word	0xdb22d0e5
    59e0:	40361ef9 	.word	0x40361ef9
    59e4:	645a1cac 	.word	0x645a1cac
    59e8:	40361f3b 	.word	0x40361f3b
    59ec:	ed916873 	.word	0xed916873
    59f0:	40361f7c 	.word	0x40361f7c
    59f4:	76c8b439 	.word	0x76c8b439
    59f8:	40361fbe 	.word	0x40361fbe
    59fc:	00000000 	.word	0x00000000
    5a00:	40362000 	.word	0x40362000
    5a04:	89374bc7 	.word	0x89374bc7
    5a08:	40362041 	.word	0x40362041
    5a0c:	126e978d 	.word	0x126e978d
    5a10:	40362083 	.word	0x40362083
    5a14:	9ba5e354 	.word	0x9ba5e354
    5a18:	403620c4 	.word	0x403620c4
    5a1c:	89374bc7 	.word	0x89374bc7
    5a20:	40370041 	.word	0x40370041
    5a24:	126e978d 	.word	0x126e978d
    5a28:	40370083 	.word	0x40370083
    5a2c:	9ba5e354 	.word	0x9ba5e354
    5a30:	403700c4 	.word	0x403700c4
    5a34:	24dd2f1b 	.word	0x24dd2f1b
    5a38:	40370106 	.word	0x40370106
    5a3c:	ae147ae1 	.word	0xae147ae1
    5a40:	40370147 	.word	0x40370147
    5a44:	374bc6a8 	.word	0x374bc6a8
    5a48:	40370189 	.word	0x40370189
    5a4c:	c083126f 	.word	0xc083126f
    5a50:	403701ca 	.word	0x403701ca
    5a54:	49ba5e35 	.word	0x49ba5e35
    5a58:	4037020c 	.word	0x4037020c
    5a5c:	d2f1a9fc 	.word	0xd2f1a9fc
    5a60:	4037024d 	.word	0x4037024d
    5a64:	5c28f5c3 	.word	0x5c28f5c3
    5a68:	4037028f 	.word	0x4037028f
    5a6c:	e5604189 	.word	0xe5604189
    5a70:	403702d0 	.word	0x403702d0
    5a74:	6e978d50 	.word	0x6e978d50
    5a78:	40370312 	.word	0x40370312
    5a7c:	f7ced917 	.word	0xf7ced917
    5a80:	40370353 	.word	0x40370353
    5a84:	810624dd 	.word	0x810624dd
    5a88:	40370395 	.word	0x40370395
    5a8c:	0a3d70a4 	.word	0x0a3d70a4
    5a90:	403703d7 	.word	0x403703d7
    5a94:	9374bc6a 	.word	0x9374bc6a
    5a98:	40370418 	.word	0x40370418
    5a9c:	1cac0831 	.word	0x1cac0831
    5aa0:	4037045a 	.word	0x4037045a
    5aa4:	a5e353f8 	.word	0xa5e353f8
    5aa8:	4037049b 	.word	0x4037049b
    5aac:	2f1a9fbe 	.word	0x2f1a9fbe
    5ab0:	403704dd 	.word	0x403704dd
    5ab4:	b851eb85 	.word	0xb851eb85
    5ab8:	4037051e 	.word	0x4037051e
    5abc:	4189374c 	.word	0x4189374c
    5ac0:	40370560 	.word	0x40370560
    5ac4:	cac08312 	.word	0xcac08312
    5ac8:	403705a1 	.word	0x403705a1
    5acc:	53f7ced9 	.word	0x53f7ced9
    5ad0:	403705e3 	.word	0x403705e3
    5ad4:	dd2f1aa0 	.word	0xdd2f1aa0
    5ad8:	40370624 	.word	0x40370624
    5adc:	66666666 	.word	0x66666666
    5ae0:	40370666 	.word	0x40370666
    5ae4:	ef9db22d 	.word	0xef9db22d
    5ae8:	403706a7 	.word	0x403706a7
    5aec:	78d4fdf4 	.word	0x78d4fdf4
    5af0:	403706e9 	.word	0x403706e9
    5af4:	020c49ba 	.word	0x020c49ba
    5af8:	4037072b 	.word	0x4037072b
    5afc:	8b439581 	.word	0x8b439581
    5b00:	4037076c 	.word	0x4037076c
    5b04:	147ae148 	.word	0x147ae148
    5b08:	403707ae 	.word	0x403707ae
    5b0c:	9db22d0e 	.word	0x9db22d0e
    5b10:	403707ef 	.word	0x403707ef
    5b14:	26e978d5 	.word	0x26e978d5
    5b18:	40370831 	.word	0x40370831
    5b1c:	b020c49c 	.word	0xb020c49c
    5b20:	40370872 	.word	0x40370872
    5b24:	39581062 	.word	0x39581062
    5b28:	403708b4 	.word	0x403708b4
    5b2c:	c28f5c29 	.word	0xc28f5c29
    5b30:	403708f5 	.word	0x403708f5
    5b34:	4bc6a7f0 	.word	0x4bc6a7f0
    5b38:	40370937 	.word	0x40370937
    5b3c:	d4fdf3b6 	.word	0xd4fdf3b6
    5b40:	40370978 	.word	0x40370978
    5b44:	5e353f7d 	.word	0x5e353f7d
    5b48:	403709ba 	.word	0x403709ba
    5b4c:	e76c8b44 	.word	0xe76c8b44
    5b50:	403709fb 	.word	0x403709fb
    5b54:	70a3d70a 	.word	0x70a3d70a
    5b58:	40370a3d 	.word	0x40370a3d
    5b5c:	f9db22d1 	.word	0xf9db22d1
    5b60:	40370a7e 	.word	0x40370a7e
    5b64:	83126e98 	.word	0x83126e98
    5b68:	40370ac0 	.word	0x40370ac0
    5b6c:	0c49ba5e 	.word	0x0c49ba5e
    5b70:	40370b02 	.word	0x40370b02
    5b74:	95810625 	.word	0x95810625
    5b78:	40370b43 	.word	0x40370b43
    5b7c:	1eb851ec 	.word	0x1eb851ec
    5b80:	40370b85 	.word	0x40370b85
    5b84:	a7ef9db2 	.word	0xa7ef9db2
    5b88:	40370bc6 	.word	0x40370bc6
    5b8c:	3126e979 	.word	0x3126e979
    5b90:	40370c08 	.word	0x40370c08
    5b94:	ba5e353f 	.word	0xba5e353f
    5b98:	40370c49 	.word	0x40370c49
    5b9c:	43958106 	.word	0x43958106
    5ba0:	40370c8b 	.word	0x40370c8b
    5ba4:	cccccccd 	.word	0xcccccccd
    5ba8:	40370ccc 	.word	0x40370ccc
    5bac:	56041893 	.word	0x56041893
    5bb0:	40370d0e 	.word	0x40370d0e
    5bb4:	df3b645a 	.word	0xdf3b645a
    5bb8:	40370d4f 	.word	0x40370d4f
    5bbc:	6872b021 	.word	0x6872b021
    5bc0:	40370d91 	.word	0x40370d91
    5bc4:	f1a9fbe7 	.word	0xf1a9fbe7
    5bc8:	40370dd2 	.word	0x40370dd2
    5bcc:	7ae147ae 	.word	0x7ae147ae
    5bd0:	40370e14 	.word	0x40370e14
    5bd4:	04189375 	.word	0x04189375
    5bd8:	40370e56 	.word	0x40370e56
    5bdc:	8d4fdf3b 	.word	0x8d4fdf3b
    5be0:	40370e97 	.word	0x40370e97
    5be4:	16872b02 	.word	0x16872b02
    5be8:	40370ed9 	.word	0x40370ed9
    5bec:	9fbe76c9 	.word	0x9fbe76c9
    5bf0:	40370f1a 	.word	0x40370f1a
    5bf4:	28f5c28f 	.word	0x28f5c28f
    5bf8:	40370f5c 	.word	0x40370f5c
    5bfc:	b22d0e56 	.word	0xb22d0e56
    5c00:	40370f9d 	.word	0x40370f9d
    5c04:	3b645a1d 	.word	0x3b645a1d
    5c08:	40370fdf 	.word	0x40370fdf
    5c0c:	c49ba5e3 	.word	0xc49ba5e3
    5c10:	40371020 	.word	0x40371020
    5c14:	4dd2f1aa 	.word	0x4dd2f1aa
    5c18:	40371062 	.word	0x40371062
    5c1c:	d70a3d71 	.word	0xd70a3d71
    5c20:	403710a3 	.word	0x403710a3
    5c24:	60418937 	.word	0x60418937
    5c28:	403710e5 	.word	0x403710e5
    5c2c:	e978d4fe 	.word	0xe978d4fe
    5c30:	40371126 	.word	0x40371126
    5c34:	72b020c5 	.word	0x72b020c5
    5c38:	40371168 	.word	0x40371168
    5c3c:	fbe76c8b 	.word	0xfbe76c8b
    5c40:	403711a9 	.word	0x403711a9
    5c44:	851eb852 	.word	0x851eb852
    5c48:	403711eb 	.word	0x403711eb
    5c4c:	0e560419 	.word	0x0e560419
    5c50:	4037122d 	.word	0x4037122d
    5c54:	978d4fdf 	.word	0x978d4fdf
    5c58:	4037126e 	.word	0x4037126e
    5c5c:	20c49ba6 	.word	0x20c49ba6
    5c60:	403712b0 	.word	0x403712b0
    5c64:	a9fbe76d 	.word	0xa9fbe76d
    5c68:	403712f1 	.word	0x403712f1
    5c6c:	33333333 	.word	0x33333333
    5c70:	40371333 	.word	0x40371333
    5c74:	bc6a7efa 	.word	0xbc6a7efa
    5c78:	40371374 	.word	0x40371374
    5c7c:	45a1cac1 	.word	0x45a1cac1
    5c80:	403713b6 	.word	0x403713b6
    5c84:	ced91687 	.word	0xced91687
    5c88:	403713f7 	.word	0x403713f7
    5c8c:	5810624e 	.word	0x5810624e
    5c90:	40371439 	.word	0x40371439
    5c94:	e147ae14 	.word	0xe147ae14
    5c98:	4037147a 	.word	0x4037147a
    5c9c:	6a7ef9db 	.word	0x6a7ef9db
    5ca0:	403714bc 	.word	0x403714bc
    5ca4:	f3b645a2 	.word	0xf3b645a2
    5ca8:	403714fd 	.word	0x403714fd
    5cac:	7ced9168 	.word	0x7ced9168
    5cb0:	4037153f 	.word	0x4037153f
    5cb4:	0624dd2f 	.word	0x0624dd2f
    5cb8:	40371581 	.word	0x40371581
    5cbc:	8f5c28f6 	.word	0x8f5c28f6
    5cc0:	403715c2 	.word	0x403715c2
    5cc4:	189374bc 	.word	0x189374bc
    5cc8:	40371604 	.word	0x40371604
    5ccc:	a1cac083 	.word	0xa1cac083
    5cd0:	40371645 	.word	0x40371645
    5cd4:	2b020c4a 	.word	0x2b020c4a
    5cd8:	40371687 	.word	0x40371687
    5cdc:	b4395810 	.word	0xb4395810
    5ce0:	403716c8 	.word	0x403716c8
    5ce4:	3d70a3d7 	.word	0x3d70a3d7
    5ce8:	4037170a 	.word	0x4037170a
    5cec:	c6a7ef9e 	.word	0xc6a7ef9e
    5cf0:	4037174b 	.word	0x4037174b
    5cf4:	4fdf3b64 	.word	0x4fdf3b64
    5cf8:	4037178d 	.word	0x4037178d
    5cfc:	d916872b 	.word	0xd916872b
    5d00:	403717ce 	.word	0x403717ce
    5d04:	624dd2f2 	.word	0x624dd2f2
    5d08:	40371810 	.word	0x40371810
    5d0c:	eb851eb8 	.word	0xeb851eb8
    5d10:	40371851 	.word	0x40371851
    5d14:	74bc6a7f 	.word	0x74bc6a7f
    5d18:	40371893 	.word	0x40371893
    5d1c:	fdf3b646 	.word	0xfdf3b646
    5d20:	403718d4 	.word	0x403718d4
    5d24:	872b020c 	.word	0x872b020c
    5d28:	40371916 	.word	0x40371916
    5d2c:	10624dd3 	.word	0x10624dd3
    5d30:	40371958 	.word	0x40371958
    5d34:	9999999a 	.word	0x9999999a
    5d38:	40371999 	.word	0x40371999
    5d3c:	22d0e560 	.word	0x22d0e560
    5d40:	403719db 	.word	0x403719db
    5d44:	ac083127 	.word	0xac083127
    5d48:	40371a1c 	.word	0x40371a1c
    5d4c:	353f7cee 	.word	0x353f7cee
    5d50:	40371a5e 	.word	0x40371a5e
    5d54:	be76c8b4 	.word	0xbe76c8b4
    5d58:	40371a9f 	.word	0x40371a9f
    5d5c:	47ae147b 	.word	0x47ae147b
    5d60:	40371ae1 	.word	0x40371ae1
    5d64:	d0e56042 	.word	0xd0e56042
    5d68:	40371b22 	.word	0x40371b22
    5d6c:	5a1cac08 	.word	0x5a1cac08
    5d70:	40371b64 	.word	0x40371b64
    5d74:	e353f7cf 	.word	0xe353f7cf
    5d78:	40371ba5 	.word	0x40371ba5
    5d7c:	6c8b4396 	.word	0x6c8b4396
    5d80:	40371be7 	.word	0x40371be7
    5d84:	f5c28f5c 	.word	0xf5c28f5c
    5d88:	40371c28 	.word	0x40371c28
    5d8c:	7ef9db23 	.word	0x7ef9db23
    5d90:	40371c6a 	.word	0x40371c6a
    5d94:	083126e9 	.word	0x083126e9
    5d98:	40371cac 	.word	0x40371cac
    5d9c:	916872b0 	.word	0x916872b0
    5da0:	40371ced 	.word	0x40371ced
    5da4:	1a9fbe77 	.word	0x1a9fbe77
    5da8:	40371d2f 	.word	0x40371d2f
    5dac:	a3d70a3d 	.word	0xa3d70a3d
    5db0:	40371d70 	.word	0x40371d70
    5db4:	2d0e5604 	.word	0x2d0e5604
    5db8:	40371db2 	.word	0x40371db2
    5dbc:	b645a1cb 	.word	0xb645a1cb
    5dc0:	40371df3 	.word	0x40371df3
    5dc4:	3f7ced91 	.word	0x3f7ced91
    5dc8:	40371e35 	.word	0x40371e35
    5dcc:	c8b43958 	.word	0xc8b43958
    5dd0:	40371e76 	.word	0x40371e76
    5dd4:	51eb851f 	.word	0x51eb851f
    5dd8:	40371eb8 	.word	0x40371eb8
    5ddc:	db22d0e5 	.word	0xdb22d0e5
    5de0:	40371ef9 	.word	0x40371ef9
    5de4:	645a1cac 	.word	0x645a1cac
    5de8:	40371f3b 	.word	0x40371f3b
    5dec:	ed916873 	.word	0xed916873
    5df0:	40371f7c 	.word	0x40371f7c
    5df4:	76c8b439 	.word	0x76c8b439
    5df8:	40371fbe 	.word	0x40371fbe
    5dfc:	00000000 	.word	0x00000000
    5e00:	40372000 	.word	0x40372000
    5e04:	89374bc7 	.word	0x89374bc7
    5e08:	40372041 	.word	0x40372041
    5e0c:	126e978d 	.word	0x126e978d
    5e10:	40372083 	.word	0x40372083
    5e14:	9ba5e354 	.word	0x9ba5e354
    5e18:	403720c4 	.word	0x403720c4
    5e1c:	89374bc7 	.word	0x89374bc7
    5e20:	40380041 	.word	0x40380041
    5e24:	126e978d 	.word	0x126e978d
    5e28:	40380083 	.word	0x40380083
    5e2c:	9ba5e354 	.word	0x9ba5e354
    5e30:	403800c4 	.word	0x403800c4
    5e34:	24dd2f1b 	.word	0x24dd2f1b
    5e38:	40380106 	.word	0x40380106
    5e3c:	ae147ae1 	.word	0xae147ae1
    5e40:	40380147 	.word	0x40380147
    5e44:	374bc6a8 	.word	0x374bc6a8
    5e48:	40380189 	.word	0x40380189
    5e4c:	c083126f 	.word	0xc083126f
    5e50:	403801ca 	.word	0x403801ca
    5e54:	49ba5e35 	.word	0x49ba5e35
    5e58:	4038020c 	.word	0x4038020c
    5e5c:	d2f1a9fc 	.word	0xd2f1a9fc
    5e60:	4038024d 	.word	0x4038024d
    5e64:	5c28f5c3 	.word	0x5c28f5c3
    5e68:	4038028f 	.word	0x4038028f
    5e6c:	e5604189 	.word	0xe5604189
    5e70:	403802d0 	.word	0x403802d0
    5e74:	6e978d50 	.word	0x6e978d50
    5e78:	40380312 	.word	0x40380312
    5e7c:	f7ced917 	.word	0xf7ced917
    5e80:	40380353 	.word	0x40380353
    5e84:	810624dd 	.word	0x810624dd
    5e88:	40380395 	.word	0x40380395
    5e8c:	0a3d70a4 	.word	0x0a3d70a4
    5e90:	403803d7 	.word	0x403803d7
    5e94:	9374bc6a 	.word	0x9374bc6a
    5e98:	40380418 	.word	0x40380418
    5e9c:	1cac0831 	.word	0x1cac0831
    5ea0:	4038045a 	.word	0x4038045a
    5ea4:	a5e353f8 	.word	0xa5e353f8
    5ea8:	4038049b 	.word	0x4038049b
    5eac:	2f1a9fbe 	.word	0x2f1a9fbe
    5eb0:	403804dd 	.word	0x403804dd
    5eb4:	b851eb85 	.word	0xb851eb85
    5eb8:	4038051e 	.word	0x4038051e
    5ebc:	4189374c 	.word	0x4189374c
    5ec0:	40380560 	.word	0x40380560
    5ec4:	cac08312 	.word	0xcac08312
    5ec8:	403805a1 	.word	0x403805a1
    5ecc:	53f7ced9 	.word	0x53f7ced9
    5ed0:	403805e3 	.word	0x403805e3
    5ed4:	dd2f1aa0 	.word	0xdd2f1aa0
    5ed8:	40380624 	.word	0x40380624
    5edc:	66666666 	.word	0x66666666
    5ee0:	40380666 	.word	0x40380666
    5ee4:	ef9db22d 	.word	0xef9db22d
    5ee8:	403806a7 	.word	0x403806a7
    5eec:	78d4fdf4 	.word	0x78d4fdf4
    5ef0:	403806e9 	.word	0x403806e9
    5ef4:	020c49ba 	.word	0x020c49ba
    5ef8:	4038072b 	.word	0x4038072b
    5efc:	8b439581 	.word	0x8b439581
    5f00:	4038076c 	.word	0x4038076c
    5f04:	147ae148 	.word	0x147ae148
    5f08:	403807ae 	.word	0x403807ae
    5f0c:	9db22d0e 	.word	0x9db22d0e
    5f10:	403807ef 	.word	0x403807ef
    5f14:	26e978d5 	.word	0x26e978d5
    5f18:	40380831 	.word	0x40380831
    5f1c:	b020c49c 	.word	0xb020c49c
    5f20:	40380872 	.word	0x40380872
    5f24:	39581062 	.word	0x39581062
    5f28:	403808b4 	.word	0x403808b4
    5f2c:	c28f5c29 	.word	0xc28f5c29
    5f30:	403808f5 	.word	0x403808f5
    5f34:	4bc6a7f0 	.word	0x4bc6a7f0
    5f38:	40380937 	.word	0x40380937
    5f3c:	d4fdf3b6 	.word	0xd4fdf3b6
    5f40:	40380978 	.word	0x40380978
    5f44:	5e353f7d 	.word	0x5e353f7d
    5f48:	403809ba 	.word	0x403809ba
    5f4c:	e76c8b44 	.word	0xe76c8b44
    5f50:	403809fb 	.word	0x403809fb
    5f54:	70a3d70a 	.word	0x70a3d70a
    5f58:	40380a3d 	.word	0x40380a3d
    5f5c:	f9db22d1 	.word	0xf9db22d1
    5f60:	40380a7e 	.word	0x40380a7e
    5f64:	83126e98 	.word	0x83126e98
    5f68:	40380ac0 	.word	0x40380ac0
    5f6c:	0c49ba5e 	.word	0x0c49ba5e
    5f70:	40380b02 	.word	0x40380b02
    5f74:	95810625 	.word	0x95810625
    5f78:	40380b43 	.word	0x40380b43
    5f7c:	1eb851ec 	.word	0x1eb851ec
    5f80:	40380b85 	.word	0x40380b85
    5f84:	a7ef9db2 	.word	0xa7ef9db2
    5f88:	40380bc6 	.word	0x40380bc6
    5f8c:	3126e979 	.word	0x3126e979
    5f90:	40380c08 	.word	0x40380c08
    5f94:	ba5e353f 	.word	0xba5e353f
    5f98:	40380c49 	.word	0x40380c49
    5f9c:	43958106 	.word	0x43958106
    5fa0:	40380c8b 	.word	0x40380c8b
    5fa4:	cccccccd 	.word	0xcccccccd
    5fa8:	40380ccc 	.word	0x40380ccc
    5fac:	56041893 	.word	0x56041893
    5fb0:	40380d0e 	.word	0x40380d0e
    5fb4:	df3b645a 	.word	0xdf3b645a
    5fb8:	40380d4f 	.word	0x40380d4f
    5fbc:	6872b021 	.word	0x6872b021
    5fc0:	40380d91 	.word	0x40380d91
    5fc4:	f1a9fbe7 	.word	0xf1a9fbe7
    5fc8:	40380dd2 	.word	0x40380dd2
    5fcc:	7ae147ae 	.word	0x7ae147ae
    5fd0:	40380e14 	.word	0x40380e14
    5fd4:	04189375 	.word	0x04189375
    5fd8:	40380e56 	.word	0x40380e56
    5fdc:	8d4fdf3b 	.word	0x8d4fdf3b
    5fe0:	40380e97 	.word	0x40380e97
    5fe4:	16872b02 	.word	0x16872b02
    5fe8:	40380ed9 	.word	0x40380ed9
    5fec:	9fbe76c9 	.word	0x9fbe76c9
    5ff0:	40380f1a 	.word	0x40380f1a
    5ff4:	28f5c28f 	.word	0x28f5c28f
    5ff8:	40380f5c 	.word	0x40380f5c
    5ffc:	b22d0e56 	.word	0xb22d0e56
    6000:	40380f9d 	.word	0x40380f9d
    6004:	3b645a1d 	.word	0x3b645a1d
    6008:	40380fdf 	.word	0x40380fdf
    600c:	c49ba5e3 	.word	0xc49ba5e3
    6010:	40381020 	.word	0x40381020
    6014:	4dd2f1aa 	.word	0x4dd2f1aa
    6018:	40381062 	.word	0x40381062
    601c:	d70a3d71 	.word	0xd70a3d71
    6020:	403810a3 	.word	0x403810a3
    6024:	60418937 	.word	0x60418937
    6028:	403810e5 	.word	0x403810e5
    602c:	e978d4fe 	.word	0xe978d4fe
    6030:	40381126 	.word	0x40381126
    6034:	72b020c5 	.word	0x72b020c5
    6038:	40381168 	.word	0x40381168
    603c:	fbe76c8b 	.word	0xfbe76c8b
    6040:	403811a9 	.word	0x403811a9
    6044:	851eb852 	.word	0x851eb852
    6048:	403811eb 	.word	0x403811eb
    604c:	0e560419 	.word	0x0e560419
    6050:	4038122d 	.word	0x4038122d
    6054:	978d4fdf 	.word	0x978d4fdf
    6058:	4038126e 	.word	0x4038126e
    605c:	20c49ba6 	.word	0x20c49ba6
    6060:	403812b0 	.word	0x403812b0
    6064:	a9fbe76d 	.word	0xa9fbe76d
    6068:	403812f1 	.word	0x403812f1
    606c:	33333333 	.word	0x33333333
    6070:	40381333 	.word	0x40381333
    6074:	bc6a7efa 	.word	0xbc6a7efa
    6078:	40381374 	.word	0x40381374
    607c:	45a1cac1 	.word	0x45a1cac1
    6080:	403813b6 	.word	0x403813b6
    6084:	ced91687 	.word	0xced91687
    6088:	403813f7 	.word	0x403813f7
    608c:	5810624e 	.word	0x5810624e
    6090:	40381439 	.word	0x40381439
    6094:	e147ae14 	.word	0xe147ae14
    6098:	4038147a 	.word	0x4038147a
    609c:	6a7ef9db 	.word	0x6a7ef9db
    60a0:	403814bc 	.word	0x403814bc
    60a4:	f3b645a2 	.word	0xf3b645a2
    60a8:	403814fd 	.word	0x403814fd
    60ac:	7ced9168 	.word	0x7ced9168
    60b0:	4038153f 	.word	0x4038153f
    60b4:	0624dd2f 	.word	0x0624dd2f
    60b8:	40381581 	.word	0x40381581
    60bc:	8f5c28f6 	.word	0x8f5c28f6
    60c0:	403815c2 	.word	0x403815c2
    60c4:	189374bc 	.word	0x189374bc
    60c8:	40381604 	.word	0x40381604
    60cc:	a1cac083 	.word	0xa1cac083
    60d0:	40381645 	.word	0x40381645
    60d4:	2b020c4a 	.word	0x2b020c4a
    60d8:	40381687 	.word	0x40381687
    60dc:	b4395810 	.word	0xb4395810
    60e0:	403816c8 	.word	0x403816c8
    60e4:	3d70a3d7 	.word	0x3d70a3d7
    60e8:	4038170a 	.word	0x4038170a
    60ec:	c6a7ef9e 	.word	0xc6a7ef9e
    60f0:	4038174b 	.word	0x4038174b
    60f4:	4fdf3b64 	.word	0x4fdf3b64
    60f8:	4038178d 	.word	0x4038178d
    60fc:	d916872b 	.word	0xd916872b
    6100:	403817ce 	.word	0x403817ce
    6104:	624dd2f2 	.word	0x624dd2f2
    6108:	40381810 	.word	0x40381810
    610c:	eb851eb8 	.word	0xeb851eb8
    6110:	40381851 	.word	0x40381851
    6114:	74bc6a7f 	.word	0x74bc6a7f
    6118:	40381893 	.word	0x40381893
    611c:	fdf3b646 	.word	0xfdf3b646
    6120:	403818d4 	.word	0x403818d4
    6124:	872b020c 	.word	0x872b020c
    6128:	40381916 	.word	0x40381916
    612c:	10624dd3 	.word	0x10624dd3
    6130:	40381958 	.word	0x40381958
    6134:	9999999a 	.word	0x9999999a
    6138:	40381999 	.word	0x40381999
    613c:	22d0e560 	.word	0x22d0e560
    6140:	403819db 	.word	0x403819db
    6144:	ac083127 	.word	0xac083127
    6148:	40381a1c 	.word	0x40381a1c
    614c:	353f7cee 	.word	0x353f7cee
    6150:	40381a5e 	.word	0x40381a5e
    6154:	be76c8b4 	.word	0xbe76c8b4
    6158:	40381a9f 	.word	0x40381a9f
    615c:	47ae147b 	.word	0x47ae147b
    6160:	40381ae1 	.word	0x40381ae1
    6164:	d0e56042 	.word	0xd0e56042
    6168:	40381b22 	.word	0x40381b22
    616c:	5a1cac08 	.word	0x5a1cac08
    6170:	40381b64 	.word	0x40381b64
    6174:	e353f7cf 	.word	0xe353f7cf
    6178:	40381ba5 	.word	0x40381ba5
    617c:	6c8b4396 	.word	0x6c8b4396
    6180:	40381be7 	.word	0x40381be7
    6184:	f5c28f5c 	.word	0xf5c28f5c
    6188:	40381c28 	.word	0x40381c28
    618c:	7ef9db23 	.word	0x7ef9db23
    6190:	40381c6a 	.word	0x40381c6a
    6194:	083126e9 	.word	0x083126e9
    6198:	40381cac 	.word	0x40381cac
    619c:	916872b0 	.word	0x916872b0
    61a0:	40381ced 	.word	0x40381ced
    61a4:	1a9fbe77 	.word	0x1a9fbe77
    61a8:	40381d2f 	.word	0x40381d2f
    61ac:	a3d70a3d 	.word	0xa3d70a3d
    61b0:	40381d70 	.word	0x40381d70
    61b4:	2d0e5604 	.word	0x2d0e5604
    61b8:	40381db2 	.word	0x40381db2
    61bc:	b645a1cb 	.word	0xb645a1cb
    61c0:	40381df3 	.word	0x40381df3
    61c4:	3f7ced91 	.word	0x3f7ced91
    61c8:	40381e35 	.word	0x40381e35
    61cc:	c8b43958 	.word	0xc8b43958
    61d0:	40381e76 	.word	0x40381e76
    61d4:	51eb851f 	.word	0x51eb851f
    61d8:	40381eb8 	.word	0x40381eb8
    61dc:	db22d0e5 	.word	0xdb22d0e5
    61e0:	40381ef9 	.word	0x40381ef9
    61e4:	645a1cac 	.word	0x645a1cac
    61e8:	40381f3b 	.word	0x40381f3b
    61ec:	ed916873 	.word	0xed916873
    61f0:	40381f7c 	.word	0x40381f7c
    61f4:	76c8b439 	.word	0x76c8b439
    61f8:	40381fbe 	.word	0x40381fbe
    61fc:	00000000 	.word	0x00000000
    6200:	40382000 	.word	0x40382000
    6204:	89374bc7 	.word	0x89374bc7
    6208:	40382041 	.word	0x40382041
    620c:	126e978d 	.word	0x126e978d
    6210:	40382083 	.word	0x40382083
    6214:	9ba5e354 	.word	0x9ba5e354
    6218:	403820c4 	.word	0x403820c4
    621c:	89374bc7 	.word	0x89374bc7
    6220:	40390041 	.word	0x40390041
    6224:	126e978d 	.word	0x126e978d
    6228:	40390083 	.word	0x40390083
    622c:	9ba5e354 	.word	0x9ba5e354
    6230:	403900c4 	.word	0x403900c4
    6234:	24dd2f1b 	.word	0x24dd2f1b
    6238:	40390106 	.word	0x40390106
    623c:	ae147ae1 	.word	0xae147ae1
    6240:	40390147 	.word	0x40390147
    6244:	374bc6a8 	.word	0x374bc6a8
    6248:	40390189 	.word	0x40390189
    624c:	c083126f 	.word	0xc083126f
    6250:	403901ca 	.word	0x403901ca
    6254:	49ba5e35 	.word	0x49ba5e35
    6258:	4039020c 	.word	0x4039020c
    625c:	d2f1a9fc 	.word	0xd2f1a9fc
    6260:	4039024d 	.word	0x4039024d
    6264:	5c28f5c3 	.word	0x5c28f5c3
    6268:	4039028f 	.word	0x4039028f
    626c:	e5604189 	.word	0xe5604189
    6270:	403902d0 	.word	0x403902d0
    6274:	6e978d50 	.word	0x6e978d50
    6278:	40390312 	.word	0x40390312
    627c:	f7ced917 	.word	0xf7ced917
    6280:	40390353 	.word	0x40390353
    6284:	810624dd 	.word	0x810624dd
    6288:	40390395 	.word	0x40390395
    628c:	0a3d70a4 	.word	0x0a3d70a4
    6290:	403903d7 	.word	0x403903d7
    6294:	9374bc6a 	.word	0x9374bc6a
    6298:	40390418 	.word	0x40390418
    629c:	1cac0831 	.word	0x1cac0831
    62a0:	4039045a 	.word	0x4039045a
    62a4:	a5e353f8 	.word	0xa5e353f8
    62a8:	4039049b 	.word	0x4039049b
    62ac:	2f1a9fbe 	.word	0x2f1a9fbe
    62b0:	403904dd 	.word	0x403904dd
    62b4:	b851eb85 	.word	0xb851eb85
    62b8:	4039051e 	.word	0x4039051e
    62bc:	4189374c 	.word	0x4189374c
    62c0:	40390560 	.word	0x40390560
    62c4:	cac08312 	.word	0xcac08312
    62c8:	403905a1 	.word	0x403905a1
    62cc:	53f7ced9 	.word	0x53f7ced9
    62d0:	403905e3 	.word	0x403905e3
    62d4:	dd2f1aa0 	.word	0xdd2f1aa0
    62d8:	40390624 	.word	0x40390624
    62dc:	66666666 	.word	0x66666666
    62e0:	40390666 	.word	0x40390666
    62e4:	ef9db22d 	.word	0xef9db22d
    62e8:	403906a7 	.word	0x403906a7
    62ec:	78d4fdf4 	.word	0x78d4fdf4
    62f0:	403906e9 	.word	0x403906e9
    62f4:	020c49ba 	.word	0x020c49ba
    62f8:	4039072b 	.word	0x4039072b
    62fc:	8b439581 	.word	0x8b439581
    6300:	4039076c 	.word	0x4039076c
    6304:	147ae148 	.word	0x147ae148
    6308:	403907ae 	.word	0x403907ae
    630c:	9db22d0e 	.word	0x9db22d0e
    6310:	403907ef 	.word	0x403907ef
    6314:	26e978d5 	.word	0x26e978d5
    6318:	40390831 	.word	0x40390831
    631c:	b020c49c 	.word	0xb020c49c
    6320:	40390872 	.word	0x40390872
    6324:	39581062 	.word	0x39581062
    6328:	403908b4 	.word	0x403908b4
    632c:	c28f5c29 	.word	0xc28f5c29
    6330:	403908f5 	.word	0x403908f5
    6334:	4bc6a7f0 	.word	0x4bc6a7f0
    6338:	40390937 	.word	0x40390937
    633c:	d4fdf3b6 	.word	0xd4fdf3b6
    6340:	40390978 	.word	0x40390978
    6344:	5e353f7d 	.word	0x5e353f7d
    6348:	403909ba 	.word	0x403909ba
    634c:	e76c8b44 	.word	0xe76c8b44
    6350:	403909fb 	.word	0x403909fb
    6354:	70a3d70a 	.word	0x70a3d70a
    6358:	40390a3d 	.word	0x40390a3d
    635c:	f9db22d1 	.word	0xf9db22d1
    6360:	40390a7e 	.word	0x40390a7e
    6364:	83126e98 	.word	0x83126e98
    6368:	40390ac0 	.word	0x40390ac0
    636c:	0c49ba5e 	.word	0x0c49ba5e
    6370:	40390b02 	.word	0x40390b02
    6374:	95810625 	.word	0x95810625
    6378:	40390b43 	.word	0x40390b43
    637c:	1eb851ec 	.word	0x1eb851ec
    6380:	40390b85 	.word	0x40390b85
    6384:	a7ef9db2 	.word	0xa7ef9db2
    6388:	40390bc6 	.word	0x40390bc6
    638c:	3126e979 	.word	0x3126e979
    6390:	40390c08 	.word	0x40390c08
    6394:	ba5e353f 	.word	0xba5e353f
    6398:	40390c49 	.word	0x40390c49
    639c:	43958106 	.word	0x43958106
    63a0:	40390c8b 	.word	0x40390c8b
    63a4:	cccccccd 	.word	0xcccccccd
    63a8:	40390ccc 	.word	0x40390ccc
    63ac:	56041893 	.word	0x56041893
    63b0:	40390d0e 	.word	0x40390d0e
    63b4:	df3b645a 	.word	0xdf3b645a
    63b8:	40390d4f 	.word	0x40390d4f
    63bc:	6872b021 	.word	0x6872b021
    63c0:	40390d91 	.word	0x40390d91
    63c4:	f1a9fbe7 	.word	0xf1a9fbe7
    63c8:	40390dd2 	.word	0x40390dd2
    63cc:	7ae147ae 	.word	0x7ae147ae
    63d0:	40390e14 	.word	0x40390e14
    63d4:	04189375 	.word	0x04189375
    63d8:	40390e56 	.word	0x40390e56
    63dc:	8d4fdf3b 	.word	0x8d4fdf3b
    63e0:	40390e97 	.word	0x40390e97
    63e4:	16872b02 	.word	0x16872b02
    63e8:	40390ed9 	.word	0x40390ed9
    63ec:	9fbe76c9 	.word	0x9fbe76c9
    63f0:	40390f1a 	.word	0x40390f1a
    63f4:	28f5c28f 	.word	0x28f5c28f
    63f8:	40390f5c 	.word	0x40390f5c
    63fc:	b22d0e56 	.word	0xb22d0e56
    6400:	40390f9d 	.word	0x40390f9d
    6404:	3b645a1d 	.word	0x3b645a1d
    6408:	40390fdf 	.word	0x40390fdf
    640c:	c49ba5e3 	.word	0xc49ba5e3
    6410:	40391020 	.word	0x40391020
    6414:	4dd2f1aa 	.word	0x4dd2f1aa
    6418:	40391062 	.word	0x40391062
    641c:	d70a3d71 	.word	0xd70a3d71
    6420:	403910a3 	.word	0x403910a3
    6424:	60418937 	.word	0x60418937
    6428:	403910e5 	.word	0x403910e5
    642c:	e978d4fe 	.word	0xe978d4fe
    6430:	40391126 	.word	0x40391126
    6434:	72b020c5 	.word	0x72b020c5
    6438:	40391168 	.word	0x40391168
    643c:	fbe76c8b 	.word	0xfbe76c8b
    6440:	403911a9 	.word	0x403911a9
    6444:	851eb852 	.word	0x851eb852
    6448:	403911eb 	.word	0x403911eb
    644c:	0e560419 	.word	0x0e560419
    6450:	4039122d 	.word	0x4039122d
    6454:	978d4fdf 	.word	0x978d4fdf
    6458:	4039126e 	.word	0x4039126e
    645c:	20c49ba6 	.word	0x20c49ba6
    6460:	403912b0 	.word	0x403912b0
    6464:	a9fbe76d 	.word	0xa9fbe76d
    6468:	403912f1 	.word	0x403912f1
    646c:	33333333 	.word	0x33333333
    6470:	40391333 	.word	0x40391333
    6474:	bc6a7efa 	.word	0xbc6a7efa
    6478:	40391374 	.word	0x40391374
    647c:	45a1cac1 	.word	0x45a1cac1
    6480:	403913b6 	.word	0x403913b6
    6484:	ced91687 	.word	0xced91687
    6488:	403913f7 	.word	0x403913f7
    648c:	5810624e 	.word	0x5810624e
    6490:	40391439 	.word	0x40391439
    6494:	e147ae14 	.word	0xe147ae14
    6498:	4039147a 	.word	0x4039147a
    649c:	6a7ef9db 	.word	0x6a7ef9db
    64a0:	403914bc 	.word	0x403914bc
    64a4:	f3b645a2 	.word	0xf3b645a2
    64a8:	403914fd 	.word	0x403914fd
    64ac:	7ced9168 	.word	0x7ced9168
    64b0:	4039153f 	.word	0x4039153f
    64b4:	0624dd2f 	.word	0x0624dd2f
    64b8:	40391581 	.word	0x40391581
    64bc:	8f5c28f6 	.word	0x8f5c28f6
    64c0:	403915c2 	.word	0x403915c2
    64c4:	189374bc 	.word	0x189374bc
    64c8:	40391604 	.word	0x40391604
    64cc:	a1cac083 	.word	0xa1cac083
    64d0:	40391645 	.word	0x40391645
    64d4:	2b020c4a 	.word	0x2b020c4a
    64d8:	40391687 	.word	0x40391687
    64dc:	b4395810 	.word	0xb4395810
    64e0:	403916c8 	.word	0x403916c8
    64e4:	3d70a3d7 	.word	0x3d70a3d7
    64e8:	4039170a 	.word	0x4039170a
    64ec:	c6a7ef9e 	.word	0xc6a7ef9e
    64f0:	4039174b 	.word	0x4039174b
    64f4:	4fdf3b64 	.word	0x4fdf3b64
    64f8:	4039178d 	.word	0x4039178d
    64fc:	d916872b 	.word	0xd916872b
    6500:	403917ce 	.word	0x403917ce
    6504:	624dd2f2 	.word	0x624dd2f2
    6508:	40391810 	.word	0x40391810
    650c:	eb851eb8 	.word	0xeb851eb8
    6510:	40391851 	.word	0x40391851
    6514:	74bc6a7f 	.word	0x74bc6a7f
    6518:	40391893 	.word	0x40391893
    651c:	fdf3b646 	.word	0xfdf3b646
    6520:	403918d4 	.word	0x403918d4
    6524:	872b020c 	.word	0x872b020c
    6528:	40391916 	.word	0x40391916
    652c:	10624dd3 	.word	0x10624dd3
    6530:	40391958 	.word	0x40391958
    6534:	9999999a 	.word	0x9999999a
    6538:	40391999 	.word	0x40391999
    653c:	22d0e560 	.word	0x22d0e560
    6540:	403919db 	.word	0x403919db
    6544:	ac083127 	.word	0xac083127
    6548:	40391a1c 	.word	0x40391a1c
    654c:	353f7cee 	.word	0x353f7cee
    6550:	40391a5e 	.word	0x40391a5e
    6554:	be76c8b4 	.word	0xbe76c8b4
    6558:	40391a9f 	.word	0x40391a9f
    655c:	47ae147b 	.word	0x47ae147b
    6560:	40391ae1 	.word	0x40391ae1
    6564:	d0e56042 	.word	0xd0e56042
    6568:	40391b22 	.word	0x40391b22
    656c:	5a1cac08 	.word	0x5a1cac08
    6570:	40391b64 	.word	0x40391b64
    6574:	e353f7cf 	.word	0xe353f7cf
    6578:	40391ba5 	.word	0x40391ba5
    657c:	6c8b4396 	.word	0x6c8b4396
    6580:	40391be7 	.word	0x40391be7
    6584:	f5c28f5c 	.word	0xf5c28f5c
    6588:	40391c28 	.word	0x40391c28
    658c:	7ef9db23 	.word	0x7ef9db23
    6590:	40391c6a 	.word	0x40391c6a
    6594:	083126e9 	.word	0x083126e9
    6598:	40391cac 	.word	0x40391cac
    659c:	916872b0 	.word	0x916872b0
    65a0:	40391ced 	.word	0x40391ced
    65a4:	1a9fbe77 	.word	0x1a9fbe77
    65a8:	40391d2f 	.word	0x40391d2f
    65ac:	a3d70a3d 	.word	0xa3d70a3d
    65b0:	40391d70 	.word	0x40391d70
    65b4:	2d0e5604 	.word	0x2d0e5604
    65b8:	40391db2 	.word	0x40391db2
    65bc:	b645a1cb 	.word	0xb645a1cb
    65c0:	40391df3 	.word	0x40391df3
    65c4:	3f7ced91 	.word	0x3f7ced91
    65c8:	40391e35 	.word	0x40391e35
    65cc:	c8b43958 	.word	0xc8b43958
    65d0:	40391e76 	.word	0x40391e76
    65d4:	51eb851f 	.word	0x51eb851f
    65d8:	40391eb8 	.word	0x40391eb8
    65dc:	db22d0e5 	.word	0xdb22d0e5
    65e0:	40391ef9 	.word	0x40391ef9
    65e4:	645a1cac 	.word	0x645a1cac
    65e8:	40391f3b 	.word	0x40391f3b
    65ec:	ed916873 	.word	0xed916873
    65f0:	40391f7c 	.word	0x40391f7c
    65f4:	76c8b439 	.word	0x76c8b439
    65f8:	40391fbe 	.word	0x40391fbe
    65fc:	00000000 	.word	0x00000000
    6600:	40392000 	.word	0x40392000
    6604:	89374bc7 	.word	0x89374bc7
    6608:	40392041 	.word	0x40392041
    660c:	126e978d 	.word	0x126e978d
    6610:	40392083 	.word	0x40392083
    6614:	9ba5e354 	.word	0x9ba5e354
    6618:	403920c4 	.word	0x403920c4
    661c:	89374bc7 	.word	0x89374bc7
    6620:	403a0041 	.word	0x403a0041
    6624:	126e978d 	.word	0x126e978d
    6628:	403a0083 	.word	0x403a0083
    662c:	9ba5e354 	.word	0x9ba5e354
    6630:	403a00c4 	.word	0x403a00c4
    6634:	24dd2f1b 	.word	0x24dd2f1b
    6638:	403a0106 	.word	0x403a0106
    663c:	ae147ae1 	.word	0xae147ae1
    6640:	403a0147 	.word	0x403a0147
    6644:	374bc6a8 	.word	0x374bc6a8
    6648:	403a0189 	.word	0x403a0189
    664c:	c083126f 	.word	0xc083126f
    6650:	403a01ca 	.word	0x403a01ca
    6654:	49ba5e35 	.word	0x49ba5e35
