
C:/Users/User/Desktop/Lab11part2/main.axf:     file format elf32-littlearm


Disassembly of section .text:

00000000 <__cs3_interrupt_vector>:

.text
.globl _start
_start:

	ldr r0, =Array_C128
       0:	e59f000c 	ldr	r0, [pc, #12]	; 14 <idle+0x4>
	ldr r1, =Array_A128
       4:	e59f100c 	ldr	r1, [pc, #12]	; 18 <idle+0x8>
	ldr r2, =Array_B128
       8:	e59f200c 	ldr	r2, [pc, #12]	; 1c <idle+0xc>

	bl mm
       c:	eb000003 	bl	20 <mm>

00000010 <idle>:

idle:
	b idle
      10:	eafffffe 	b	10 <idle>
      14:	000419a4 	.word	0x000419a4
      18:	000019a4 	.word	0x000019a4
      1c:	000219a4 	.word	0x000219a4

00000020 <mm>:
.global Array_A128
.global Array_B128
.global Array_C128

mm:
    SUB  sp,sp, #24     //  make room on stack for 3 registers
      20:	e24dd018 	sub	sp, sp, #24
    STR  r4, [sp, #20]  //  save r4 on stack
      24:	e58d4014 	str	r4, [sp, #20]
    STR  r5, [sp, #16]  //  save r5 on stack
      28:	e58d5010 	str	r5, [sp, #16]
    STR  r6,  [sp, #12] //  save r6 on stack
      2c:	e58d600c 	str	r6, [sp, #12]
    str r7, [sp, #8]
      30:	e58d7008 	str	r7, [sp, #8]
    str r8, [sp, #4]
      34:	e58d8004 	str	r8, [sp, #4]
    str r9, [sp, #0]
      38:	e58d9000 	str	r9, [sp]
    mov r7, #128 //value of N
      3c:	e3a07080 	mov	r7, #128	; 0x80
    MOV   r3,  #0   //  i = 0// initialize 1st for loop
      40:	e3a03000 	mov	r3, #0

00000044 <L1>:
L1: 
    MOV   r4,  #0  //  j = 0// restart 2nd for loop
      44:	e3a04000 	mov	r4, #0

00000048 <L2>:
L2: 
    MOV   r5,  #0  //  k = 0// restart 3rd for loop
      48:	e3a05000 	mov	r5, #0
    mul r9, r3, r7 //multiply i by row size (n)
      4c:	e0090793 	mul	r9, r3, r7
    add r6, r4, r9 //add the product and j to get address of xij
      50:	e0846009 	add	r6, r4, r9
    add r6, r0, r6, LSL #3 //convert into bytes
      54:	e0806186 	add	r6, r0, r6, lsl #3
      58:	ed964b00 	.word	0xed964b00

0000005c <L3>:
    .word 0b11101101100101100100101100000000 //0b = binary
    //FLDD d4, [xijAddr, #0] 
L3:
    mul r9, r5, r7
      5c:	e0090795 	mul	r9, r5, r7
    add r12, r4, r9
      60:	e084c009 	add	r12, r4, r9
    add r12, r2, r12, LSL#3
      64:	e082c18c 	add	r12, r2, r12, lsl #3
      68:	ed9c2b00 	.word	0xed9c2b00
    .word 0b11101101100111000010101100000000
    //FLDD d2, [tempAddr, #0]
    mul r9, r3, r7
      6c:	e0090793 	mul	r9, r3, r7
    add r12, r5, r9
      70:	e085c009 	add	r12, r5, r9
    add r12, r1, r12, LSL #3
      74:	e081c18c 	add	r12, r1, r12, lsl #3
      78:	ed9c6b00 	.word	0xed9c6b00
      7c:	ee262b02 	.word	0xee262b02
      80:	ee344b02 	.word	0xee344b02
    //FLDD d6, [tempAddr, #0]
    .word 0b11101110001001100010101100000010
    //FMULD d2, d6, d2
    .word 0b11101110001101000100101100000010
    //FADDD d4, d4, d2
    ADD r5, r5, #1
      84:	e2855001 	add	r5, r5, #1
    CMP r5, r7
      88:	e1550007 	cmp	r5, r7
    blt L3
      8c:	bafffff2 	blt	5c <L3>
      90:	ed864b00 	.word	0xed864b00
    .word 0b11101101100001100100101100000000
    //FSTD d4, [xijAddr, #0]
    add r4,r4, #1
      94:	e2844001 	add	r4, r4, #1
    cmp r4, r7
      98:	e1540007 	cmp	r4, r7
    blt L2
      9c:	baffffe9 	blt	48 <L2>
    add r3,r3, #1
      a0:	e2833001 	add	r3, r3, #1
    cmp r3, r7
      a4:	e1530007 	cmp	r3, r7
    blt L1
      a8:	baffffe5 	blt	44 <L1>


     ldr  r4, [sp, #20]  //  save r4 on stack
      ac:	e59d4014 	ldr	r4, [sp, #20]
    ldr  r5, [sp, #16]  //  save r5 on stack
      b0:	e59d5010 	ldr	r5, [sp, #16]
    ldr  r6,  [sp, #12] //  save r6 on stack
      b4:	e59d600c 	ldr	r6, [sp, #12]
    ldr r7, [sp, #8]
      b8:	e59d7008 	ldr	r7, [sp, #8]
    ldr r8, [sp, #4]
      bc:	e59d8004 	ldr	r8, [sp, #4]
    ldr r9, [sp, #0]
      c0:	e59d9000 	ldr	r9, [sp]

    add sp, sp, #24
      c4:	e28dd018 	add	sp, sp, #24

    mov pc, lr 
      c8:	e1a0f00e 	mov	pc, lr

000000cc <Array_A3>:
      cc:	9374bc6a 	.word	0x9374bc6a
      d0:	3ff00418 	.word	0x3ff00418
      d4:	26e978d5 	.word	0x26e978d5
      d8:	3ff00831 	.word	0x3ff00831
      dc:	ba5e353f 	.word	0xba5e353f
      e0:	3ff00c49 	.word	0x3ff00c49
      e4:	49ba5e35 	.word	0x49ba5e35
      e8:	4000020c 	.word	0x4000020c
      ec:	9374bc6a 	.word	0x9374bc6a
      f0:	40000418 	.word	0x40000418
      f4:	dd2f1aa0 	.word	0xdd2f1aa0
      f8:	40000624 	.word	0x40000624
      fc:	49ba5e35 	.word	0x49ba5e35
     100:	4008020c 	.word	0x4008020c
     104:	9374bc6a 	.word	0x9374bc6a
     108:	40080418 	.word	0x40080418
     10c:	dd2f1aa0 	.word	0xdd2f1aa0
     110:	40080624 	.word	0x40080624

00000114 <Array_B3>:
     114:	00000000 	.word	0x00000000
     118:	3ff00000 	.word	0x3ff00000
     11c:	00000000 	.word	0x00000000
     120:	3ff00000 	.word	0x3ff00000
     124:	00000000 	.word	0x00000000
     128:	3ff00000 	.word	0x3ff00000
     12c:	00000000 	.word	0x00000000
     130:	40000000 	.word	0x40000000
     134:	00000000 	.word	0x00000000
     138:	40000000 	.word	0x40000000
     13c:	00000000 	.word	0x00000000
     140:	40000000 	.word	0x40000000
     144:	00000000 	.word	0x00000000
     148:	40080000 	.word	0x40080000
     14c:	00000000 	.word	0x00000000
     150:	40080000 	.word	0x40080000
     154:	00000000 	.word	0x00000000
     158:	40080000 	.word	0x40080000

0000015c <Array_C3>:
	...

000001a4 <Array_A16>:
     1a4:	9374bc6a 	.word	0x9374bc6a
     1a8:	3ff00418 	.word	0x3ff00418
     1ac:	26e978d5 	.word	0x26e978d5
     1b0:	3ff00831 	.word	0x3ff00831
     1b4:	ba5e353f 	.word	0xba5e353f
     1b8:	3ff00c49 	.word	0x3ff00c49
     1bc:	4dd2f1aa 	.word	0x4dd2f1aa
     1c0:	3ff01062 	.word	0x3ff01062
     1c4:	e147ae14 	.word	0xe147ae14
     1c8:	3ff0147a 	.word	0x3ff0147a
     1cc:	74bc6a7f 	.word	0x74bc6a7f
     1d0:	3ff01893 	.word	0x3ff01893
     1d4:	083126e9 	.word	0x083126e9
     1d8:	3ff01cac 	.word	0x3ff01cac
     1dc:	9ba5e354 	.word	0x9ba5e354
     1e0:	3ff020c4 	.word	0x3ff020c4
     1e4:	2f1a9fbe 	.word	0x2f1a9fbe
     1e8:	3ff024dd 	.word	0x3ff024dd
     1ec:	c28f5c29 	.word	0xc28f5c29
     1f0:	3ff028f5 	.word	0x3ff028f5
     1f4:	56041893 	.word	0x56041893
     1f8:	3ff02d0e 	.word	0x3ff02d0e
     1fc:	e978d4fe 	.word	0xe978d4fe
     200:	3ff03126 	.word	0x3ff03126
     204:	7ced9168 	.word	0x7ced9168
     208:	3ff0353f 	.word	0x3ff0353f
     20c:	10624dd3 	.word	0x10624dd3
     210:	3ff03958 	.word	0x3ff03958
     214:	a3d70a3d 	.word	0xa3d70a3d
     218:	3ff03d70 	.word	0x3ff03d70
     21c:	374bc6a8 	.word	0x374bc6a8
     220:	3ff04189 	.word	0x3ff04189
     224:	49ba5e35 	.word	0x49ba5e35
     228:	4000020c 	.word	0x4000020c
     22c:	9374bc6a 	.word	0x9374bc6a
     230:	40000418 	.word	0x40000418
     234:	dd2f1aa0 	.word	0xdd2f1aa0
     238:	40000624 	.word	0x40000624
     23c:	26e978d5 	.word	0x26e978d5
     240:	40000831 	.word	0x40000831
     244:	70a3d70a 	.word	0x70a3d70a
     248:	40000a3d 	.word	0x40000a3d
     24c:	ba5e353f 	.word	0xba5e353f
     250:	40000c49 	.word	0x40000c49
     254:	04189375 	.word	0x04189375
     258:	40000e56 	.word	0x40000e56
     25c:	4dd2f1aa 	.word	0x4dd2f1aa
     260:	40001062 	.word	0x40001062
     264:	978d4fdf 	.word	0x978d4fdf
     268:	4000126e 	.word	0x4000126e
     26c:	e147ae14 	.word	0xe147ae14
     270:	4000147a 	.word	0x4000147a
     274:	2b020c4a 	.word	0x2b020c4a
     278:	40001687 	.word	0x40001687
     27c:	74bc6a7f 	.word	0x74bc6a7f
     280:	40001893 	.word	0x40001893
     284:	be76c8b4 	.word	0xbe76c8b4
     288:	40001a9f 	.word	0x40001a9f
     28c:	083126e9 	.word	0x083126e9
     290:	40001cac 	.word	0x40001cac
     294:	51eb851f 	.word	0x51eb851f
     298:	40001eb8 	.word	0x40001eb8
     29c:	9ba5e354 	.word	0x9ba5e354
     2a0:	400020c4 	.word	0x400020c4
     2a4:	49ba5e35 	.word	0x49ba5e35
     2a8:	4008020c 	.word	0x4008020c
     2ac:	9374bc6a 	.word	0x9374bc6a
     2b0:	40080418 	.word	0x40080418
     2b4:	dd2f1aa0 	.word	0xdd2f1aa0
     2b8:	40080624 	.word	0x40080624
     2bc:	26e978d5 	.word	0x26e978d5
     2c0:	40080831 	.word	0x40080831
     2c4:	70a3d70a 	.word	0x70a3d70a
     2c8:	40080a3d 	.word	0x40080a3d
     2cc:	ba5e353f 	.word	0xba5e353f
     2d0:	40080c49 	.word	0x40080c49
     2d4:	04189375 	.word	0x04189375
     2d8:	40080e56 	.word	0x40080e56
     2dc:	4dd2f1aa 	.word	0x4dd2f1aa
     2e0:	40081062 	.word	0x40081062
     2e4:	978d4fdf 	.word	0x978d4fdf
     2e8:	4008126e 	.word	0x4008126e
     2ec:	e147ae14 	.word	0xe147ae14
     2f0:	4008147a 	.word	0x4008147a
     2f4:	2b020c4a 	.word	0x2b020c4a
     2f8:	40081687 	.word	0x40081687
     2fc:	74bc6a7f 	.word	0x74bc6a7f
     300:	40081893 	.word	0x40081893
     304:	be76c8b4 	.word	0xbe76c8b4
     308:	40081a9f 	.word	0x40081a9f
     30c:	083126e9 	.word	0x083126e9
     310:	40081cac 	.word	0x40081cac
     314:	51eb851f 	.word	0x51eb851f
     318:	40081eb8 	.word	0x40081eb8
     31c:	9ba5e354 	.word	0x9ba5e354
     320:	400820c4 	.word	0x400820c4
     324:	24dd2f1b 	.word	0x24dd2f1b
     328:	40100106 	.word	0x40100106
     32c:	49ba5e35 	.word	0x49ba5e35
     330:	4010020c 	.word	0x4010020c
     334:	6e978d50 	.word	0x6e978d50
     338:	40100312 	.word	0x40100312
     33c:	9374bc6a 	.word	0x9374bc6a
     340:	40100418 	.word	0x40100418
     344:	b851eb85 	.word	0xb851eb85
     348:	4010051e 	.word	0x4010051e
     34c:	dd2f1aa0 	.word	0xdd2f1aa0
     350:	40100624 	.word	0x40100624
     354:	020c49ba 	.word	0x020c49ba
     358:	4010072b 	.word	0x4010072b
     35c:	26e978d5 	.word	0x26e978d5
     360:	40100831 	.word	0x40100831
     364:	4bc6a7f0 	.word	0x4bc6a7f0
     368:	40100937 	.word	0x40100937
     36c:	70a3d70a 	.word	0x70a3d70a
     370:	40100a3d 	.word	0x40100a3d
     374:	95810625 	.word	0x95810625
     378:	40100b43 	.word	0x40100b43
     37c:	ba5e353f 	.word	0xba5e353f
     380:	40100c49 	.word	0x40100c49
     384:	df3b645a 	.word	0xdf3b645a
     388:	40100d4f 	.word	0x40100d4f
     38c:	04189375 	.word	0x04189375
     390:	40100e56 	.word	0x40100e56
     394:	28f5c28f 	.word	0x28f5c28f
     398:	40100f5c 	.word	0x40100f5c
     39c:	4dd2f1aa 	.word	0x4dd2f1aa
     3a0:	40101062 	.word	0x40101062
     3a4:	24dd2f1b 	.word	0x24dd2f1b
     3a8:	40140106 	.word	0x40140106
     3ac:	49ba5e35 	.word	0x49ba5e35
     3b0:	4014020c 	.word	0x4014020c
     3b4:	6e978d50 	.word	0x6e978d50
     3b8:	40140312 	.word	0x40140312
     3bc:	9374bc6a 	.word	0x9374bc6a
     3c0:	40140418 	.word	0x40140418
     3c4:	b851eb85 	.word	0xb851eb85
     3c8:	4014051e 	.word	0x4014051e
     3cc:	dd2f1aa0 	.word	0xdd2f1aa0
     3d0:	40140624 	.word	0x40140624
     3d4:	020c49ba 	.word	0x020c49ba
     3d8:	4014072b 	.word	0x4014072b
     3dc:	26e978d5 	.word	0x26e978d5
     3e0:	40140831 	.word	0x40140831
     3e4:	4bc6a7f0 	.word	0x4bc6a7f0
     3e8:	40140937 	.word	0x40140937
     3ec:	70a3d70a 	.word	0x70a3d70a
     3f0:	40140a3d 	.word	0x40140a3d
     3f4:	95810625 	.word	0x95810625
     3f8:	40140b43 	.word	0x40140b43
     3fc:	ba5e353f 	.word	0xba5e353f
     400:	40140c49 	.word	0x40140c49
     404:	df3b645a 	.word	0xdf3b645a
     408:	40140d4f 	.word	0x40140d4f
     40c:	04189375 	.word	0x04189375
     410:	40140e56 	.word	0x40140e56
     414:	28f5c28f 	.word	0x28f5c28f
     418:	40140f5c 	.word	0x40140f5c
     41c:	4dd2f1aa 	.word	0x4dd2f1aa
     420:	40141062 	.word	0x40141062
     424:	24dd2f1b 	.word	0x24dd2f1b
     428:	40180106 	.word	0x40180106
     42c:	49ba5e35 	.word	0x49ba5e35
     430:	4018020c 	.word	0x4018020c
     434:	6e978d50 	.word	0x6e978d50
     438:	40180312 	.word	0x40180312
     43c:	9374bc6a 	.word	0x9374bc6a
     440:	40180418 	.word	0x40180418
     444:	b851eb85 	.word	0xb851eb85
     448:	4018051e 	.word	0x4018051e
     44c:	dd2f1aa0 	.word	0xdd2f1aa0
     450:	40180624 	.word	0x40180624
     454:	020c49ba 	.word	0x020c49ba
     458:	4018072b 	.word	0x4018072b
     45c:	26e978d5 	.word	0x26e978d5
     460:	40180831 	.word	0x40180831
     464:	4bc6a7f0 	.word	0x4bc6a7f0
     468:	40180937 	.word	0x40180937
     46c:	70a3d70a 	.word	0x70a3d70a
     470:	40180a3d 	.word	0x40180a3d
     474:	95810625 	.word	0x95810625
     478:	40180b43 	.word	0x40180b43
     47c:	ba5e353f 	.word	0xba5e353f
     480:	40180c49 	.word	0x40180c49
     484:	df3b645a 	.word	0xdf3b645a
     488:	40180d4f 	.word	0x40180d4f
     48c:	04189375 	.word	0x04189375
     490:	40180e56 	.word	0x40180e56
     494:	28f5c28f 	.word	0x28f5c28f
     498:	40180f5c 	.word	0x40180f5c
     49c:	4dd2f1aa 	.word	0x4dd2f1aa
     4a0:	40181062 	.word	0x40181062
     4a4:	24dd2f1b 	.word	0x24dd2f1b
     4a8:	401c0106 	.word	0x401c0106
     4ac:	49ba5e35 	.word	0x49ba5e35
     4b0:	401c020c 	.word	0x401c020c
     4b4:	6e978d50 	.word	0x6e978d50
     4b8:	401c0312 	.word	0x401c0312
     4bc:	9374bc6a 	.word	0x9374bc6a
     4c0:	401c0418 	.word	0x401c0418
     4c4:	b851eb85 	.word	0xb851eb85
     4c8:	401c051e 	.word	0x401c051e
     4cc:	dd2f1aa0 	.word	0xdd2f1aa0
     4d0:	401c0624 	.word	0x401c0624
     4d4:	020c49ba 	.word	0x020c49ba
     4d8:	401c072b 	.word	0x401c072b
     4dc:	26e978d5 	.word	0x26e978d5
     4e0:	401c0831 	.word	0x401c0831
     4e4:	4bc6a7f0 	.word	0x4bc6a7f0
     4e8:	401c0937 	.word	0x401c0937
     4ec:	70a3d70a 	.word	0x70a3d70a
     4f0:	401c0a3d 	.word	0x401c0a3d
     4f4:	95810625 	.word	0x95810625
     4f8:	401c0b43 	.word	0x401c0b43
     4fc:	ba5e353f 	.word	0xba5e353f
     500:	401c0c49 	.word	0x401c0c49
     504:	df3b645a 	.word	0xdf3b645a
     508:	401c0d4f 	.word	0x401c0d4f
     50c:	04189375 	.word	0x04189375
     510:	401c0e56 	.word	0x401c0e56
     514:	28f5c28f 	.word	0x28f5c28f
     518:	401c0f5c 	.word	0x401c0f5c
     51c:	4dd2f1aa 	.word	0x4dd2f1aa
     520:	401c1062 	.word	0x401c1062
     524:	126e978d 	.word	0x126e978d
     528:	40200083 	.word	0x40200083
     52c:	24dd2f1b 	.word	0x24dd2f1b
     530:	40200106 	.word	0x40200106
     534:	374bc6a8 	.word	0x374bc6a8
     538:	40200189 	.word	0x40200189
     53c:	49ba5e35 	.word	0x49ba5e35
     540:	4020020c 	.word	0x4020020c
     544:	5c28f5c3 	.word	0x5c28f5c3
     548:	4020028f 	.word	0x4020028f
     54c:	6e978d50 	.word	0x6e978d50
     550:	40200312 	.word	0x40200312
     554:	810624dd 	.word	0x810624dd
     558:	40200395 	.word	0x40200395
     55c:	9374bc6a 	.word	0x9374bc6a
     560:	40200418 	.word	0x40200418
     564:	a5e353f8 	.word	0xa5e353f8
     568:	4020049b 	.word	0x4020049b
     56c:	b851eb85 	.word	0xb851eb85
     570:	4020051e 	.word	0x4020051e
     574:	cac08312 	.word	0xcac08312
     578:	402005a1 	.word	0x402005a1
     57c:	dd2f1aa0 	.word	0xdd2f1aa0
     580:	40200624 	.word	0x40200624
     584:	ef9db22d 	.word	0xef9db22d
     588:	402006a7 	.word	0x402006a7
     58c:	020c49ba 	.word	0x020c49ba
     590:	4020072b 	.word	0x4020072b
     594:	147ae148 	.word	0x147ae148
     598:	402007ae 	.word	0x402007ae
     59c:	26e978d5 	.word	0x26e978d5
     5a0:	40200831 	.word	0x40200831
     5a4:	126e978d 	.word	0x126e978d
     5a8:	40220083 	.word	0x40220083
     5ac:	24dd2f1b 	.word	0x24dd2f1b
     5b0:	40220106 	.word	0x40220106
     5b4:	374bc6a8 	.word	0x374bc6a8
     5b8:	40220189 	.word	0x40220189
     5bc:	49ba5e35 	.word	0x49ba5e35
     5c0:	4022020c 	.word	0x4022020c
     5c4:	5c28f5c3 	.word	0x5c28f5c3
     5c8:	4022028f 	.word	0x4022028f
     5cc:	6e978d50 	.word	0x6e978d50
     5d0:	40220312 	.word	0x40220312
     5d4:	810624dd 	.word	0x810624dd
     5d8:	40220395 	.word	0x40220395
     5dc:	9374bc6a 	.word	0x9374bc6a
     5e0:	40220418 	.word	0x40220418
     5e4:	a5e353f8 	.word	0xa5e353f8
     5e8:	4022049b 	.word	0x4022049b
     5ec:	b851eb85 	.word	0xb851eb85
     5f0:	4022051e 	.word	0x4022051e
     5f4:	cac08312 	.word	0xcac08312
     5f8:	402205a1 	.word	0x402205a1
     5fc:	dd2f1aa0 	.word	0xdd2f1aa0
     600:	40220624 	.word	0x40220624
     604:	ef9db22d 	.word	0xef9db22d
     608:	402206a7 	.word	0x402206a7
     60c:	020c49ba 	.word	0x020c49ba
     610:	4022072b 	.word	0x4022072b
     614:	147ae148 	.word	0x147ae148
     618:	402207ae 	.word	0x402207ae
     61c:	26e978d5 	.word	0x26e978d5
     620:	40220831 	.word	0x40220831
     624:	126e978d 	.word	0x126e978d
     628:	40240083 	.word	0x40240083
     62c:	24dd2f1b 	.word	0x24dd2f1b
     630:	40240106 	.word	0x40240106
     634:	374bc6a8 	.word	0x374bc6a8
     638:	40240189 	.word	0x40240189
     63c:	49ba5e35 	.word	0x49ba5e35
     640:	4024020c 	.word	0x4024020c
     644:	5c28f5c3 	.word	0x5c28f5c3
     648:	4024028f 	.word	0x4024028f
     64c:	6e978d50 	.word	0x6e978d50
     650:	40240312 	.word	0x40240312
     654:	810624dd 	.word	0x810624dd
     658:	40240395 	.word	0x40240395
     65c:	9374bc6a 	.word	0x9374bc6a
     660:	40240418 	.word	0x40240418
     664:	a5e353f8 	.word	0xa5e353f8
     668:	4024049b 	.word	0x4024049b
     66c:	b851eb85 	.word	0xb851eb85
     670:	4024051e 	.word	0x4024051e
     674:	cac08312 	.word	0xcac08312
     678:	402405a1 	.word	0x402405a1
     67c:	dd2f1aa0 	.word	0xdd2f1aa0
     680:	40240624 	.word	0x40240624
     684:	ef9db22d 	.word	0xef9db22d
     688:	402406a7 	.word	0x402406a7
     68c:	020c49ba 	.word	0x020c49ba
     690:	4024072b 	.word	0x4024072b
     694:	147ae148 	.word	0x147ae148
     698:	402407ae 	.word	0x402407ae
     69c:	26e978d5 	.word	0x26e978d5
     6a0:	40240831 	.word	0x40240831
     6a4:	126e978d 	.word	0x126e978d
     6a8:	40260083 	.word	0x40260083
     6ac:	24dd2f1b 	.word	0x24dd2f1b
     6b0:	40260106 	.word	0x40260106
     6b4:	374bc6a8 	.word	0x374bc6a8
     6b8:	40260189 	.word	0x40260189
     6bc:	49ba5e35 	.word	0x49ba5e35
     6c0:	4026020c 	.word	0x4026020c
     6c4:	5c28f5c3 	.word	0x5c28f5c3
     6c8:	4026028f 	.word	0x4026028f
     6cc:	6e978d50 	.word	0x6e978d50
     6d0:	40260312 	.word	0x40260312
     6d4:	810624dd 	.word	0x810624dd
     6d8:	40260395 	.word	0x40260395
     6dc:	9374bc6a 	.word	0x9374bc6a
     6e0:	40260418 	.word	0x40260418
     6e4:	a5e353f8 	.word	0xa5e353f8
     6e8:	4026049b 	.word	0x4026049b
     6ec:	b851eb85 	.word	0xb851eb85
     6f0:	4026051e 	.word	0x4026051e
     6f4:	cac08312 	.word	0xcac08312
     6f8:	402605a1 	.word	0x402605a1
     6fc:	dd2f1aa0 	.word	0xdd2f1aa0
     700:	40260624 	.word	0x40260624
     704:	ef9db22d 	.word	0xef9db22d
     708:	402606a7 	.word	0x402606a7
     70c:	020c49ba 	.word	0x020c49ba
     710:	4026072b 	.word	0x4026072b
     714:	147ae148 	.word	0x147ae148
     718:	402607ae 	.word	0x402607ae
     71c:	26e978d5 	.word	0x26e978d5
     720:	40260831 	.word	0x40260831
     724:	126e978d 	.word	0x126e978d
     728:	40280083 	.word	0x40280083
     72c:	24dd2f1b 	.word	0x24dd2f1b
     730:	40280106 	.word	0x40280106
     734:	374bc6a8 	.word	0x374bc6a8
     738:	40280189 	.word	0x40280189
     73c:	49ba5e35 	.word	0x49ba5e35
     740:	4028020c 	.word	0x4028020c
     744:	5c28f5c3 	.word	0x5c28f5c3
     748:	4028028f 	.word	0x4028028f
     74c:	6e978d50 	.word	0x6e978d50
     750:	40280312 	.word	0x40280312
     754:	810624dd 	.word	0x810624dd
     758:	40280395 	.word	0x40280395
     75c:	9374bc6a 	.word	0x9374bc6a
     760:	40280418 	.word	0x40280418
     764:	a5e353f8 	.word	0xa5e353f8
     768:	4028049b 	.word	0x4028049b
     76c:	b851eb85 	.word	0xb851eb85
     770:	4028051e 	.word	0x4028051e
     774:	cac08312 	.word	0xcac08312
     778:	402805a1 	.word	0x402805a1
     77c:	dd2f1aa0 	.word	0xdd2f1aa0
     780:	40280624 	.word	0x40280624
     784:	ef9db22d 	.word	0xef9db22d
     788:	402806a7 	.word	0x402806a7
     78c:	020c49ba 	.word	0x020c49ba
     790:	4028072b 	.word	0x4028072b
     794:	147ae148 	.word	0x147ae148
     798:	402807ae 	.word	0x402807ae
     79c:	26e978d5 	.word	0x26e978d5
     7a0:	40280831 	.word	0x40280831
     7a4:	126e978d 	.word	0x126e978d
     7a8:	402a0083 	.word	0x402a0083
     7ac:	24dd2f1b 	.word	0x24dd2f1b
     7b0:	402a0106 	.word	0x402a0106
     7b4:	374bc6a8 	.word	0x374bc6a8
     7b8:	402a0189 	.word	0x402a0189
     7bc:	49ba5e35 	.word	0x49ba5e35
     7c0:	402a020c 	.word	0x402a020c
     7c4:	5c28f5c3 	.word	0x5c28f5c3
     7c8:	402a028f 	.word	0x402a028f
     7cc:	6e978d50 	.word	0x6e978d50
     7d0:	402a0312 	.word	0x402a0312
     7d4:	810624dd 	.word	0x810624dd
     7d8:	402a0395 	.word	0x402a0395
     7dc:	9374bc6a 	.word	0x9374bc6a
     7e0:	402a0418 	.word	0x402a0418
     7e4:	a5e353f8 	.word	0xa5e353f8
     7e8:	402a049b 	.word	0x402a049b
     7ec:	b851eb85 	.word	0xb851eb85
     7f0:	402a051e 	.word	0x402a051e
     7f4:	cac08312 	.word	0xcac08312
     7f8:	402a05a1 	.word	0x402a05a1
     7fc:	dd2f1aa0 	.word	0xdd2f1aa0
     800:	402a0624 	.word	0x402a0624
     804:	ef9db22d 	.word	0xef9db22d
     808:	402a06a7 	.word	0x402a06a7
     80c:	020c49ba 	.word	0x020c49ba
     810:	402a072b 	.word	0x402a072b
     814:	147ae148 	.word	0x147ae148
     818:	402a07ae 	.word	0x402a07ae
     81c:	26e978d5 	.word	0x26e978d5
     820:	402a0831 	.word	0x402a0831
     824:	126e978d 	.word	0x126e978d
     828:	402c0083 	.word	0x402c0083
     82c:	24dd2f1b 	.word	0x24dd2f1b
     830:	402c0106 	.word	0x402c0106
     834:	374bc6a8 	.word	0x374bc6a8
     838:	402c0189 	.word	0x402c0189
     83c:	49ba5e35 	.word	0x49ba5e35
     840:	402c020c 	.word	0x402c020c
     844:	5c28f5c3 	.word	0x5c28f5c3
     848:	402c028f 	.word	0x402c028f
     84c:	6e978d50 	.word	0x6e978d50
     850:	402c0312 	.word	0x402c0312
     854:	810624dd 	.word	0x810624dd
     858:	402c0395 	.word	0x402c0395
     85c:	9374bc6a 	.word	0x9374bc6a
     860:	402c0418 	.word	0x402c0418
     864:	a5e353f8 	.word	0xa5e353f8
     868:	402c049b 	.word	0x402c049b
     86c:	b851eb85 	.word	0xb851eb85
     870:	402c051e 	.word	0x402c051e
     874:	cac08312 	.word	0xcac08312
     878:	402c05a1 	.word	0x402c05a1
     87c:	dd2f1aa0 	.word	0xdd2f1aa0
     880:	402c0624 	.word	0x402c0624
     884:	ef9db22d 	.word	0xef9db22d
     888:	402c06a7 	.word	0x402c06a7
     88c:	020c49ba 	.word	0x020c49ba
     890:	402c072b 	.word	0x402c072b
     894:	147ae148 	.word	0x147ae148
     898:	402c07ae 	.word	0x402c07ae
     89c:	26e978d5 	.word	0x26e978d5
     8a0:	402c0831 	.word	0x402c0831
     8a4:	126e978d 	.word	0x126e978d
     8a8:	402e0083 	.word	0x402e0083
     8ac:	24dd2f1b 	.word	0x24dd2f1b
     8b0:	402e0106 	.word	0x402e0106
     8b4:	374bc6a8 	.word	0x374bc6a8
     8b8:	402e0189 	.word	0x402e0189
     8bc:	49ba5e35 	.word	0x49ba5e35
     8c0:	402e020c 	.word	0x402e020c
     8c4:	5c28f5c3 	.word	0x5c28f5c3
     8c8:	402e028f 	.word	0x402e028f
     8cc:	6e978d50 	.word	0x6e978d50
     8d0:	402e0312 	.word	0x402e0312
     8d4:	810624dd 	.word	0x810624dd
     8d8:	402e0395 	.word	0x402e0395
     8dc:	9374bc6a 	.word	0x9374bc6a
     8e0:	402e0418 	.word	0x402e0418
     8e4:	a5e353f8 	.word	0xa5e353f8
     8e8:	402e049b 	.word	0x402e049b
     8ec:	b851eb85 	.word	0xb851eb85
     8f0:	402e051e 	.word	0x402e051e
     8f4:	cac08312 	.word	0xcac08312
     8f8:	402e05a1 	.word	0x402e05a1
     8fc:	dd2f1aa0 	.word	0xdd2f1aa0
     900:	402e0624 	.word	0x402e0624
     904:	ef9db22d 	.word	0xef9db22d
     908:	402e06a7 	.word	0x402e06a7
     90c:	020c49ba 	.word	0x020c49ba
     910:	402e072b 	.word	0x402e072b
     914:	147ae148 	.word	0x147ae148
     918:	402e07ae 	.word	0x402e07ae
     91c:	26e978d5 	.word	0x26e978d5
     920:	402e0831 	.word	0x402e0831
     924:	89374bc7 	.word	0x89374bc7
     928:	40300041 	.word	0x40300041
     92c:	126e978d 	.word	0x126e978d
     930:	40300083 	.word	0x40300083
     934:	9ba5e354 	.word	0x9ba5e354
     938:	403000c4 	.word	0x403000c4
     93c:	24dd2f1b 	.word	0x24dd2f1b
     940:	40300106 	.word	0x40300106
     944:	ae147ae1 	.word	0xae147ae1
     948:	40300147 	.word	0x40300147
     94c:	374bc6a8 	.word	0x374bc6a8
     950:	40300189 	.word	0x40300189
     954:	c083126f 	.word	0xc083126f
     958:	403001ca 	.word	0x403001ca
     95c:	49ba5e35 	.word	0x49ba5e35
     960:	4030020c 	.word	0x4030020c
     964:	d2f1a9fc 	.word	0xd2f1a9fc
     968:	4030024d 	.word	0x4030024d
     96c:	5c28f5c3 	.word	0x5c28f5c3
     970:	4030028f 	.word	0x4030028f
     974:	e5604189 	.word	0xe5604189
     978:	403002d0 	.word	0x403002d0
     97c:	6e978d50 	.word	0x6e978d50
     980:	40300312 	.word	0x40300312
     984:	f7ced917 	.word	0xf7ced917
     988:	40300353 	.word	0x40300353
     98c:	810624dd 	.word	0x810624dd
     990:	40300395 	.word	0x40300395
     994:	0a3d70a4 	.word	0x0a3d70a4
     998:	403003d7 	.word	0x403003d7
     99c:	9374bc6a 	.word	0x9374bc6a
     9a0:	40300418 	.word	0x40300418

000009a4 <Array_B16>:
     9a4:	00000000 	.word	0x00000000
     9a8:	3ff00000 	.word	0x3ff00000
     9ac:	00000000 	.word	0x00000000
     9b0:	3ff00000 	.word	0x3ff00000
     9b4:	00000000 	.word	0x00000000
     9b8:	3ff00000 	.word	0x3ff00000
     9bc:	00000000 	.word	0x00000000
     9c0:	3ff00000 	.word	0x3ff00000
     9c4:	00000000 	.word	0x00000000
     9c8:	3ff00000 	.word	0x3ff00000
     9cc:	00000000 	.word	0x00000000
     9d0:	3ff00000 	.word	0x3ff00000
     9d4:	00000000 	.word	0x00000000
     9d8:	3ff00000 	.word	0x3ff00000
     9dc:	00000000 	.word	0x00000000
     9e0:	3ff00000 	.word	0x3ff00000
     9e4:	00000000 	.word	0x00000000
     9e8:	3ff00000 	.word	0x3ff00000
     9ec:	00000000 	.word	0x00000000
     9f0:	3ff00000 	.word	0x3ff00000
     9f4:	00000000 	.word	0x00000000
     9f8:	3ff00000 	.word	0x3ff00000
     9fc:	00000000 	.word	0x00000000
     a00:	3ff00000 	.word	0x3ff00000
     a04:	00000000 	.word	0x00000000
     a08:	3ff00000 	.word	0x3ff00000
     a0c:	00000000 	.word	0x00000000
     a10:	3ff00000 	.word	0x3ff00000
     a14:	00000000 	.word	0x00000000
     a18:	3ff00000 	.word	0x3ff00000
     a1c:	00000000 	.word	0x00000000
     a20:	3ff00000 	.word	0x3ff00000
     a24:	00000000 	.word	0x00000000
     a28:	40000000 	.word	0x40000000
     a2c:	00000000 	.word	0x00000000
     a30:	40000000 	.word	0x40000000
     a34:	00000000 	.word	0x00000000
     a38:	40000000 	.word	0x40000000
     a3c:	00000000 	.word	0x00000000
     a40:	40000000 	.word	0x40000000
     a44:	00000000 	.word	0x00000000
     a48:	40000000 	.word	0x40000000
     a4c:	00000000 	.word	0x00000000
     a50:	40000000 	.word	0x40000000
     a54:	00000000 	.word	0x00000000
     a58:	40000000 	.word	0x40000000
     a5c:	00000000 	.word	0x00000000
     a60:	40000000 	.word	0x40000000
     a64:	00000000 	.word	0x00000000
     a68:	40000000 	.word	0x40000000
     a6c:	00000000 	.word	0x00000000
     a70:	40000000 	.word	0x40000000
     a74:	00000000 	.word	0x00000000
     a78:	40000000 	.word	0x40000000
     a7c:	00000000 	.word	0x00000000
     a80:	40000000 	.word	0x40000000
     a84:	00000000 	.word	0x00000000
     a88:	40000000 	.word	0x40000000
     a8c:	00000000 	.word	0x00000000
     a90:	40000000 	.word	0x40000000
     a94:	00000000 	.word	0x00000000
     a98:	40000000 	.word	0x40000000
     a9c:	00000000 	.word	0x00000000
     aa0:	40000000 	.word	0x40000000
     aa4:	00000000 	.word	0x00000000
     aa8:	40080000 	.word	0x40080000
     aac:	00000000 	.word	0x00000000
     ab0:	40080000 	.word	0x40080000
     ab4:	00000000 	.word	0x00000000
     ab8:	40080000 	.word	0x40080000
     abc:	00000000 	.word	0x00000000
     ac0:	40080000 	.word	0x40080000
     ac4:	00000000 	.word	0x00000000
     ac8:	40080000 	.word	0x40080000
     acc:	00000000 	.word	0x00000000
     ad0:	40080000 	.word	0x40080000
     ad4:	00000000 	.word	0x00000000
     ad8:	40080000 	.word	0x40080000
     adc:	00000000 	.word	0x00000000
     ae0:	40080000 	.word	0x40080000
     ae4:	00000000 	.word	0x00000000
     ae8:	40080000 	.word	0x40080000
     aec:	00000000 	.word	0x00000000
     af0:	40080000 	.word	0x40080000
     af4:	00000000 	.word	0x00000000
     af8:	40080000 	.word	0x40080000
     afc:	00000000 	.word	0x00000000
     b00:	40080000 	.word	0x40080000
     b04:	00000000 	.word	0x00000000
     b08:	40080000 	.word	0x40080000
     b0c:	00000000 	.word	0x00000000
     b10:	40080000 	.word	0x40080000
     b14:	00000000 	.word	0x00000000
     b18:	40080000 	.word	0x40080000
     b1c:	00000000 	.word	0x00000000
     b20:	40080000 	.word	0x40080000
     b24:	00000000 	.word	0x00000000
     b28:	40100000 	.word	0x40100000
     b2c:	00000000 	.word	0x00000000
     b30:	40100000 	.word	0x40100000
     b34:	00000000 	.word	0x00000000
     b38:	40100000 	.word	0x40100000
     b3c:	00000000 	.word	0x00000000
     b40:	40100000 	.word	0x40100000
     b44:	00000000 	.word	0x00000000
     b48:	40100000 	.word	0x40100000
     b4c:	00000000 	.word	0x00000000
     b50:	40100000 	.word	0x40100000
     b54:	00000000 	.word	0x00000000
     b58:	40100000 	.word	0x40100000
     b5c:	00000000 	.word	0x00000000
     b60:	40100000 	.word	0x40100000
     b64:	00000000 	.word	0x00000000
     b68:	40100000 	.word	0x40100000
     b6c:	00000000 	.word	0x00000000
     b70:	40100000 	.word	0x40100000
     b74:	00000000 	.word	0x00000000
     b78:	40100000 	.word	0x40100000
     b7c:	00000000 	.word	0x00000000
     b80:	40100000 	.word	0x40100000
     b84:	00000000 	.word	0x00000000
     b88:	40100000 	.word	0x40100000
     b8c:	00000000 	.word	0x00000000
     b90:	40100000 	.word	0x40100000
     b94:	00000000 	.word	0x00000000
     b98:	40100000 	.word	0x40100000
     b9c:	00000000 	.word	0x00000000
     ba0:	40100000 	.word	0x40100000
     ba4:	00000000 	.word	0x00000000
     ba8:	40140000 	.word	0x40140000
     bac:	00000000 	.word	0x00000000
     bb0:	40140000 	.word	0x40140000
     bb4:	00000000 	.word	0x00000000
     bb8:	40140000 	.word	0x40140000
     bbc:	00000000 	.word	0x00000000
     bc0:	40140000 	.word	0x40140000
     bc4:	00000000 	.word	0x00000000
     bc8:	40140000 	.word	0x40140000
     bcc:	00000000 	.word	0x00000000
     bd0:	40140000 	.word	0x40140000
     bd4:	00000000 	.word	0x00000000
     bd8:	40140000 	.word	0x40140000
     bdc:	00000000 	.word	0x00000000
     be0:	40140000 	.word	0x40140000
     be4:	00000000 	.word	0x00000000
     be8:	40140000 	.word	0x40140000
     bec:	00000000 	.word	0x00000000
     bf0:	40140000 	.word	0x40140000
     bf4:	00000000 	.word	0x00000000
     bf8:	40140000 	.word	0x40140000
     bfc:	00000000 	.word	0x00000000
     c00:	40140000 	.word	0x40140000
     c04:	00000000 	.word	0x00000000
     c08:	40140000 	.word	0x40140000
     c0c:	00000000 	.word	0x00000000
     c10:	40140000 	.word	0x40140000
     c14:	00000000 	.word	0x00000000
     c18:	40140000 	.word	0x40140000
     c1c:	00000000 	.word	0x00000000
     c20:	40140000 	.word	0x40140000
     c24:	00000000 	.word	0x00000000
     c28:	40180000 	.word	0x40180000
     c2c:	00000000 	.word	0x00000000
     c30:	40180000 	.word	0x40180000
     c34:	00000000 	.word	0x00000000
     c38:	40180000 	.word	0x40180000
     c3c:	00000000 	.word	0x00000000
     c40:	40180000 	.word	0x40180000
     c44:	00000000 	.word	0x00000000
     c48:	40180000 	.word	0x40180000
     c4c:	00000000 	.word	0x00000000
     c50:	40180000 	.word	0x40180000
     c54:	00000000 	.word	0x00000000
     c58:	40180000 	.word	0x40180000
     c5c:	00000000 	.word	0x00000000
     c60:	40180000 	.word	0x40180000
     c64:	00000000 	.word	0x00000000
     c68:	40180000 	.word	0x40180000
     c6c:	00000000 	.word	0x00000000
     c70:	40180000 	.word	0x40180000
     c74:	00000000 	.word	0x00000000
     c78:	40180000 	.word	0x40180000
     c7c:	00000000 	.word	0x00000000
     c80:	40180000 	.word	0x40180000
     c84:	00000000 	.word	0x00000000
     c88:	40180000 	.word	0x40180000
     c8c:	00000000 	.word	0x00000000
     c90:	40180000 	.word	0x40180000
     c94:	00000000 	.word	0x00000000
     c98:	40180000 	.word	0x40180000
     c9c:	00000000 	.word	0x00000000
     ca0:	40180000 	.word	0x40180000
     ca4:	00000000 	.word	0x00000000
     ca8:	401c0000 	.word	0x401c0000
     cac:	00000000 	.word	0x00000000
     cb0:	401c0000 	.word	0x401c0000
     cb4:	00000000 	.word	0x00000000
     cb8:	401c0000 	.word	0x401c0000
     cbc:	00000000 	.word	0x00000000
     cc0:	401c0000 	.word	0x401c0000
     cc4:	00000000 	.word	0x00000000
     cc8:	401c0000 	.word	0x401c0000
     ccc:	00000000 	.word	0x00000000
     cd0:	401c0000 	.word	0x401c0000
     cd4:	00000000 	.word	0x00000000
     cd8:	401c0000 	.word	0x401c0000
     cdc:	00000000 	.word	0x00000000
     ce0:	401c0000 	.word	0x401c0000
     ce4:	00000000 	.word	0x00000000
     ce8:	401c0000 	.word	0x401c0000
     cec:	00000000 	.word	0x00000000
     cf0:	401c0000 	.word	0x401c0000
     cf4:	00000000 	.word	0x00000000
     cf8:	401c0000 	.word	0x401c0000
     cfc:	00000000 	.word	0x00000000
     d00:	401c0000 	.word	0x401c0000
     d04:	00000000 	.word	0x00000000
     d08:	401c0000 	.word	0x401c0000
     d0c:	00000000 	.word	0x00000000
     d10:	401c0000 	.word	0x401c0000
     d14:	00000000 	.word	0x00000000
     d18:	401c0000 	.word	0x401c0000
     d1c:	00000000 	.word	0x00000000
     d20:	401c0000 	.word	0x401c0000
     d24:	00000000 	.word	0x00000000
     d28:	40200000 	.word	0x40200000
     d2c:	00000000 	.word	0x00000000
     d30:	40200000 	.word	0x40200000
     d34:	00000000 	.word	0x00000000
     d38:	40200000 	.word	0x40200000
     d3c:	00000000 	.word	0x00000000
     d40:	40200000 	.word	0x40200000
     d44:	00000000 	.word	0x00000000
     d48:	40200000 	.word	0x40200000
     d4c:	00000000 	.word	0x00000000
     d50:	40200000 	.word	0x40200000
     d54:	00000000 	.word	0x00000000
     d58:	40200000 	.word	0x40200000
     d5c:	00000000 	.word	0x00000000
     d60:	40200000 	.word	0x40200000
     d64:	00000000 	.word	0x00000000
     d68:	40200000 	.word	0x40200000
     d6c:	00000000 	.word	0x00000000
     d70:	40200000 	.word	0x40200000
     d74:	00000000 	.word	0x00000000
     d78:	40200000 	.word	0x40200000
     d7c:	00000000 	.word	0x00000000
     d80:	40200000 	.word	0x40200000
     d84:	00000000 	.word	0x00000000
     d88:	40200000 	.word	0x40200000
     d8c:	00000000 	.word	0x00000000
     d90:	40200000 	.word	0x40200000
     d94:	00000000 	.word	0x00000000
     d98:	40200000 	.word	0x40200000
     d9c:	00000000 	.word	0x00000000
     da0:	40200000 	.word	0x40200000
     da4:	00000000 	.word	0x00000000
     da8:	40220000 	.word	0x40220000
     dac:	00000000 	.word	0x00000000
     db0:	40220000 	.word	0x40220000
     db4:	00000000 	.word	0x00000000
     db8:	40220000 	.word	0x40220000
     dbc:	00000000 	.word	0x00000000
     dc0:	40220000 	.word	0x40220000
     dc4:	00000000 	.word	0x00000000
     dc8:	40220000 	.word	0x40220000
     dcc:	00000000 	.word	0x00000000
     dd0:	40220000 	.word	0x40220000
     dd4:	00000000 	.word	0x00000000
     dd8:	40220000 	.word	0x40220000
     ddc:	00000000 	.word	0x00000000
     de0:	40220000 	.word	0x40220000
     de4:	00000000 	.word	0x00000000
     de8:	40220000 	.word	0x40220000
     dec:	00000000 	.word	0x00000000
     df0:	40220000 	.word	0x40220000
     df4:	00000000 	.word	0x00000000
     df8:	40220000 	.word	0x40220000
     dfc:	00000000 	.word	0x00000000
     e00:	40220000 	.word	0x40220000
     e04:	00000000 	.word	0x00000000
     e08:	40220000 	.word	0x40220000
     e0c:	00000000 	.word	0x00000000
     e10:	40220000 	.word	0x40220000
     e14:	00000000 	.word	0x00000000
     e18:	40220000 	.word	0x40220000
     e1c:	00000000 	.word	0x00000000
     e20:	40220000 	.word	0x40220000
     e24:	00000000 	.word	0x00000000
     e28:	40240000 	.word	0x40240000
     e2c:	00000000 	.word	0x00000000
     e30:	40240000 	.word	0x40240000
     e34:	00000000 	.word	0x00000000
     e38:	40240000 	.word	0x40240000
     e3c:	00000000 	.word	0x00000000
     e40:	40240000 	.word	0x40240000
     e44:	00000000 	.word	0x00000000
     e48:	40240000 	.word	0x40240000
     e4c:	00000000 	.word	0x00000000
     e50:	40240000 	.word	0x40240000
     e54:	00000000 	.word	0x00000000
     e58:	40240000 	.word	0x40240000
     e5c:	00000000 	.word	0x00000000
     e60:	40240000 	.word	0x40240000
     e64:	00000000 	.word	0x00000000
     e68:	40240000 	.word	0x40240000
     e6c:	00000000 	.word	0x00000000
     e70:	40240000 	.word	0x40240000
     e74:	00000000 	.word	0x00000000
     e78:	40240000 	.word	0x40240000
     e7c:	00000000 	.word	0x00000000
     e80:	40240000 	.word	0x40240000
     e84:	00000000 	.word	0x00000000
     e88:	40240000 	.word	0x40240000
     e8c:	00000000 	.word	0x00000000
     e90:	40240000 	.word	0x40240000
     e94:	00000000 	.word	0x00000000
     e98:	40240000 	.word	0x40240000
     e9c:	00000000 	.word	0x00000000
     ea0:	40240000 	.word	0x40240000
     ea4:	00000000 	.word	0x00000000
     ea8:	40260000 	.word	0x40260000
     eac:	00000000 	.word	0x00000000
     eb0:	40260000 	.word	0x40260000
     eb4:	00000000 	.word	0x00000000
     eb8:	40260000 	.word	0x40260000
     ebc:	00000000 	.word	0x00000000
     ec0:	40260000 	.word	0x40260000
     ec4:	00000000 	.word	0x00000000
     ec8:	40260000 	.word	0x40260000
     ecc:	00000000 	.word	0x00000000
     ed0:	40260000 	.word	0x40260000
     ed4:	00000000 	.word	0x00000000
     ed8:	40260000 	.word	0x40260000
     edc:	00000000 	.word	0x00000000
     ee0:	40260000 	.word	0x40260000
     ee4:	00000000 	.word	0x00000000
     ee8:	40260000 	.word	0x40260000
     eec:	00000000 	.word	0x00000000
     ef0:	40260000 	.word	0x40260000
     ef4:	00000000 	.word	0x00000000
     ef8:	40260000 	.word	0x40260000
     efc:	00000000 	.word	0x00000000
     f00:	40260000 	.word	0x40260000
     f04:	00000000 	.word	0x00000000
     f08:	40260000 	.word	0x40260000
     f0c:	00000000 	.word	0x00000000
     f10:	40260000 	.word	0x40260000
     f14:	00000000 	.word	0x00000000
     f18:	40260000 	.word	0x40260000
     f1c:	00000000 	.word	0x00000000
     f20:	40260000 	.word	0x40260000
     f24:	00000000 	.word	0x00000000
     f28:	40280000 	.word	0x40280000
     f2c:	00000000 	.word	0x00000000
     f30:	40280000 	.word	0x40280000
     f34:	00000000 	.word	0x00000000
     f38:	40280000 	.word	0x40280000
     f3c:	00000000 	.word	0x00000000
     f40:	40280000 	.word	0x40280000
     f44:	00000000 	.word	0x00000000
     f48:	40280000 	.word	0x40280000
     f4c:	00000000 	.word	0x00000000
     f50:	40280000 	.word	0x40280000
     f54:	00000000 	.word	0x00000000
     f58:	40280000 	.word	0x40280000
     f5c:	00000000 	.word	0x00000000
     f60:	40280000 	.word	0x40280000
     f64:	00000000 	.word	0x00000000
     f68:	40280000 	.word	0x40280000
     f6c:	00000000 	.word	0x00000000
     f70:	40280000 	.word	0x40280000
     f74:	00000000 	.word	0x00000000
     f78:	40280000 	.word	0x40280000
     f7c:	00000000 	.word	0x00000000
     f80:	40280000 	.word	0x40280000
     f84:	00000000 	.word	0x00000000
     f88:	40280000 	.word	0x40280000
     f8c:	00000000 	.word	0x00000000
     f90:	40280000 	.word	0x40280000
     f94:	00000000 	.word	0x00000000
     f98:	40280000 	.word	0x40280000
     f9c:	00000000 	.word	0x00000000
     fa0:	40280000 	.word	0x40280000
     fa4:	00000000 	.word	0x00000000
     fa8:	402a0000 	.word	0x402a0000
     fac:	00000000 	.word	0x00000000
     fb0:	402a0000 	.word	0x402a0000
     fb4:	00000000 	.word	0x00000000
     fb8:	402a0000 	.word	0x402a0000
     fbc:	00000000 	.word	0x00000000
     fc0:	402a0000 	.word	0x402a0000
     fc4:	00000000 	.word	0x00000000
     fc8:	402a0000 	.word	0x402a0000
     fcc:	00000000 	.word	0x00000000
     fd0:	402a0000 	.word	0x402a0000
     fd4:	00000000 	.word	0x00000000
     fd8:	402a0000 	.word	0x402a0000
     fdc:	00000000 	.word	0x00000000
     fe0:	402a0000 	.word	0x402a0000
     fe4:	00000000 	.word	0x00000000
     fe8:	402a0000 	.word	0x402a0000
     fec:	00000000 	.word	0x00000000
     ff0:	402a0000 	.word	0x402a0000
     ff4:	00000000 	.word	0x00000000
     ff8:	402a0000 	.word	0x402a0000
     ffc:	00000000 	.word	0x00000000
    1000:	402a0000 	.word	0x402a0000
    1004:	00000000 	.word	0x00000000
    1008:	402a0000 	.word	0x402a0000
    100c:	00000000 	.word	0x00000000
    1010:	402a0000 	.word	0x402a0000
    1014:	00000000 	.word	0x00000000
    1018:	402a0000 	.word	0x402a0000
    101c:	00000000 	.word	0x00000000
    1020:	402a0000 	.word	0x402a0000
    1024:	00000000 	.word	0x00000000
    1028:	402c0000 	.word	0x402c0000
    102c:	00000000 	.word	0x00000000
    1030:	402c0000 	.word	0x402c0000
    1034:	00000000 	.word	0x00000000
    1038:	402c0000 	.word	0x402c0000
    103c:	00000000 	.word	0x00000000
    1040:	402c0000 	.word	0x402c0000
    1044:	00000000 	.word	0x00000000
    1048:	402c0000 	.word	0x402c0000
    104c:	00000000 	.word	0x00000000
    1050:	402c0000 	.word	0x402c0000
    1054:	00000000 	.word	0x00000000
    1058:	402c0000 	.word	0x402c0000
    105c:	00000000 	.word	0x00000000
    1060:	402c0000 	.word	0x402c0000
    1064:	00000000 	.word	0x00000000
    1068:	402c0000 	.word	0x402c0000
    106c:	00000000 	.word	0x00000000
    1070:	402c0000 	.word	0x402c0000
    1074:	00000000 	.word	0x00000000
    1078:	402c0000 	.word	0x402c0000
    107c:	00000000 	.word	0x00000000
    1080:	402c0000 	.word	0x402c0000
    1084:	00000000 	.word	0x00000000
    1088:	402c0000 	.word	0x402c0000
    108c:	00000000 	.word	0x00000000
    1090:	402c0000 	.word	0x402c0000
    1094:	00000000 	.word	0x00000000
    1098:	402c0000 	.word	0x402c0000
    109c:	00000000 	.word	0x00000000
    10a0:	402c0000 	.word	0x402c0000
    10a4:	00000000 	.word	0x00000000
    10a8:	402e0000 	.word	0x402e0000
    10ac:	00000000 	.word	0x00000000
    10b0:	402e0000 	.word	0x402e0000
    10b4:	00000000 	.word	0x00000000
    10b8:	402e0000 	.word	0x402e0000
    10bc:	00000000 	.word	0x00000000
    10c0:	402e0000 	.word	0x402e0000
    10c4:	00000000 	.word	0x00000000
    10c8:	402e0000 	.word	0x402e0000
    10cc:	00000000 	.word	0x00000000
    10d0:	402e0000 	.word	0x402e0000
    10d4:	00000000 	.word	0x00000000
    10d8:	402e0000 	.word	0x402e0000
    10dc:	00000000 	.word	0x00000000
    10e0:	402e0000 	.word	0x402e0000
    10e4:	00000000 	.word	0x00000000
    10e8:	402e0000 	.word	0x402e0000
    10ec:	00000000 	.word	0x00000000
    10f0:	402e0000 	.word	0x402e0000
    10f4:	00000000 	.word	0x00000000
    10f8:	402e0000 	.word	0x402e0000
    10fc:	00000000 	.word	0x00000000
    1100:	402e0000 	.word	0x402e0000
    1104:	00000000 	.word	0x00000000
    1108:	402e0000 	.word	0x402e0000
    110c:	00000000 	.word	0x00000000
    1110:	402e0000 	.word	0x402e0000
    1114:	00000000 	.word	0x00000000
    1118:	402e0000 	.word	0x402e0000
    111c:	00000000 	.word	0x00000000
    1120:	402e0000 	.word	0x402e0000
    1124:	00000000 	.word	0x00000000
    1128:	40300000 	.word	0x40300000
    112c:	00000000 	.word	0x00000000
    1130:	40300000 	.word	0x40300000
    1134:	00000000 	.word	0x00000000
    1138:	40300000 	.word	0x40300000
    113c:	00000000 	.word	0x00000000
    1140:	40300000 	.word	0x40300000
    1144:	00000000 	.word	0x00000000
    1148:	40300000 	.word	0x40300000
    114c:	00000000 	.word	0x00000000
    1150:	40300000 	.word	0x40300000
    1154:	00000000 	.word	0x00000000
    1158:	40300000 	.word	0x40300000
    115c:	00000000 	.word	0x00000000
    1160:	40300000 	.word	0x40300000
    1164:	00000000 	.word	0x00000000
    1168:	40300000 	.word	0x40300000
    116c:	00000000 	.word	0x00000000
    1170:	40300000 	.word	0x40300000
    1174:	00000000 	.word	0x00000000
    1178:	40300000 	.word	0x40300000
    117c:	00000000 	.word	0x00000000
    1180:	40300000 	.word	0x40300000
    1184:	00000000 	.word	0x00000000
    1188:	40300000 	.word	0x40300000
    118c:	00000000 	.word	0x00000000
    1190:	40300000 	.word	0x40300000
    1194:	00000000 	.word	0x00000000
    1198:	40300000 	.word	0x40300000
    119c:	00000000 	.word	0x00000000
    11a0:	40300000 	.word	0x40300000

000011a4 <Array_C16>:
	...

000019a4 <Array_A128>:
    19a4:	9374bc6a 	.word	0x9374bc6a
    19a8:	3ff00418 	.word	0x3ff00418
    19ac:	26e978d5 	.word	0x26e978d5
    19b0:	3ff00831 	.word	0x3ff00831
    19b4:	ba5e353f 	.word	0xba5e353f
    19b8:	3ff00c49 	.word	0x3ff00c49
    19bc:	4dd2f1aa 	.word	0x4dd2f1aa
    19c0:	3ff01062 	.word	0x3ff01062
    19c4:	e147ae14 	.word	0xe147ae14
    19c8:	3ff0147a 	.word	0x3ff0147a
    19cc:	74bc6a7f 	.word	0x74bc6a7f
    19d0:	3ff01893 	.word	0x3ff01893
    19d4:	083126e9 	.word	0x083126e9
    19d8:	3ff01cac 	.word	0x3ff01cac
    19dc:	9ba5e354 	.word	0x9ba5e354
    19e0:	3ff020c4 	.word	0x3ff020c4
    19e4:	2f1a9fbe 	.word	0x2f1a9fbe
    19e8:	3ff024dd 	.word	0x3ff024dd
    19ec:	c28f5c29 	.word	0xc28f5c29
    19f0:	3ff028f5 	.word	0x3ff028f5
    19f4:	56041893 	.word	0x56041893
    19f8:	3ff02d0e 	.word	0x3ff02d0e
    19fc:	e978d4fe 	.word	0xe978d4fe
    1a00:	3ff03126 	.word	0x3ff03126
    1a04:	7ced9168 	.word	0x7ced9168
    1a08:	3ff0353f 	.word	0x3ff0353f
    1a0c:	10624dd3 	.word	0x10624dd3
    1a10:	3ff03958 	.word	0x3ff03958
    1a14:	a3d70a3d 	.word	0xa3d70a3d
    1a18:	3ff03d70 	.word	0x3ff03d70
    1a1c:	374bc6a8 	.word	0x374bc6a8
    1a20:	3ff04189 	.word	0x3ff04189
    1a24:	cac08312 	.word	0xcac08312
    1a28:	3ff045a1 	.word	0x3ff045a1
    1a2c:	5e353f7d 	.word	0x5e353f7d
    1a30:	3ff049ba 	.word	0x3ff049ba
    1a34:	f1a9fbe7 	.word	0xf1a9fbe7
    1a38:	3ff04dd2 	.word	0x3ff04dd2
    1a3c:	851eb852 	.word	0x851eb852
    1a40:	3ff051eb 	.word	0x3ff051eb
    1a44:	189374bc 	.word	0x189374bc
    1a48:	3ff05604 	.word	0x3ff05604
    1a4c:	ac083127 	.word	0xac083127
    1a50:	3ff05a1c 	.word	0x3ff05a1c
    1a54:	3f7ced91 	.word	0x3f7ced91
    1a58:	3ff05e35 	.word	0x3ff05e35
    1a5c:	d2f1a9fc 	.word	0xd2f1a9fc
    1a60:	3ff0624d 	.word	0x3ff0624d
    1a64:	66666666 	.word	0x66666666
    1a68:	3ff06666 	.word	0x3ff06666
    1a6c:	f9db22d1 	.word	0xf9db22d1
    1a70:	3ff06a7e 	.word	0x3ff06a7e
    1a74:	8d4fdf3b 	.word	0x8d4fdf3b
    1a78:	3ff06e97 	.word	0x3ff06e97
    1a7c:	20c49ba6 	.word	0x20c49ba6
    1a80:	3ff072b0 	.word	0x3ff072b0
    1a84:	b4395810 	.word	0xb4395810
    1a88:	3ff076c8 	.word	0x3ff076c8
    1a8c:	47ae147b 	.word	0x47ae147b
    1a90:	3ff07ae1 	.word	0x3ff07ae1
    1a94:	db22d0e5 	.word	0xdb22d0e5
    1a98:	3ff07ef9 	.word	0x3ff07ef9
    1a9c:	6e978d50 	.word	0x6e978d50
    1aa0:	3ff08312 	.word	0x3ff08312
    1aa4:	020c49ba 	.word	0x020c49ba
    1aa8:	3ff0872b 	.word	0x3ff0872b
    1aac:	95810625 	.word	0x95810625
    1ab0:	3ff08b43 	.word	0x3ff08b43
    1ab4:	28f5c28f 	.word	0x28f5c28f
    1ab8:	3ff08f5c 	.word	0x3ff08f5c
    1abc:	bc6a7efa 	.word	0xbc6a7efa
    1ac0:	3ff09374 	.word	0x3ff09374
    1ac4:	4fdf3b64 	.word	0x4fdf3b64
    1ac8:	3ff0978d 	.word	0x3ff0978d
    1acc:	e353f7cf 	.word	0xe353f7cf
    1ad0:	3ff09ba5 	.word	0x3ff09ba5
    1ad4:	76c8b439 	.word	0x76c8b439
    1ad8:	3ff09fbe 	.word	0x3ff09fbe
    1adc:	0a3d70a4 	.word	0x0a3d70a4
    1ae0:	3ff0a3d7 	.word	0x3ff0a3d7
    1ae4:	9db22d0e 	.word	0x9db22d0e
    1ae8:	3ff0a7ef 	.word	0x3ff0a7ef
    1aec:	3126e979 	.word	0x3126e979
    1af0:	3ff0ac08 	.word	0x3ff0ac08
    1af4:	c49ba5e3 	.word	0xc49ba5e3
    1af8:	3ff0b020 	.word	0x3ff0b020
    1afc:	5810624e 	.word	0x5810624e
    1b00:	3ff0b439 	.word	0x3ff0b439
    1b04:	eb851eb8 	.word	0xeb851eb8
    1b08:	3ff0b851 	.word	0x3ff0b851
    1b0c:	7ef9db23 	.word	0x7ef9db23
    1b10:	3ff0bc6a 	.word	0x3ff0bc6a
    1b14:	126e978d 	.word	0x126e978d
    1b18:	3ff0c083 	.word	0x3ff0c083
    1b1c:	a5e353f8 	.word	0xa5e353f8
    1b20:	3ff0c49b 	.word	0x3ff0c49b
    1b24:	39581062 	.word	0x39581062
    1b28:	3ff0c8b4 	.word	0x3ff0c8b4
    1b2c:	cccccccd 	.word	0xcccccccd
    1b30:	3ff0cccc 	.word	0x3ff0cccc
    1b34:	60418937 	.word	0x60418937
    1b38:	3ff0d0e5 	.word	0x3ff0d0e5
    1b3c:	f3b645a2 	.word	0xf3b645a2
    1b40:	3ff0d4fd 	.word	0x3ff0d4fd
    1b44:	872b020c 	.word	0x872b020c
    1b48:	3ff0d916 	.word	0x3ff0d916
    1b4c:	1a9fbe77 	.word	0x1a9fbe77
    1b50:	3ff0dd2f 	.word	0x3ff0dd2f
    1b54:	ae147ae1 	.word	0xae147ae1
    1b58:	3ff0e147 	.word	0x3ff0e147
    1b5c:	4189374c 	.word	0x4189374c
    1b60:	3ff0e560 	.word	0x3ff0e560
    1b64:	d4fdf3b6 	.word	0xd4fdf3b6
    1b68:	3ff0e978 	.word	0x3ff0e978
    1b6c:	6872b021 	.word	0x6872b021
    1b70:	3ff0ed91 	.word	0x3ff0ed91
    1b74:	fbe76c8b 	.word	0xfbe76c8b
    1b78:	3ff0f1a9 	.word	0x3ff0f1a9
    1b7c:	8f5c28f6 	.word	0x8f5c28f6
    1b80:	3ff0f5c2 	.word	0x3ff0f5c2
    1b84:	22d0e560 	.word	0x22d0e560
    1b88:	3ff0f9db 	.word	0x3ff0f9db
    1b8c:	b645a1cb 	.word	0xb645a1cb
    1b90:	3ff0fdf3 	.word	0x3ff0fdf3
    1b94:	49ba5e35 	.word	0x49ba5e35
    1b98:	3ff1020c 	.word	0x3ff1020c
    1b9c:	dd2f1aa0 	.word	0xdd2f1aa0
    1ba0:	3ff10624 	.word	0x3ff10624
    1ba4:	70a3d70a 	.word	0x70a3d70a
    1ba8:	3ff10a3d 	.word	0x3ff10a3d
    1bac:	04189375 	.word	0x04189375
    1bb0:	3ff10e56 	.word	0x3ff10e56
    1bb4:	978d4fdf 	.word	0x978d4fdf
    1bb8:	3ff1126e 	.word	0x3ff1126e
    1bbc:	2b020c4a 	.word	0x2b020c4a
    1bc0:	3ff11687 	.word	0x3ff11687
    1bc4:	be76c8b4 	.word	0xbe76c8b4
    1bc8:	3ff11a9f 	.word	0x3ff11a9f
    1bcc:	51eb851f 	.word	0x51eb851f
    1bd0:	3ff11eb8 	.word	0x3ff11eb8
    1bd4:	e5604189 	.word	0xe5604189
    1bd8:	3ff122d0 	.word	0x3ff122d0
    1bdc:	78d4fdf4 	.word	0x78d4fdf4
    1be0:	3ff126e9 	.word	0x3ff126e9
    1be4:	0c49ba5e 	.word	0x0c49ba5e
    1be8:	3ff12b02 	.word	0x3ff12b02
    1bec:	9fbe76c9 	.word	0x9fbe76c9
    1bf0:	3ff12f1a 	.word	0x3ff12f1a
    1bf4:	33333333 	.word	0x33333333
    1bf8:	3ff13333 	.word	0x3ff13333
    1bfc:	c6a7ef9e 	.word	0xc6a7ef9e
    1c00:	3ff1374b 	.word	0x3ff1374b
    1c04:	5a1cac08 	.word	0x5a1cac08
    1c08:	3ff13b64 	.word	0x3ff13b64
    1c0c:	ed916873 	.word	0xed916873
    1c10:	3ff13f7c 	.word	0x3ff13f7c
    1c14:	810624dd 	.word	0x810624dd
    1c18:	3ff14395 	.word	0x3ff14395
    1c1c:	147ae148 	.word	0x147ae148
    1c20:	3ff147ae 	.word	0x3ff147ae
    1c24:	a7ef9db2 	.word	0xa7ef9db2
    1c28:	3ff14bc6 	.word	0x3ff14bc6
    1c2c:	3b645a1d 	.word	0x3b645a1d
    1c30:	3ff14fdf 	.word	0x3ff14fdf
    1c34:	ced91687 	.word	0xced91687
    1c38:	3ff153f7 	.word	0x3ff153f7
    1c3c:	624dd2f2 	.word	0x624dd2f2
    1c40:	3ff15810 	.word	0x3ff15810
    1c44:	f5c28f5c 	.word	0xf5c28f5c
    1c48:	3ff15c28 	.word	0x3ff15c28
    1c4c:	89374bc7 	.word	0x89374bc7
    1c50:	3ff16041 	.word	0x3ff16041
    1c54:	1cac0831 	.word	0x1cac0831
    1c58:	3ff1645a 	.word	0x3ff1645a
    1c5c:	b020c49c 	.word	0xb020c49c
    1c60:	3ff16872 	.word	0x3ff16872
    1c64:	43958106 	.word	0x43958106
    1c68:	3ff16c8b 	.word	0x3ff16c8b
    1c6c:	d70a3d71 	.word	0xd70a3d71
    1c70:	3ff170a3 	.word	0x3ff170a3
    1c74:	6a7ef9db 	.word	0x6a7ef9db
    1c78:	3ff174bc 	.word	0x3ff174bc
    1c7c:	fdf3b646 	.word	0xfdf3b646
    1c80:	3ff178d4 	.word	0x3ff178d4
    1c84:	916872b0 	.word	0x916872b0
    1c88:	3ff17ced 	.word	0x3ff17ced
    1c8c:	24dd2f1b 	.word	0x24dd2f1b
    1c90:	3ff18106 	.word	0x3ff18106
    1c94:	b851eb85 	.word	0xb851eb85
    1c98:	3ff1851e 	.word	0x3ff1851e
    1c9c:	4bc6a7f0 	.word	0x4bc6a7f0
    1ca0:	3ff18937 	.word	0x3ff18937
    1ca4:	df3b645a 	.word	0xdf3b645a
    1ca8:	3ff18d4f 	.word	0x3ff18d4f
    1cac:	72b020c5 	.word	0x72b020c5
    1cb0:	3ff19168 	.word	0x3ff19168
    1cb4:	0624dd2f 	.word	0x0624dd2f
    1cb8:	3ff19581 	.word	0x3ff19581
    1cbc:	9999999a 	.word	0x9999999a
    1cc0:	3ff19999 	.word	0x3ff19999
    1cc4:	2d0e5604 	.word	0x2d0e5604
    1cc8:	3ff19db2 	.word	0x3ff19db2
    1ccc:	c083126f 	.word	0xc083126f
    1cd0:	3ff1a1ca 	.word	0x3ff1a1ca
    1cd4:	53f7ced9 	.word	0x53f7ced9
    1cd8:	3ff1a5e3 	.word	0x3ff1a5e3
    1cdc:	e76c8b44 	.word	0xe76c8b44
    1ce0:	3ff1a9fb 	.word	0x3ff1a9fb
    1ce4:	7ae147ae 	.word	0x7ae147ae
    1ce8:	3ff1ae14 	.word	0x3ff1ae14
    1cec:	0e560419 	.word	0x0e560419
    1cf0:	3ff1b22d 	.word	0x3ff1b22d
    1cf4:	a1cac083 	.word	0xa1cac083
    1cf8:	3ff1b645 	.word	0x3ff1b645
    1cfc:	353f7cee 	.word	0x353f7cee
    1d00:	3ff1ba5e 	.word	0x3ff1ba5e
    1d04:	c8b43958 	.word	0xc8b43958
    1d08:	3ff1be76 	.word	0x3ff1be76
    1d0c:	5c28f5c3 	.word	0x5c28f5c3
    1d10:	3ff1c28f 	.word	0x3ff1c28f
    1d14:	ef9db22d 	.word	0xef9db22d
    1d18:	3ff1c6a7 	.word	0x3ff1c6a7
    1d1c:	83126e98 	.word	0x83126e98
    1d20:	3ff1cac0 	.word	0x3ff1cac0
    1d24:	16872b02 	.word	0x16872b02
    1d28:	3ff1ced9 	.word	0x3ff1ced9
    1d2c:	a9fbe76d 	.word	0xa9fbe76d
    1d30:	3ff1d2f1 	.word	0x3ff1d2f1
    1d34:	3d70a3d7 	.word	0x3d70a3d7
    1d38:	3ff1d70a 	.word	0x3ff1d70a
    1d3c:	d0e56042 	.word	0xd0e56042
    1d40:	3ff1db22 	.word	0x3ff1db22
    1d44:	645a1cac 	.word	0x645a1cac
    1d48:	3ff1df3b 	.word	0x3ff1df3b
    1d4c:	f7ced917 	.word	0xf7ced917
    1d50:	3ff1e353 	.word	0x3ff1e353
    1d54:	8b439581 	.word	0x8b439581
    1d58:	3ff1e76c 	.word	0x3ff1e76c
    1d5c:	1eb851ec 	.word	0x1eb851ec
    1d60:	3ff1eb85 	.word	0x3ff1eb85
    1d64:	b22d0e56 	.word	0xb22d0e56
    1d68:	3ff1ef9d 	.word	0x3ff1ef9d
    1d6c:	45a1cac1 	.word	0x45a1cac1
    1d70:	3ff1f3b6 	.word	0x3ff1f3b6
    1d74:	d916872b 	.word	0xd916872b
    1d78:	3ff1f7ce 	.word	0x3ff1f7ce
    1d7c:	6c8b4396 	.word	0x6c8b4396
    1d80:	3ff1fbe7 	.word	0x3ff1fbe7
    1d84:	00000000 	.word	0x00000000
    1d88:	3ff20000 	.word	0x3ff20000
    1d8c:	9374bc6a 	.word	0x9374bc6a
    1d90:	3ff20418 	.word	0x3ff20418
    1d94:	26e978d5 	.word	0x26e978d5
    1d98:	3ff20831 	.word	0x3ff20831
    1d9c:	ba5e353f 	.word	0xba5e353f
    1da0:	3ff20c49 	.word	0x3ff20c49
    1da4:	49ba5e35 	.word	0x49ba5e35
    1da8:	4000020c 	.word	0x4000020c
    1dac:	9374bc6a 	.word	0x9374bc6a
    1db0:	40000418 	.word	0x40000418
    1db4:	dd2f1aa0 	.word	0xdd2f1aa0
    1db8:	40000624 	.word	0x40000624
    1dbc:	26e978d5 	.word	0x26e978d5
    1dc0:	40000831 	.word	0x40000831
    1dc4:	70a3d70a 	.word	0x70a3d70a
    1dc8:	40000a3d 	.word	0x40000a3d
    1dcc:	ba5e353f 	.word	0xba5e353f
    1dd0:	40000c49 	.word	0x40000c49
    1dd4:	04189375 	.word	0x04189375
    1dd8:	40000e56 	.word	0x40000e56
    1ddc:	4dd2f1aa 	.word	0x4dd2f1aa
    1de0:	40001062 	.word	0x40001062
    1de4:	978d4fdf 	.word	0x978d4fdf
    1de8:	4000126e 	.word	0x4000126e
    1dec:	e147ae14 	.word	0xe147ae14
    1df0:	4000147a 	.word	0x4000147a
    1df4:	2b020c4a 	.word	0x2b020c4a
    1df8:	40001687 	.word	0x40001687
    1dfc:	74bc6a7f 	.word	0x74bc6a7f
    1e00:	40001893 	.word	0x40001893
    1e04:	be76c8b4 	.word	0xbe76c8b4
    1e08:	40001a9f 	.word	0x40001a9f
    1e0c:	083126e9 	.word	0x083126e9
    1e10:	40001cac 	.word	0x40001cac
    1e14:	51eb851f 	.word	0x51eb851f
    1e18:	40001eb8 	.word	0x40001eb8
    1e1c:	9ba5e354 	.word	0x9ba5e354
    1e20:	400020c4 	.word	0x400020c4
    1e24:	e5604189 	.word	0xe5604189
    1e28:	400022d0 	.word	0x400022d0
    1e2c:	2f1a9fbe 	.word	0x2f1a9fbe
    1e30:	400024dd 	.word	0x400024dd
    1e34:	78d4fdf4 	.word	0x78d4fdf4
    1e38:	400026e9 	.word	0x400026e9
    1e3c:	c28f5c29 	.word	0xc28f5c29
    1e40:	400028f5 	.word	0x400028f5
    1e44:	0c49ba5e 	.word	0x0c49ba5e
    1e48:	40002b02 	.word	0x40002b02
    1e4c:	56041893 	.word	0x56041893
    1e50:	40002d0e 	.word	0x40002d0e
    1e54:	9fbe76c9 	.word	0x9fbe76c9
    1e58:	40002f1a 	.word	0x40002f1a
    1e5c:	e978d4fe 	.word	0xe978d4fe
    1e60:	40003126 	.word	0x40003126
    1e64:	33333333 	.word	0x33333333
    1e68:	40003333 	.word	0x40003333
    1e6c:	7ced9168 	.word	0x7ced9168
    1e70:	4000353f 	.word	0x4000353f
    1e74:	c6a7ef9e 	.word	0xc6a7ef9e
    1e78:	4000374b 	.word	0x4000374b
    1e7c:	10624dd3 	.word	0x10624dd3
    1e80:	40003958 	.word	0x40003958
    1e84:	5a1cac08 	.word	0x5a1cac08
    1e88:	40003b64 	.word	0x40003b64
    1e8c:	a3d70a3d 	.word	0xa3d70a3d
    1e90:	40003d70 	.word	0x40003d70
    1e94:	ed916873 	.word	0xed916873
    1e98:	40003f7c 	.word	0x40003f7c
    1e9c:	374bc6a8 	.word	0x374bc6a8
    1ea0:	40004189 	.word	0x40004189
    1ea4:	810624dd 	.word	0x810624dd
    1ea8:	40004395 	.word	0x40004395
    1eac:	cac08312 	.word	0xcac08312
    1eb0:	400045a1 	.word	0x400045a1
    1eb4:	147ae148 	.word	0x147ae148
    1eb8:	400047ae 	.word	0x400047ae
    1ebc:	5e353f7d 	.word	0x5e353f7d
    1ec0:	400049ba 	.word	0x400049ba
    1ec4:	a7ef9db2 	.word	0xa7ef9db2
    1ec8:	40004bc6 	.word	0x40004bc6
    1ecc:	f1a9fbe7 	.word	0xf1a9fbe7
    1ed0:	40004dd2 	.word	0x40004dd2
    1ed4:	3b645a1d 	.word	0x3b645a1d
    1ed8:	40004fdf 	.word	0x40004fdf
    1edc:	851eb852 	.word	0x851eb852
    1ee0:	400051eb 	.word	0x400051eb
    1ee4:	ced91687 	.word	0xced91687
    1ee8:	400053f7 	.word	0x400053f7
    1eec:	189374bc 	.word	0x189374bc
    1ef0:	40005604 	.word	0x40005604
    1ef4:	624dd2f2 	.word	0x624dd2f2
    1ef8:	40005810 	.word	0x40005810
    1efc:	ac083127 	.word	0xac083127
    1f00:	40005a1c 	.word	0x40005a1c
    1f04:	f5c28f5c 	.word	0xf5c28f5c
    1f08:	40005c28 	.word	0x40005c28
    1f0c:	3f7ced91 	.word	0x3f7ced91
    1f10:	40005e35 	.word	0x40005e35
    1f14:	89374bc7 	.word	0x89374bc7
    1f18:	40006041 	.word	0x40006041
    1f1c:	d2f1a9fc 	.word	0xd2f1a9fc
    1f20:	4000624d 	.word	0x4000624d
    1f24:	1cac0831 	.word	0x1cac0831
    1f28:	4000645a 	.word	0x4000645a
    1f2c:	66666666 	.word	0x66666666
    1f30:	40006666 	.word	0x40006666
    1f34:	b020c49c 	.word	0xb020c49c
    1f38:	40006872 	.word	0x40006872
    1f3c:	f9db22d1 	.word	0xf9db22d1
    1f40:	40006a7e 	.word	0x40006a7e
    1f44:	43958106 	.word	0x43958106
    1f48:	40006c8b 	.word	0x40006c8b
    1f4c:	8d4fdf3b 	.word	0x8d4fdf3b
    1f50:	40006e97 	.word	0x40006e97
    1f54:	d70a3d71 	.word	0xd70a3d71
    1f58:	400070a3 	.word	0x400070a3
    1f5c:	20c49ba6 	.word	0x20c49ba6
    1f60:	400072b0 	.word	0x400072b0
    1f64:	6a7ef9db 	.word	0x6a7ef9db
    1f68:	400074bc 	.word	0x400074bc
    1f6c:	b4395810 	.word	0xb4395810
    1f70:	400076c8 	.word	0x400076c8
    1f74:	fdf3b646 	.word	0xfdf3b646
    1f78:	400078d4 	.word	0x400078d4
    1f7c:	47ae147b 	.word	0x47ae147b
    1f80:	40007ae1 	.word	0x40007ae1
    1f84:	916872b0 	.word	0x916872b0
    1f88:	40007ced 	.word	0x40007ced
    1f8c:	db22d0e5 	.word	0xdb22d0e5
    1f90:	40007ef9 	.word	0x40007ef9
    1f94:	24dd2f1b 	.word	0x24dd2f1b
    1f98:	40008106 	.word	0x40008106
    1f9c:	6e978d50 	.word	0x6e978d50
    1fa0:	40008312 	.word	0x40008312
    1fa4:	b851eb85 	.word	0xb851eb85
    1fa8:	4000851e 	.word	0x4000851e
    1fac:	020c49ba 	.word	0x020c49ba
    1fb0:	4000872b 	.word	0x4000872b
    1fb4:	4bc6a7f0 	.word	0x4bc6a7f0
    1fb8:	40008937 	.word	0x40008937
    1fbc:	95810625 	.word	0x95810625
    1fc0:	40008b43 	.word	0x40008b43
    1fc4:	df3b645a 	.word	0xdf3b645a
    1fc8:	40008d4f 	.word	0x40008d4f
    1fcc:	28f5c28f 	.word	0x28f5c28f
    1fd0:	40008f5c 	.word	0x40008f5c
    1fd4:	72b020c5 	.word	0x72b020c5
    1fd8:	40009168 	.word	0x40009168
    1fdc:	bc6a7efa 	.word	0xbc6a7efa
    1fe0:	40009374 	.word	0x40009374
    1fe4:	0624dd2f 	.word	0x0624dd2f
    1fe8:	40009581 	.word	0x40009581
    1fec:	4fdf3b64 	.word	0x4fdf3b64
    1ff0:	4000978d 	.word	0x4000978d
    1ff4:	9999999a 	.word	0x9999999a
    1ff8:	40009999 	.word	0x40009999
    1ffc:	e353f7cf 	.word	0xe353f7cf
    2000:	40009ba5 	.word	0x40009ba5
    2004:	2d0e5604 	.word	0x2d0e5604
    2008:	40009db2 	.word	0x40009db2
    200c:	76c8b439 	.word	0x76c8b439
    2010:	40009fbe 	.word	0x40009fbe
    2014:	c083126f 	.word	0xc083126f
    2018:	4000a1ca 	.word	0x4000a1ca
    201c:	0a3d70a4 	.word	0x0a3d70a4
    2020:	4000a3d7 	.word	0x4000a3d7
    2024:	53f7ced9 	.word	0x53f7ced9
    2028:	4000a5e3 	.word	0x4000a5e3
    202c:	9db22d0e 	.word	0x9db22d0e
    2030:	4000a7ef 	.word	0x4000a7ef
    2034:	e76c8b44 	.word	0xe76c8b44
    2038:	4000a9fb 	.word	0x4000a9fb
    203c:	3126e979 	.word	0x3126e979
    2040:	4000ac08 	.word	0x4000ac08
    2044:	7ae147ae 	.word	0x7ae147ae
    2048:	4000ae14 	.word	0x4000ae14
    204c:	c49ba5e3 	.word	0xc49ba5e3
    2050:	4000b020 	.word	0x4000b020
    2054:	0e560419 	.word	0x0e560419
    2058:	4000b22d 	.word	0x4000b22d
    205c:	5810624e 	.word	0x5810624e
    2060:	4000b439 	.word	0x4000b439
    2064:	a1cac083 	.word	0xa1cac083
    2068:	4000b645 	.word	0x4000b645
    206c:	eb851eb8 	.word	0xeb851eb8
    2070:	4000b851 	.word	0x4000b851
    2074:	353f7cee 	.word	0x353f7cee
    2078:	4000ba5e 	.word	0x4000ba5e
    207c:	7ef9db23 	.word	0x7ef9db23
    2080:	4000bc6a 	.word	0x4000bc6a
    2084:	c8b43958 	.word	0xc8b43958
    2088:	4000be76 	.word	0x4000be76
    208c:	126e978d 	.word	0x126e978d
    2090:	4000c083 	.word	0x4000c083
    2094:	5c28f5c3 	.word	0x5c28f5c3
    2098:	4000c28f 	.word	0x4000c28f
    209c:	a5e353f8 	.word	0xa5e353f8
    20a0:	4000c49b 	.word	0x4000c49b
    20a4:	ef9db22d 	.word	0xef9db22d
    20a8:	4000c6a7 	.word	0x4000c6a7
    20ac:	39581062 	.word	0x39581062
    20b0:	4000c8b4 	.word	0x4000c8b4
    20b4:	83126e98 	.word	0x83126e98
    20b8:	4000cac0 	.word	0x4000cac0
    20bc:	cccccccd 	.word	0xcccccccd
    20c0:	4000cccc 	.word	0x4000cccc
    20c4:	16872b02 	.word	0x16872b02
    20c8:	4000ced9 	.word	0x4000ced9
    20cc:	60418937 	.word	0x60418937
    20d0:	4000d0e5 	.word	0x4000d0e5
    20d4:	a9fbe76d 	.word	0xa9fbe76d
    20d8:	4000d2f1 	.word	0x4000d2f1
    20dc:	f3b645a2 	.word	0xf3b645a2
    20e0:	4000d4fd 	.word	0x4000d4fd
    20e4:	3d70a3d7 	.word	0x3d70a3d7
    20e8:	4000d70a 	.word	0x4000d70a
    20ec:	872b020c 	.word	0x872b020c
    20f0:	4000d916 	.word	0x4000d916
    20f4:	d0e56042 	.word	0xd0e56042
    20f8:	4000db22 	.word	0x4000db22
    20fc:	1a9fbe77 	.word	0x1a9fbe77
    2100:	4000dd2f 	.word	0x4000dd2f
    2104:	645a1cac 	.word	0x645a1cac
    2108:	4000df3b 	.word	0x4000df3b
    210c:	ae147ae1 	.word	0xae147ae1
    2110:	4000e147 	.word	0x4000e147
    2114:	f7ced917 	.word	0xf7ced917
    2118:	4000e353 	.word	0x4000e353
    211c:	4189374c 	.word	0x4189374c
    2120:	4000e560 	.word	0x4000e560
    2124:	8b439581 	.word	0x8b439581
    2128:	4000e76c 	.word	0x4000e76c
    212c:	d4fdf3b6 	.word	0xd4fdf3b6
    2130:	4000e978 	.word	0x4000e978
    2134:	1eb851ec 	.word	0x1eb851ec
    2138:	4000eb85 	.word	0x4000eb85
    213c:	6872b021 	.word	0x6872b021
    2140:	4000ed91 	.word	0x4000ed91
    2144:	b22d0e56 	.word	0xb22d0e56
    2148:	4000ef9d 	.word	0x4000ef9d
    214c:	fbe76c8b 	.word	0xfbe76c8b
    2150:	4000f1a9 	.word	0x4000f1a9
    2154:	45a1cac1 	.word	0x45a1cac1
    2158:	4000f3b6 	.word	0x4000f3b6
    215c:	8f5c28f6 	.word	0x8f5c28f6
    2160:	4000f5c2 	.word	0x4000f5c2
    2164:	d916872b 	.word	0xd916872b
    2168:	4000f7ce 	.word	0x4000f7ce
    216c:	22d0e560 	.word	0x22d0e560
    2170:	4000f9db 	.word	0x4000f9db
    2174:	6c8b4396 	.word	0x6c8b4396
    2178:	4000fbe7 	.word	0x4000fbe7
    217c:	b645a1cb 	.word	0xb645a1cb
    2180:	4000fdf3 	.word	0x4000fdf3
    2184:	00000000 	.word	0x00000000
    2188:	40010000 	.word	0x40010000
    218c:	49ba5e35 	.word	0x49ba5e35
    2190:	4001020c 	.word	0x4001020c
    2194:	9374bc6a 	.word	0x9374bc6a
    2198:	40010418 	.word	0x40010418
    219c:	dd2f1aa0 	.word	0xdd2f1aa0
    21a0:	40010624 	.word	0x40010624
    21a4:	49ba5e35 	.word	0x49ba5e35
    21a8:	4008020c 	.word	0x4008020c
    21ac:	9374bc6a 	.word	0x9374bc6a
    21b0:	40080418 	.word	0x40080418
    21b4:	dd2f1aa0 	.word	0xdd2f1aa0
    21b8:	40080624 	.word	0x40080624
    21bc:	26e978d5 	.word	0x26e978d5
    21c0:	40080831 	.word	0x40080831
    21c4:	70a3d70a 	.word	0x70a3d70a
    21c8:	40080a3d 	.word	0x40080a3d
    21cc:	ba5e353f 	.word	0xba5e353f
    21d0:	40080c49 	.word	0x40080c49
    21d4:	04189375 	.word	0x04189375
    21d8:	40080e56 	.word	0x40080e56
    21dc:	4dd2f1aa 	.word	0x4dd2f1aa
    21e0:	40081062 	.word	0x40081062
    21e4:	978d4fdf 	.word	0x978d4fdf
    21e8:	4008126e 	.word	0x4008126e
    21ec:	e147ae14 	.word	0xe147ae14
    21f0:	4008147a 	.word	0x4008147a
    21f4:	2b020c4a 	.word	0x2b020c4a
    21f8:	40081687 	.word	0x40081687
    21fc:	74bc6a7f 	.word	0x74bc6a7f
    2200:	40081893 	.word	0x40081893
    2204:	be76c8b4 	.word	0xbe76c8b4
    2208:	40081a9f 	.word	0x40081a9f
    220c:	083126e9 	.word	0x083126e9
    2210:	40081cac 	.word	0x40081cac
    2214:	51eb851f 	.word	0x51eb851f
    2218:	40081eb8 	.word	0x40081eb8
    221c:	9ba5e354 	.word	0x9ba5e354
    2220:	400820c4 	.word	0x400820c4
    2224:	e5604189 	.word	0xe5604189
    2228:	400822d0 	.word	0x400822d0
    222c:	2f1a9fbe 	.word	0x2f1a9fbe
    2230:	400824dd 	.word	0x400824dd
    2234:	78d4fdf4 	.word	0x78d4fdf4
    2238:	400826e9 	.word	0x400826e9
    223c:	c28f5c29 	.word	0xc28f5c29
    2240:	400828f5 	.word	0x400828f5
    2244:	0c49ba5e 	.word	0x0c49ba5e
    2248:	40082b02 	.word	0x40082b02
    224c:	56041893 	.word	0x56041893
    2250:	40082d0e 	.word	0x40082d0e
    2254:	9fbe76c9 	.word	0x9fbe76c9
    2258:	40082f1a 	.word	0x40082f1a
    225c:	e978d4fe 	.word	0xe978d4fe
    2260:	40083126 	.word	0x40083126
    2264:	33333333 	.word	0x33333333
    2268:	40083333 	.word	0x40083333
    226c:	7ced9168 	.word	0x7ced9168
    2270:	4008353f 	.word	0x4008353f
    2274:	c6a7ef9e 	.word	0xc6a7ef9e
    2278:	4008374b 	.word	0x4008374b
    227c:	10624dd3 	.word	0x10624dd3
    2280:	40083958 	.word	0x40083958
    2284:	5a1cac08 	.word	0x5a1cac08
    2288:	40083b64 	.word	0x40083b64
    228c:	a3d70a3d 	.word	0xa3d70a3d
    2290:	40083d70 	.word	0x40083d70
    2294:	ed916873 	.word	0xed916873
    2298:	40083f7c 	.word	0x40083f7c
    229c:	374bc6a8 	.word	0x374bc6a8
    22a0:	40084189 	.word	0x40084189
    22a4:	810624dd 	.word	0x810624dd
    22a8:	40084395 	.word	0x40084395
    22ac:	cac08312 	.word	0xcac08312
    22b0:	400845a1 	.word	0x400845a1
    22b4:	147ae148 	.word	0x147ae148
    22b8:	400847ae 	.word	0x400847ae
    22bc:	5e353f7d 	.word	0x5e353f7d
    22c0:	400849ba 	.word	0x400849ba
    22c4:	a7ef9db2 	.word	0xa7ef9db2
    22c8:	40084bc6 	.word	0x40084bc6
    22cc:	f1a9fbe7 	.word	0xf1a9fbe7
    22d0:	40084dd2 	.word	0x40084dd2
    22d4:	3b645a1d 	.word	0x3b645a1d
    22d8:	40084fdf 	.word	0x40084fdf
    22dc:	851eb852 	.word	0x851eb852
    22e0:	400851eb 	.word	0x400851eb
    22e4:	ced91687 	.word	0xced91687
    22e8:	400853f7 	.word	0x400853f7
    22ec:	189374bc 	.word	0x189374bc
    22f0:	40085604 	.word	0x40085604
    22f4:	624dd2f2 	.word	0x624dd2f2
    22f8:	40085810 	.word	0x40085810
    22fc:	ac083127 	.word	0xac083127
    2300:	40085a1c 	.word	0x40085a1c
    2304:	f5c28f5c 	.word	0xf5c28f5c
    2308:	40085c28 	.word	0x40085c28
    230c:	3f7ced91 	.word	0x3f7ced91
    2310:	40085e35 	.word	0x40085e35
    2314:	89374bc7 	.word	0x89374bc7
    2318:	40086041 	.word	0x40086041
    231c:	d2f1a9fc 	.word	0xd2f1a9fc
    2320:	4008624d 	.word	0x4008624d
    2324:	1cac0831 	.word	0x1cac0831
    2328:	4008645a 	.word	0x4008645a
    232c:	66666666 	.word	0x66666666
    2330:	40086666 	.word	0x40086666
    2334:	b020c49c 	.word	0xb020c49c
    2338:	40086872 	.word	0x40086872
    233c:	f9db22d1 	.word	0xf9db22d1
    2340:	40086a7e 	.word	0x40086a7e
    2344:	43958106 	.word	0x43958106
    2348:	40086c8b 	.word	0x40086c8b
    234c:	8d4fdf3b 	.word	0x8d4fdf3b
    2350:	40086e97 	.word	0x40086e97
    2354:	d70a3d71 	.word	0xd70a3d71
    2358:	400870a3 	.word	0x400870a3
    235c:	20c49ba6 	.word	0x20c49ba6
    2360:	400872b0 	.word	0x400872b0
    2364:	6a7ef9db 	.word	0x6a7ef9db
    2368:	400874bc 	.word	0x400874bc
    236c:	b4395810 	.word	0xb4395810
    2370:	400876c8 	.word	0x400876c8
    2374:	fdf3b646 	.word	0xfdf3b646
    2378:	400878d4 	.word	0x400878d4
    237c:	47ae147b 	.word	0x47ae147b
    2380:	40087ae1 	.word	0x40087ae1
    2384:	916872b0 	.word	0x916872b0
    2388:	40087ced 	.word	0x40087ced
    238c:	db22d0e5 	.word	0xdb22d0e5
    2390:	40087ef9 	.word	0x40087ef9
    2394:	24dd2f1b 	.word	0x24dd2f1b
    2398:	40088106 	.word	0x40088106
    239c:	6e978d50 	.word	0x6e978d50
    23a0:	40088312 	.word	0x40088312
    23a4:	b851eb85 	.word	0xb851eb85
    23a8:	4008851e 	.word	0x4008851e
    23ac:	020c49ba 	.word	0x020c49ba
    23b0:	4008872b 	.word	0x4008872b
    23b4:	4bc6a7f0 	.word	0x4bc6a7f0
    23b8:	40088937 	.word	0x40088937
    23bc:	95810625 	.word	0x95810625
    23c0:	40088b43 	.word	0x40088b43
    23c4:	df3b645a 	.word	0xdf3b645a
    23c8:	40088d4f 	.word	0x40088d4f
    23cc:	28f5c28f 	.word	0x28f5c28f
    23d0:	40088f5c 	.word	0x40088f5c
    23d4:	72b020c5 	.word	0x72b020c5
    23d8:	40089168 	.word	0x40089168
    23dc:	bc6a7efa 	.word	0xbc6a7efa
    23e0:	40089374 	.word	0x40089374
    23e4:	0624dd2f 	.word	0x0624dd2f
    23e8:	40089581 	.word	0x40089581
    23ec:	4fdf3b64 	.word	0x4fdf3b64
    23f0:	4008978d 	.word	0x4008978d
    23f4:	9999999a 	.word	0x9999999a
    23f8:	40089999 	.word	0x40089999
    23fc:	e353f7cf 	.word	0xe353f7cf
    2400:	40089ba5 	.word	0x40089ba5
    2404:	2d0e5604 	.word	0x2d0e5604
    2408:	40089db2 	.word	0x40089db2
    240c:	76c8b439 	.word	0x76c8b439
    2410:	40089fbe 	.word	0x40089fbe
    2414:	c083126f 	.word	0xc083126f
    2418:	4008a1ca 	.word	0x4008a1ca
    241c:	0a3d70a4 	.word	0x0a3d70a4
    2420:	4008a3d7 	.word	0x4008a3d7
    2424:	53f7ced9 	.word	0x53f7ced9
    2428:	4008a5e3 	.word	0x4008a5e3
    242c:	9db22d0e 	.word	0x9db22d0e
    2430:	4008a7ef 	.word	0x4008a7ef
    2434:	e76c8b44 	.word	0xe76c8b44
    2438:	4008a9fb 	.word	0x4008a9fb
    243c:	3126e979 	.word	0x3126e979
    2440:	4008ac08 	.word	0x4008ac08
    2444:	7ae147ae 	.word	0x7ae147ae
    2448:	4008ae14 	.word	0x4008ae14
    244c:	c49ba5e3 	.word	0xc49ba5e3
    2450:	4008b020 	.word	0x4008b020
    2454:	0e560419 	.word	0x0e560419
    2458:	4008b22d 	.word	0x4008b22d
    245c:	5810624e 	.word	0x5810624e
    2460:	4008b439 	.word	0x4008b439
    2464:	a1cac083 	.word	0xa1cac083
    2468:	4008b645 	.word	0x4008b645
    246c:	eb851eb8 	.word	0xeb851eb8
    2470:	4008b851 	.word	0x4008b851
    2474:	353f7cee 	.word	0x353f7cee
    2478:	4008ba5e 	.word	0x4008ba5e
    247c:	7ef9db23 	.word	0x7ef9db23
    2480:	4008bc6a 	.word	0x4008bc6a
    2484:	c8b43958 	.word	0xc8b43958
    2488:	4008be76 	.word	0x4008be76
    248c:	126e978d 	.word	0x126e978d
    2490:	4008c083 	.word	0x4008c083
    2494:	5c28f5c3 	.word	0x5c28f5c3
    2498:	4008c28f 	.word	0x4008c28f
    249c:	a5e353f8 	.word	0xa5e353f8
    24a0:	4008c49b 	.word	0x4008c49b
    24a4:	ef9db22d 	.word	0xef9db22d
    24a8:	4008c6a7 	.word	0x4008c6a7
    24ac:	39581062 	.word	0x39581062
    24b0:	4008c8b4 	.word	0x4008c8b4
    24b4:	83126e98 	.word	0x83126e98
    24b8:	4008cac0 	.word	0x4008cac0
    24bc:	cccccccd 	.word	0xcccccccd
    24c0:	4008cccc 	.word	0x4008cccc
    24c4:	16872b02 	.word	0x16872b02
    24c8:	4008ced9 	.word	0x4008ced9
    24cc:	60418937 	.word	0x60418937
    24d0:	4008d0e5 	.word	0x4008d0e5
    24d4:	a9fbe76d 	.word	0xa9fbe76d
    24d8:	4008d2f1 	.word	0x4008d2f1
    24dc:	f3b645a2 	.word	0xf3b645a2
    24e0:	4008d4fd 	.word	0x4008d4fd
    24e4:	3d70a3d7 	.word	0x3d70a3d7
    24e8:	4008d70a 	.word	0x4008d70a
    24ec:	872b020c 	.word	0x872b020c
    24f0:	4008d916 	.word	0x4008d916
    24f4:	d0e56042 	.word	0xd0e56042
    24f8:	4008db22 	.word	0x4008db22
    24fc:	1a9fbe77 	.word	0x1a9fbe77
    2500:	4008dd2f 	.word	0x4008dd2f
    2504:	645a1cac 	.word	0x645a1cac
    2508:	4008df3b 	.word	0x4008df3b
    250c:	ae147ae1 	.word	0xae147ae1
    2510:	4008e147 	.word	0x4008e147
    2514:	f7ced917 	.word	0xf7ced917
    2518:	4008e353 	.word	0x4008e353
    251c:	4189374c 	.word	0x4189374c
    2520:	4008e560 	.word	0x4008e560
    2524:	8b439581 	.word	0x8b439581
    2528:	4008e76c 	.word	0x4008e76c
    252c:	d4fdf3b6 	.word	0xd4fdf3b6
    2530:	4008e978 	.word	0x4008e978
    2534:	1eb851ec 	.word	0x1eb851ec
    2538:	4008eb85 	.word	0x4008eb85
    253c:	6872b021 	.word	0x6872b021
    2540:	4008ed91 	.word	0x4008ed91
    2544:	b22d0e56 	.word	0xb22d0e56
    2548:	4008ef9d 	.word	0x4008ef9d
    254c:	fbe76c8b 	.word	0xfbe76c8b
    2550:	4008f1a9 	.word	0x4008f1a9
    2554:	45a1cac1 	.word	0x45a1cac1
    2558:	4008f3b6 	.word	0x4008f3b6
    255c:	8f5c28f6 	.word	0x8f5c28f6
    2560:	4008f5c2 	.word	0x4008f5c2
    2564:	d916872b 	.word	0xd916872b
    2568:	4008f7ce 	.word	0x4008f7ce
    256c:	22d0e560 	.word	0x22d0e560
    2570:	4008f9db 	.word	0x4008f9db
    2574:	6c8b4396 	.word	0x6c8b4396
    2578:	4008fbe7 	.word	0x4008fbe7
    257c:	b645a1cb 	.word	0xb645a1cb
    2580:	4008fdf3 	.word	0x4008fdf3
    2584:	00000000 	.word	0x00000000
    2588:	40090000 	.word	0x40090000
    258c:	49ba5e35 	.word	0x49ba5e35
    2590:	4009020c 	.word	0x4009020c
    2594:	9374bc6a 	.word	0x9374bc6a
    2598:	40090418 	.word	0x40090418
    259c:	dd2f1aa0 	.word	0xdd2f1aa0
    25a0:	40090624 	.word	0x40090624
    25a4:	24dd2f1b 	.word	0x24dd2f1b
    25a8:	40100106 	.word	0x40100106
    25ac:	49ba5e35 	.word	0x49ba5e35
    25b0:	4010020c 	.word	0x4010020c
    25b4:	6e978d50 	.word	0x6e978d50
    25b8:	40100312 	.word	0x40100312
    25bc:	9374bc6a 	.word	0x9374bc6a
    25c0:	40100418 	.word	0x40100418
    25c4:	b851eb85 	.word	0xb851eb85
    25c8:	4010051e 	.word	0x4010051e
    25cc:	dd2f1aa0 	.word	0xdd2f1aa0
    25d0:	40100624 	.word	0x40100624
    25d4:	020c49ba 	.word	0x020c49ba
    25d8:	4010072b 	.word	0x4010072b
    25dc:	26e978d5 	.word	0x26e978d5
    25e0:	40100831 	.word	0x40100831
    25e4:	4bc6a7f0 	.word	0x4bc6a7f0
    25e8:	40100937 	.word	0x40100937
    25ec:	70a3d70a 	.word	0x70a3d70a
    25f0:	40100a3d 	.word	0x40100a3d
    25f4:	95810625 	.word	0x95810625
    25f8:	40100b43 	.word	0x40100b43
    25fc:	ba5e353f 	.word	0xba5e353f
    2600:	40100c49 	.word	0x40100c49
    2604:	df3b645a 	.word	0xdf3b645a
    2608:	40100d4f 	.word	0x40100d4f
    260c:	04189375 	.word	0x04189375
    2610:	40100e56 	.word	0x40100e56
    2614:	28f5c28f 	.word	0x28f5c28f
    2618:	40100f5c 	.word	0x40100f5c
    261c:	4dd2f1aa 	.word	0x4dd2f1aa
    2620:	40101062 	.word	0x40101062
    2624:	72b020c5 	.word	0x72b020c5
    2628:	40101168 	.word	0x40101168
    262c:	978d4fdf 	.word	0x978d4fdf
    2630:	4010126e 	.word	0x4010126e
    2634:	bc6a7efa 	.word	0xbc6a7efa
    2638:	40101374 	.word	0x40101374
    263c:	e147ae14 	.word	0xe147ae14
    2640:	4010147a 	.word	0x4010147a
    2644:	0624dd2f 	.word	0x0624dd2f
    2648:	40101581 	.word	0x40101581
    264c:	2b020c4a 	.word	0x2b020c4a
    2650:	40101687 	.word	0x40101687
    2654:	4fdf3b64 	.word	0x4fdf3b64
    2658:	4010178d 	.word	0x4010178d
    265c:	74bc6a7f 	.word	0x74bc6a7f
    2660:	40101893 	.word	0x40101893
    2664:	9999999a 	.word	0x9999999a
    2668:	40101999 	.word	0x40101999
    266c:	be76c8b4 	.word	0xbe76c8b4
    2670:	40101a9f 	.word	0x40101a9f
    2674:	e353f7cf 	.word	0xe353f7cf
    2678:	40101ba5 	.word	0x40101ba5
    267c:	083126e9 	.word	0x083126e9
    2680:	40101cac 	.word	0x40101cac
    2684:	2d0e5604 	.word	0x2d0e5604
    2688:	40101db2 	.word	0x40101db2
    268c:	51eb851f 	.word	0x51eb851f
    2690:	40101eb8 	.word	0x40101eb8
    2694:	76c8b439 	.word	0x76c8b439
    2698:	40101fbe 	.word	0x40101fbe
    269c:	9ba5e354 	.word	0x9ba5e354
    26a0:	401020c4 	.word	0x401020c4
    26a4:	c083126f 	.word	0xc083126f
    26a8:	401021ca 	.word	0x401021ca
    26ac:	e5604189 	.word	0xe5604189
    26b0:	401022d0 	.word	0x401022d0
    26b4:	0a3d70a4 	.word	0x0a3d70a4
    26b8:	401023d7 	.word	0x401023d7
    26bc:	2f1a9fbe 	.word	0x2f1a9fbe
    26c0:	401024dd 	.word	0x401024dd
    26c4:	53f7ced9 	.word	0x53f7ced9
    26c8:	401025e3 	.word	0x401025e3
    26cc:	78d4fdf4 	.word	0x78d4fdf4
    26d0:	401026e9 	.word	0x401026e9
    26d4:	9db22d0e 	.word	0x9db22d0e
    26d8:	401027ef 	.word	0x401027ef
    26dc:	c28f5c29 	.word	0xc28f5c29
    26e0:	401028f5 	.word	0x401028f5
    26e4:	e76c8b44 	.word	0xe76c8b44
    26e8:	401029fb 	.word	0x401029fb
    26ec:	0c49ba5e 	.word	0x0c49ba5e
    26f0:	40102b02 	.word	0x40102b02
    26f4:	3126e979 	.word	0x3126e979
    26f8:	40102c08 	.word	0x40102c08
    26fc:	56041893 	.word	0x56041893
    2700:	40102d0e 	.word	0x40102d0e
    2704:	7ae147ae 	.word	0x7ae147ae
    2708:	40102e14 	.word	0x40102e14
    270c:	9fbe76c9 	.word	0x9fbe76c9
    2710:	40102f1a 	.word	0x40102f1a
    2714:	c49ba5e3 	.word	0xc49ba5e3
    2718:	40103020 	.word	0x40103020
    271c:	e978d4fe 	.word	0xe978d4fe
    2720:	40103126 	.word	0x40103126
    2724:	0e560419 	.word	0x0e560419
    2728:	4010322d 	.word	0x4010322d
    272c:	33333333 	.word	0x33333333
    2730:	40103333 	.word	0x40103333
    2734:	5810624e 	.word	0x5810624e
    2738:	40103439 	.word	0x40103439
    273c:	7ced9168 	.word	0x7ced9168
    2740:	4010353f 	.word	0x4010353f
    2744:	a1cac083 	.word	0xa1cac083
    2748:	40103645 	.word	0x40103645
    274c:	c6a7ef9e 	.word	0xc6a7ef9e
    2750:	4010374b 	.word	0x4010374b
    2754:	eb851eb8 	.word	0xeb851eb8
    2758:	40103851 	.word	0x40103851
    275c:	10624dd3 	.word	0x10624dd3
    2760:	40103958 	.word	0x40103958
    2764:	353f7cee 	.word	0x353f7cee
    2768:	40103a5e 	.word	0x40103a5e
    276c:	5a1cac08 	.word	0x5a1cac08
    2770:	40103b64 	.word	0x40103b64
    2774:	7ef9db23 	.word	0x7ef9db23
    2778:	40103c6a 	.word	0x40103c6a
    277c:	a3d70a3d 	.word	0xa3d70a3d
    2780:	40103d70 	.word	0x40103d70
    2784:	c8b43958 	.word	0xc8b43958
    2788:	40103e76 	.word	0x40103e76
    278c:	ed916873 	.word	0xed916873
    2790:	40103f7c 	.word	0x40103f7c
    2794:	126e978d 	.word	0x126e978d
    2798:	40104083 	.word	0x40104083
    279c:	374bc6a8 	.word	0x374bc6a8
    27a0:	40104189 	.word	0x40104189
    27a4:	5c28f5c3 	.word	0x5c28f5c3
    27a8:	4010428f 	.word	0x4010428f
    27ac:	810624dd 	.word	0x810624dd
    27b0:	40104395 	.word	0x40104395
    27b4:	a5e353f8 	.word	0xa5e353f8
    27b8:	4010449b 	.word	0x4010449b
    27bc:	cac08312 	.word	0xcac08312
    27c0:	401045a1 	.word	0x401045a1
    27c4:	ef9db22d 	.word	0xef9db22d
    27c8:	401046a7 	.word	0x401046a7
    27cc:	147ae148 	.word	0x147ae148
    27d0:	401047ae 	.word	0x401047ae
    27d4:	39581062 	.word	0x39581062
    27d8:	401048b4 	.word	0x401048b4
    27dc:	5e353f7d 	.word	0x5e353f7d
    27e0:	401049ba 	.word	0x401049ba
    27e4:	83126e98 	.word	0x83126e98
    27e8:	40104ac0 	.word	0x40104ac0
    27ec:	a7ef9db2 	.word	0xa7ef9db2
    27f0:	40104bc6 	.word	0x40104bc6
    27f4:	cccccccd 	.word	0xcccccccd
    27f8:	40104ccc 	.word	0x40104ccc
    27fc:	f1a9fbe7 	.word	0xf1a9fbe7
    2800:	40104dd2 	.word	0x40104dd2
    2804:	16872b02 	.word	0x16872b02
    2808:	40104ed9 	.word	0x40104ed9
    280c:	3b645a1d 	.word	0x3b645a1d
    2810:	40104fdf 	.word	0x40104fdf
    2814:	60418937 	.word	0x60418937
    2818:	401050e5 	.word	0x401050e5
    281c:	851eb852 	.word	0x851eb852
    2820:	401051eb 	.word	0x401051eb
    2824:	a9fbe76d 	.word	0xa9fbe76d
    2828:	401052f1 	.word	0x401052f1
    282c:	ced91687 	.word	0xced91687
    2830:	401053f7 	.word	0x401053f7
    2834:	f3b645a2 	.word	0xf3b645a2
    2838:	401054fd 	.word	0x401054fd
    283c:	189374bc 	.word	0x189374bc
    2840:	40105604 	.word	0x40105604
    2844:	3d70a3d7 	.word	0x3d70a3d7
    2848:	4010570a 	.word	0x4010570a
    284c:	624dd2f2 	.word	0x624dd2f2
    2850:	40105810 	.word	0x40105810
    2854:	872b020c 	.word	0x872b020c
    2858:	40105916 	.word	0x40105916
    285c:	ac083127 	.word	0xac083127
    2860:	40105a1c 	.word	0x40105a1c
    2864:	d0e56042 	.word	0xd0e56042
    2868:	40105b22 	.word	0x40105b22
    286c:	f5c28f5c 	.word	0xf5c28f5c
    2870:	40105c28 	.word	0x40105c28
    2874:	1a9fbe77 	.word	0x1a9fbe77
    2878:	40105d2f 	.word	0x40105d2f
    287c:	3f7ced91 	.word	0x3f7ced91
    2880:	40105e35 	.word	0x40105e35
    2884:	645a1cac 	.word	0x645a1cac
    2888:	40105f3b 	.word	0x40105f3b
    288c:	89374bc7 	.word	0x89374bc7
    2890:	40106041 	.word	0x40106041
    2894:	ae147ae1 	.word	0xae147ae1
    2898:	40106147 	.word	0x40106147
    289c:	d2f1a9fc 	.word	0xd2f1a9fc
    28a0:	4010624d 	.word	0x4010624d
    28a4:	f7ced917 	.word	0xf7ced917
    28a8:	40106353 	.word	0x40106353
    28ac:	1cac0831 	.word	0x1cac0831
    28b0:	4010645a 	.word	0x4010645a
    28b4:	4189374c 	.word	0x4189374c
    28b8:	40106560 	.word	0x40106560
    28bc:	66666666 	.word	0x66666666
    28c0:	40106666 	.word	0x40106666
    28c4:	8b439581 	.word	0x8b439581
    28c8:	4010676c 	.word	0x4010676c
    28cc:	b020c49c 	.word	0xb020c49c
    28d0:	40106872 	.word	0x40106872
    28d4:	d4fdf3b6 	.word	0xd4fdf3b6
    28d8:	40106978 	.word	0x40106978
    28dc:	f9db22d1 	.word	0xf9db22d1
    28e0:	40106a7e 	.word	0x40106a7e
    28e4:	1eb851ec 	.word	0x1eb851ec
    28e8:	40106b85 	.word	0x40106b85
    28ec:	43958106 	.word	0x43958106
    28f0:	40106c8b 	.word	0x40106c8b
    28f4:	6872b021 	.word	0x6872b021
    28f8:	40106d91 	.word	0x40106d91
    28fc:	8d4fdf3b 	.word	0x8d4fdf3b
    2900:	40106e97 	.word	0x40106e97
    2904:	b22d0e56 	.word	0xb22d0e56
    2908:	40106f9d 	.word	0x40106f9d
    290c:	d70a3d71 	.word	0xd70a3d71
    2910:	401070a3 	.word	0x401070a3
    2914:	fbe76c8b 	.word	0xfbe76c8b
    2918:	401071a9 	.word	0x401071a9
    291c:	20c49ba6 	.word	0x20c49ba6
    2920:	401072b0 	.word	0x401072b0
    2924:	45a1cac1 	.word	0x45a1cac1
    2928:	401073b6 	.word	0x401073b6
    292c:	6a7ef9db 	.word	0x6a7ef9db
    2930:	401074bc 	.word	0x401074bc
    2934:	8f5c28f6 	.word	0x8f5c28f6
    2938:	401075c2 	.word	0x401075c2
    293c:	b4395810 	.word	0xb4395810
    2940:	401076c8 	.word	0x401076c8
    2944:	d916872b 	.word	0xd916872b
    2948:	401077ce 	.word	0x401077ce
    294c:	fdf3b646 	.word	0xfdf3b646
    2950:	401078d4 	.word	0x401078d4
    2954:	22d0e560 	.word	0x22d0e560
    2958:	401079db 	.word	0x401079db
    295c:	47ae147b 	.word	0x47ae147b
    2960:	40107ae1 	.word	0x40107ae1
    2964:	6c8b4396 	.word	0x6c8b4396
    2968:	40107be7 	.word	0x40107be7
    296c:	916872b0 	.word	0x916872b0
    2970:	40107ced 	.word	0x40107ced
    2974:	b645a1cb 	.word	0xb645a1cb
    2978:	40107df3 	.word	0x40107df3
    297c:	db22d0e5 	.word	0xdb22d0e5
    2980:	40107ef9 	.word	0x40107ef9
    2984:	00000000 	.word	0x00000000
    2988:	40108000 	.word	0x40108000
    298c:	24dd2f1b 	.word	0x24dd2f1b
    2990:	40108106 	.word	0x40108106
    2994:	49ba5e35 	.word	0x49ba5e35
    2998:	4010820c 	.word	0x4010820c
    299c:	6e978d50 	.word	0x6e978d50
    29a0:	40108312 	.word	0x40108312
    29a4:	24dd2f1b 	.word	0x24dd2f1b
    29a8:	40140106 	.word	0x40140106
    29ac:	49ba5e35 	.word	0x49ba5e35
    29b0:	4014020c 	.word	0x4014020c
    29b4:	6e978d50 	.word	0x6e978d50
    29b8:	40140312 	.word	0x40140312
    29bc:	9374bc6a 	.word	0x9374bc6a
    29c0:	40140418 	.word	0x40140418
    29c4:	b851eb85 	.word	0xb851eb85
    29c8:	4014051e 	.word	0x4014051e
    29cc:	dd2f1aa0 	.word	0xdd2f1aa0
    29d0:	40140624 	.word	0x40140624
    29d4:	020c49ba 	.word	0x020c49ba
    29d8:	4014072b 	.word	0x4014072b
    29dc:	26e978d5 	.word	0x26e978d5
    29e0:	40140831 	.word	0x40140831
    29e4:	4bc6a7f0 	.word	0x4bc6a7f0
    29e8:	40140937 	.word	0x40140937
    29ec:	70a3d70a 	.word	0x70a3d70a
    29f0:	40140a3d 	.word	0x40140a3d
    29f4:	95810625 	.word	0x95810625
    29f8:	40140b43 	.word	0x40140b43
    29fc:	ba5e353f 	.word	0xba5e353f
    2a00:	40140c49 	.word	0x40140c49
    2a04:	df3b645a 	.word	0xdf3b645a
    2a08:	40140d4f 	.word	0x40140d4f
    2a0c:	04189375 	.word	0x04189375
    2a10:	40140e56 	.word	0x40140e56
    2a14:	28f5c28f 	.word	0x28f5c28f
    2a18:	40140f5c 	.word	0x40140f5c
    2a1c:	4dd2f1aa 	.word	0x4dd2f1aa
    2a20:	40141062 	.word	0x40141062
    2a24:	72b020c5 	.word	0x72b020c5
    2a28:	40141168 	.word	0x40141168
    2a2c:	978d4fdf 	.word	0x978d4fdf
    2a30:	4014126e 	.word	0x4014126e
    2a34:	bc6a7efa 	.word	0xbc6a7efa
    2a38:	40141374 	.word	0x40141374
    2a3c:	e147ae14 	.word	0xe147ae14
    2a40:	4014147a 	.word	0x4014147a
    2a44:	0624dd2f 	.word	0x0624dd2f
    2a48:	40141581 	.word	0x40141581
    2a4c:	2b020c4a 	.word	0x2b020c4a
    2a50:	40141687 	.word	0x40141687
    2a54:	4fdf3b64 	.word	0x4fdf3b64
    2a58:	4014178d 	.word	0x4014178d
    2a5c:	74bc6a7f 	.word	0x74bc6a7f
    2a60:	40141893 	.word	0x40141893
    2a64:	9999999a 	.word	0x9999999a
    2a68:	40141999 	.word	0x40141999
    2a6c:	be76c8b4 	.word	0xbe76c8b4
    2a70:	40141a9f 	.word	0x40141a9f
    2a74:	e353f7cf 	.word	0xe353f7cf
    2a78:	40141ba5 	.word	0x40141ba5
    2a7c:	083126e9 	.word	0x083126e9
    2a80:	40141cac 	.word	0x40141cac
    2a84:	2d0e5604 	.word	0x2d0e5604
    2a88:	40141db2 	.word	0x40141db2
    2a8c:	51eb851f 	.word	0x51eb851f
    2a90:	40141eb8 	.word	0x40141eb8
    2a94:	76c8b439 	.word	0x76c8b439
    2a98:	40141fbe 	.word	0x40141fbe
    2a9c:	9ba5e354 	.word	0x9ba5e354
    2aa0:	401420c4 	.word	0x401420c4
    2aa4:	c083126f 	.word	0xc083126f
    2aa8:	401421ca 	.word	0x401421ca
    2aac:	e5604189 	.word	0xe5604189
    2ab0:	401422d0 	.word	0x401422d0
    2ab4:	0a3d70a4 	.word	0x0a3d70a4
    2ab8:	401423d7 	.word	0x401423d7
    2abc:	2f1a9fbe 	.word	0x2f1a9fbe
    2ac0:	401424dd 	.word	0x401424dd
    2ac4:	53f7ced9 	.word	0x53f7ced9
    2ac8:	401425e3 	.word	0x401425e3
    2acc:	78d4fdf4 	.word	0x78d4fdf4
    2ad0:	401426e9 	.word	0x401426e9
    2ad4:	9db22d0e 	.word	0x9db22d0e
    2ad8:	401427ef 	.word	0x401427ef
    2adc:	c28f5c29 	.word	0xc28f5c29
    2ae0:	401428f5 	.word	0x401428f5
    2ae4:	e76c8b44 	.word	0xe76c8b44
    2ae8:	401429fb 	.word	0x401429fb
    2aec:	0c49ba5e 	.word	0x0c49ba5e
    2af0:	40142b02 	.word	0x40142b02
    2af4:	3126e979 	.word	0x3126e979
    2af8:	40142c08 	.word	0x40142c08
    2afc:	56041893 	.word	0x56041893
    2b00:	40142d0e 	.word	0x40142d0e
    2b04:	7ae147ae 	.word	0x7ae147ae
    2b08:	40142e14 	.word	0x40142e14
    2b0c:	9fbe76c9 	.word	0x9fbe76c9
    2b10:	40142f1a 	.word	0x40142f1a
    2b14:	c49ba5e3 	.word	0xc49ba5e3
    2b18:	40143020 	.word	0x40143020
    2b1c:	e978d4fe 	.word	0xe978d4fe
    2b20:	40143126 	.word	0x40143126
    2b24:	0e560419 	.word	0x0e560419
    2b28:	4014322d 	.word	0x4014322d
    2b2c:	33333333 	.word	0x33333333
    2b30:	40143333 	.word	0x40143333
    2b34:	5810624e 	.word	0x5810624e
    2b38:	40143439 	.word	0x40143439
    2b3c:	7ced9168 	.word	0x7ced9168
    2b40:	4014353f 	.word	0x4014353f
    2b44:	a1cac083 	.word	0xa1cac083
    2b48:	40143645 	.word	0x40143645
    2b4c:	c6a7ef9e 	.word	0xc6a7ef9e
    2b50:	4014374b 	.word	0x4014374b
    2b54:	eb851eb8 	.word	0xeb851eb8
    2b58:	40143851 	.word	0x40143851
    2b5c:	10624dd3 	.word	0x10624dd3
    2b60:	40143958 	.word	0x40143958
    2b64:	353f7cee 	.word	0x353f7cee
    2b68:	40143a5e 	.word	0x40143a5e
    2b6c:	5a1cac08 	.word	0x5a1cac08
    2b70:	40143b64 	.word	0x40143b64
    2b74:	7ef9db23 	.word	0x7ef9db23
    2b78:	40143c6a 	.word	0x40143c6a
    2b7c:	a3d70a3d 	.word	0xa3d70a3d
    2b80:	40143d70 	.word	0x40143d70
    2b84:	c8b43958 	.word	0xc8b43958
    2b88:	40143e76 	.word	0x40143e76
    2b8c:	ed916873 	.word	0xed916873
    2b90:	40143f7c 	.word	0x40143f7c
    2b94:	126e978d 	.word	0x126e978d
    2b98:	40144083 	.word	0x40144083
    2b9c:	374bc6a8 	.word	0x374bc6a8
    2ba0:	40144189 	.word	0x40144189
    2ba4:	5c28f5c3 	.word	0x5c28f5c3
    2ba8:	4014428f 	.word	0x4014428f
    2bac:	810624dd 	.word	0x810624dd
    2bb0:	40144395 	.word	0x40144395
    2bb4:	a5e353f8 	.word	0xa5e353f8
    2bb8:	4014449b 	.word	0x4014449b
    2bbc:	cac08312 	.word	0xcac08312
    2bc0:	401445a1 	.word	0x401445a1
    2bc4:	ef9db22d 	.word	0xef9db22d
    2bc8:	401446a7 	.word	0x401446a7
    2bcc:	147ae148 	.word	0x147ae148
    2bd0:	401447ae 	.word	0x401447ae
    2bd4:	39581062 	.word	0x39581062
    2bd8:	401448b4 	.word	0x401448b4
    2bdc:	5e353f7d 	.word	0x5e353f7d
    2be0:	401449ba 	.word	0x401449ba
    2be4:	83126e98 	.word	0x83126e98
    2be8:	40144ac0 	.word	0x40144ac0
    2bec:	a7ef9db2 	.word	0xa7ef9db2
    2bf0:	40144bc6 	.word	0x40144bc6
    2bf4:	cccccccd 	.word	0xcccccccd
    2bf8:	40144ccc 	.word	0x40144ccc
    2bfc:	f1a9fbe7 	.word	0xf1a9fbe7
    2c00:	40144dd2 	.word	0x40144dd2
    2c04:	16872b02 	.word	0x16872b02
    2c08:	40144ed9 	.word	0x40144ed9
    2c0c:	3b645a1d 	.word	0x3b645a1d
    2c10:	40144fdf 	.word	0x40144fdf
    2c14:	60418937 	.word	0x60418937
    2c18:	401450e5 	.word	0x401450e5
    2c1c:	851eb852 	.word	0x851eb852
    2c20:	401451eb 	.word	0x401451eb
    2c24:	a9fbe76d 	.word	0xa9fbe76d
    2c28:	401452f1 	.word	0x401452f1
    2c2c:	ced91687 	.word	0xced91687
    2c30:	401453f7 	.word	0x401453f7
    2c34:	f3b645a2 	.word	0xf3b645a2
    2c38:	401454fd 	.word	0x401454fd
    2c3c:	189374bc 	.word	0x189374bc
    2c40:	40145604 	.word	0x40145604
    2c44:	3d70a3d7 	.word	0x3d70a3d7
    2c48:	4014570a 	.word	0x4014570a
    2c4c:	624dd2f2 	.word	0x624dd2f2
    2c50:	40145810 	.word	0x40145810
    2c54:	872b020c 	.word	0x872b020c
    2c58:	40145916 	.word	0x40145916
    2c5c:	ac083127 	.word	0xac083127
    2c60:	40145a1c 	.word	0x40145a1c
    2c64:	d0e56042 	.word	0xd0e56042
    2c68:	40145b22 	.word	0x40145b22
    2c6c:	f5c28f5c 	.word	0xf5c28f5c
    2c70:	40145c28 	.word	0x40145c28
    2c74:	1a9fbe77 	.word	0x1a9fbe77
    2c78:	40145d2f 	.word	0x40145d2f
    2c7c:	3f7ced91 	.word	0x3f7ced91
    2c80:	40145e35 	.word	0x40145e35
    2c84:	645a1cac 	.word	0x645a1cac
    2c88:	40145f3b 	.word	0x40145f3b
    2c8c:	89374bc7 	.word	0x89374bc7
    2c90:	40146041 	.word	0x40146041
    2c94:	ae147ae1 	.word	0xae147ae1
    2c98:	40146147 	.word	0x40146147
    2c9c:	d2f1a9fc 	.word	0xd2f1a9fc
    2ca0:	4014624d 	.word	0x4014624d
    2ca4:	f7ced917 	.word	0xf7ced917
    2ca8:	40146353 	.word	0x40146353
    2cac:	1cac0831 	.word	0x1cac0831
    2cb0:	4014645a 	.word	0x4014645a
    2cb4:	4189374c 	.word	0x4189374c
    2cb8:	40146560 	.word	0x40146560
    2cbc:	66666666 	.word	0x66666666
    2cc0:	40146666 	.word	0x40146666
    2cc4:	8b439581 	.word	0x8b439581
    2cc8:	4014676c 	.word	0x4014676c
    2ccc:	b020c49c 	.word	0xb020c49c
    2cd0:	40146872 	.word	0x40146872
    2cd4:	d4fdf3b6 	.word	0xd4fdf3b6
    2cd8:	40146978 	.word	0x40146978
    2cdc:	f9db22d1 	.word	0xf9db22d1
    2ce0:	40146a7e 	.word	0x40146a7e
    2ce4:	1eb851ec 	.word	0x1eb851ec
    2ce8:	40146b85 	.word	0x40146b85
    2cec:	43958106 	.word	0x43958106
    2cf0:	40146c8b 	.word	0x40146c8b
    2cf4:	6872b021 	.word	0x6872b021
    2cf8:	40146d91 	.word	0x40146d91
    2cfc:	8d4fdf3b 	.word	0x8d4fdf3b
    2d00:	40146e97 	.word	0x40146e97
    2d04:	b22d0e56 	.word	0xb22d0e56
    2d08:	40146f9d 	.word	0x40146f9d
    2d0c:	d70a3d71 	.word	0xd70a3d71
    2d10:	401470a3 	.word	0x401470a3
    2d14:	fbe76c8b 	.word	0xfbe76c8b
    2d18:	401471a9 	.word	0x401471a9
    2d1c:	20c49ba6 	.word	0x20c49ba6
    2d20:	401472b0 	.word	0x401472b0
    2d24:	45a1cac1 	.word	0x45a1cac1
    2d28:	401473b6 	.word	0x401473b6
    2d2c:	6a7ef9db 	.word	0x6a7ef9db
    2d30:	401474bc 	.word	0x401474bc
    2d34:	8f5c28f6 	.word	0x8f5c28f6
    2d38:	401475c2 	.word	0x401475c2
    2d3c:	b4395810 	.word	0xb4395810
    2d40:	401476c8 	.word	0x401476c8
    2d44:	d916872b 	.word	0xd916872b
    2d48:	401477ce 	.word	0x401477ce
    2d4c:	fdf3b646 	.word	0xfdf3b646
    2d50:	401478d4 	.word	0x401478d4
    2d54:	22d0e560 	.word	0x22d0e560
    2d58:	401479db 	.word	0x401479db
    2d5c:	47ae147b 	.word	0x47ae147b
    2d60:	40147ae1 	.word	0x40147ae1
    2d64:	6c8b4396 	.word	0x6c8b4396
    2d68:	40147be7 	.word	0x40147be7
    2d6c:	916872b0 	.word	0x916872b0
    2d70:	40147ced 	.word	0x40147ced
    2d74:	b645a1cb 	.word	0xb645a1cb
    2d78:	40147df3 	.word	0x40147df3
    2d7c:	db22d0e5 	.word	0xdb22d0e5
    2d80:	40147ef9 	.word	0x40147ef9
    2d84:	00000000 	.word	0x00000000
    2d88:	40148000 	.word	0x40148000
    2d8c:	24dd2f1b 	.word	0x24dd2f1b
    2d90:	40148106 	.word	0x40148106
    2d94:	49ba5e35 	.word	0x49ba5e35
    2d98:	4014820c 	.word	0x4014820c
    2d9c:	6e978d50 	.word	0x6e978d50
    2da0:	40148312 	.word	0x40148312
    2da4:	24dd2f1b 	.word	0x24dd2f1b
    2da8:	40180106 	.word	0x40180106
    2dac:	49ba5e35 	.word	0x49ba5e35
    2db0:	4018020c 	.word	0x4018020c
    2db4:	6e978d50 	.word	0x6e978d50
    2db8:	40180312 	.word	0x40180312
    2dbc:	9374bc6a 	.word	0x9374bc6a
    2dc0:	40180418 	.word	0x40180418
    2dc4:	b851eb85 	.word	0xb851eb85
    2dc8:	4018051e 	.word	0x4018051e
    2dcc:	dd2f1aa0 	.word	0xdd2f1aa0
    2dd0:	40180624 	.word	0x40180624
    2dd4:	020c49ba 	.word	0x020c49ba
    2dd8:	4018072b 	.word	0x4018072b
    2ddc:	26e978d5 	.word	0x26e978d5
    2de0:	40180831 	.word	0x40180831
    2de4:	4bc6a7f0 	.word	0x4bc6a7f0
    2de8:	40180937 	.word	0x40180937
    2dec:	70a3d70a 	.word	0x70a3d70a
    2df0:	40180a3d 	.word	0x40180a3d
    2df4:	95810625 	.word	0x95810625
    2df8:	40180b43 	.word	0x40180b43
    2dfc:	ba5e353f 	.word	0xba5e353f
    2e00:	40180c49 	.word	0x40180c49
    2e04:	df3b645a 	.word	0xdf3b645a
    2e08:	40180d4f 	.word	0x40180d4f
    2e0c:	04189375 	.word	0x04189375
    2e10:	40180e56 	.word	0x40180e56
    2e14:	28f5c28f 	.word	0x28f5c28f
    2e18:	40180f5c 	.word	0x40180f5c
    2e1c:	4dd2f1aa 	.word	0x4dd2f1aa
    2e20:	40181062 	.word	0x40181062
    2e24:	72b020c5 	.word	0x72b020c5
    2e28:	40181168 	.word	0x40181168
    2e2c:	978d4fdf 	.word	0x978d4fdf
    2e30:	4018126e 	.word	0x4018126e
    2e34:	bc6a7efa 	.word	0xbc6a7efa
    2e38:	40181374 	.word	0x40181374
    2e3c:	e147ae14 	.word	0xe147ae14
    2e40:	4018147a 	.word	0x4018147a
    2e44:	0624dd2f 	.word	0x0624dd2f
    2e48:	40181581 	.word	0x40181581
    2e4c:	2b020c4a 	.word	0x2b020c4a
    2e50:	40181687 	.word	0x40181687
    2e54:	4fdf3b64 	.word	0x4fdf3b64
    2e58:	4018178d 	.word	0x4018178d
    2e5c:	74bc6a7f 	.word	0x74bc6a7f
    2e60:	40181893 	.word	0x40181893
    2e64:	9999999a 	.word	0x9999999a
    2e68:	40181999 	.word	0x40181999
    2e6c:	be76c8b4 	.word	0xbe76c8b4
    2e70:	40181a9f 	.word	0x40181a9f
    2e74:	e353f7cf 	.word	0xe353f7cf
    2e78:	40181ba5 	.word	0x40181ba5
    2e7c:	083126e9 	.word	0x083126e9
    2e80:	40181cac 	.word	0x40181cac
    2e84:	2d0e5604 	.word	0x2d0e5604
    2e88:	40181db2 	.word	0x40181db2
    2e8c:	51eb851f 	.word	0x51eb851f
    2e90:	40181eb8 	.word	0x40181eb8
    2e94:	76c8b439 	.word	0x76c8b439
    2e98:	40181fbe 	.word	0x40181fbe
    2e9c:	9ba5e354 	.word	0x9ba5e354
    2ea0:	401820c4 	.word	0x401820c4
    2ea4:	c083126f 	.word	0xc083126f
    2ea8:	401821ca 	.word	0x401821ca
    2eac:	e5604189 	.word	0xe5604189
    2eb0:	401822d0 	.word	0x401822d0
    2eb4:	0a3d70a4 	.word	0x0a3d70a4
    2eb8:	401823d7 	.word	0x401823d7
    2ebc:	2f1a9fbe 	.word	0x2f1a9fbe
    2ec0:	401824dd 	.word	0x401824dd
    2ec4:	53f7ced9 	.word	0x53f7ced9
    2ec8:	401825e3 	.word	0x401825e3
    2ecc:	78d4fdf4 	.word	0x78d4fdf4
    2ed0:	401826e9 	.word	0x401826e9
    2ed4:	9db22d0e 	.word	0x9db22d0e
    2ed8:	401827ef 	.word	0x401827ef
    2edc:	c28f5c29 	.word	0xc28f5c29
    2ee0:	401828f5 	.word	0x401828f5
    2ee4:	e76c8b44 	.word	0xe76c8b44
    2ee8:	401829fb 	.word	0x401829fb
    2eec:	0c49ba5e 	.word	0x0c49ba5e
    2ef0:	40182b02 	.word	0x40182b02
    2ef4:	3126e979 	.word	0x3126e979
    2ef8:	40182c08 	.word	0x40182c08
    2efc:	56041893 	.word	0x56041893
    2f00:	40182d0e 	.word	0x40182d0e
    2f04:	7ae147ae 	.word	0x7ae147ae
    2f08:	40182e14 	.word	0x40182e14
    2f0c:	9fbe76c9 	.word	0x9fbe76c9
    2f10:	40182f1a 	.word	0x40182f1a
    2f14:	c49ba5e3 	.word	0xc49ba5e3
    2f18:	40183020 	.word	0x40183020
    2f1c:	e978d4fe 	.word	0xe978d4fe
    2f20:	40183126 	.word	0x40183126
    2f24:	0e560419 	.word	0x0e560419
    2f28:	4018322d 	.word	0x4018322d
    2f2c:	33333333 	.word	0x33333333
    2f30:	40183333 	.word	0x40183333
    2f34:	5810624e 	.word	0x5810624e
    2f38:	40183439 	.word	0x40183439
    2f3c:	7ced9168 	.word	0x7ced9168
    2f40:	4018353f 	.word	0x4018353f
    2f44:	a1cac083 	.word	0xa1cac083
    2f48:	40183645 	.word	0x40183645
    2f4c:	c6a7ef9e 	.word	0xc6a7ef9e
    2f50:	4018374b 	.word	0x4018374b
    2f54:	eb851eb8 	.word	0xeb851eb8
    2f58:	40183851 	.word	0x40183851
    2f5c:	10624dd3 	.word	0x10624dd3
    2f60:	40183958 	.word	0x40183958
    2f64:	353f7cee 	.word	0x353f7cee
    2f68:	40183a5e 	.word	0x40183a5e
    2f6c:	5a1cac08 	.word	0x5a1cac08
    2f70:	40183b64 	.word	0x40183b64
    2f74:	7ef9db23 	.word	0x7ef9db23
    2f78:	40183c6a 	.word	0x40183c6a
    2f7c:	a3d70a3d 	.word	0xa3d70a3d
    2f80:	40183d70 	.word	0x40183d70
    2f84:	c8b43958 	.word	0xc8b43958
    2f88:	40183e76 	.word	0x40183e76
    2f8c:	ed916873 	.word	0xed916873
    2f90:	40183f7c 	.word	0x40183f7c
    2f94:	126e978d 	.word	0x126e978d
    2f98:	40184083 	.word	0x40184083
    2f9c:	374bc6a8 	.word	0x374bc6a8
    2fa0:	40184189 	.word	0x40184189
    2fa4:	5c28f5c3 	.word	0x5c28f5c3
    2fa8:	4018428f 	.word	0x4018428f
    2fac:	810624dd 	.word	0x810624dd
    2fb0:	40184395 	.word	0x40184395
    2fb4:	a5e353f8 	.word	0xa5e353f8
    2fb8:	4018449b 	.word	0x4018449b
    2fbc:	cac08312 	.word	0xcac08312
    2fc0:	401845a1 	.word	0x401845a1
    2fc4:	ef9db22d 	.word	0xef9db22d
    2fc8:	401846a7 	.word	0x401846a7
    2fcc:	147ae148 	.word	0x147ae148
    2fd0:	401847ae 	.word	0x401847ae
    2fd4:	39581062 	.word	0x39581062
    2fd8:	401848b4 	.word	0x401848b4
    2fdc:	5e353f7d 	.word	0x5e353f7d
    2fe0:	401849ba 	.word	0x401849ba
    2fe4:	83126e98 	.word	0x83126e98
    2fe8:	40184ac0 	.word	0x40184ac0
    2fec:	a7ef9db2 	.word	0xa7ef9db2
    2ff0:	40184bc6 	.word	0x40184bc6
    2ff4:	cccccccd 	.word	0xcccccccd
    2ff8:	40184ccc 	.word	0x40184ccc
    2ffc:	f1a9fbe7 	.word	0xf1a9fbe7
    3000:	40184dd2 	.word	0x40184dd2
    3004:	16872b02 	.word	0x16872b02
    3008:	40184ed9 	.word	0x40184ed9
    300c:	3b645a1d 	.word	0x3b645a1d
    3010:	40184fdf 	.word	0x40184fdf
    3014:	60418937 	.word	0x60418937
    3018:	401850e5 	.word	0x401850e5
    301c:	851eb852 	.word	0x851eb852
    3020:	401851eb 	.word	0x401851eb
    3024:	a9fbe76d 	.word	0xa9fbe76d
    3028:	401852f1 	.word	0x401852f1
    302c:	ced91687 	.word	0xced91687
    3030:	401853f7 	.word	0x401853f7
    3034:	f3b645a2 	.word	0xf3b645a2
    3038:	401854fd 	.word	0x401854fd
    303c:	189374bc 	.word	0x189374bc
    3040:	40185604 	.word	0x40185604
    3044:	3d70a3d7 	.word	0x3d70a3d7
    3048:	4018570a 	.word	0x4018570a
    304c:	624dd2f2 	.word	0x624dd2f2
    3050:	40185810 	.word	0x40185810
    3054:	872b020c 	.word	0x872b020c
    3058:	40185916 	.word	0x40185916
    305c:	ac083127 	.word	0xac083127
    3060:	40185a1c 	.word	0x40185a1c
    3064:	d0e56042 	.word	0xd0e56042
    3068:	40185b22 	.word	0x40185b22
    306c:	f5c28f5c 	.word	0xf5c28f5c
    3070:	40185c28 	.word	0x40185c28
    3074:	1a9fbe77 	.word	0x1a9fbe77
    3078:	40185d2f 	.word	0x40185d2f
    307c:	3f7ced91 	.word	0x3f7ced91
    3080:	40185e35 	.word	0x40185e35
    3084:	645a1cac 	.word	0x645a1cac
    3088:	40185f3b 	.word	0x40185f3b
    308c:	89374bc7 	.word	0x89374bc7
    3090:	40186041 	.word	0x40186041
    3094:	ae147ae1 	.word	0xae147ae1
    3098:	40186147 	.word	0x40186147
    309c:	d2f1a9fc 	.word	0xd2f1a9fc
    30a0:	4018624d 	.word	0x4018624d
    30a4:	f7ced917 	.word	0xf7ced917
    30a8:	40186353 	.word	0x40186353
    30ac:	1cac0831 	.word	0x1cac0831
    30b0:	4018645a 	.word	0x4018645a
    30b4:	4189374c 	.word	0x4189374c
    30b8:	40186560 	.word	0x40186560
    30bc:	66666666 	.word	0x66666666
    30c0:	40186666 	.word	0x40186666
    30c4:	8b439581 	.word	0x8b439581
    30c8:	4018676c 	.word	0x4018676c
    30cc:	b020c49c 	.word	0xb020c49c
    30d0:	40186872 	.word	0x40186872
    30d4:	d4fdf3b6 	.word	0xd4fdf3b6
    30d8:	40186978 	.word	0x40186978
    30dc:	f9db22d1 	.word	0xf9db22d1
    30e0:	40186a7e 	.word	0x40186a7e
    30e4:	1eb851ec 	.word	0x1eb851ec
    30e8:	40186b85 	.word	0x40186b85
    30ec:	43958106 	.word	0x43958106
    30f0:	40186c8b 	.word	0x40186c8b
    30f4:	6872b021 	.word	0x6872b021
    30f8:	40186d91 	.word	0x40186d91
    30fc:	8d4fdf3b 	.word	0x8d4fdf3b
    3100:	40186e97 	.word	0x40186e97
    3104:	b22d0e56 	.word	0xb22d0e56
    3108:	40186f9d 	.word	0x40186f9d
    310c:	d70a3d71 	.word	0xd70a3d71
    3110:	401870a3 	.word	0x401870a3
    3114:	fbe76c8b 	.word	0xfbe76c8b
    3118:	401871a9 	.word	0x401871a9
    311c:	20c49ba6 	.word	0x20c49ba6
    3120:	401872b0 	.word	0x401872b0
    3124:	45a1cac1 	.word	0x45a1cac1
    3128:	401873b6 	.word	0x401873b6
    312c:	6a7ef9db 	.word	0x6a7ef9db
    3130:	401874bc 	.word	0x401874bc
    3134:	8f5c28f6 	.word	0x8f5c28f6
    3138:	401875c2 	.word	0x401875c2
    313c:	b4395810 	.word	0xb4395810
    3140:	401876c8 	.word	0x401876c8
    3144:	d916872b 	.word	0xd916872b
    3148:	401877ce 	.word	0x401877ce
    314c:	fdf3b646 	.word	0xfdf3b646
    3150:	401878d4 	.word	0x401878d4
    3154:	22d0e560 	.word	0x22d0e560
    3158:	401879db 	.word	0x401879db
    315c:	47ae147b 	.word	0x47ae147b
    3160:	40187ae1 	.word	0x40187ae1
    3164:	6c8b4396 	.word	0x6c8b4396
    3168:	40187be7 	.word	0x40187be7
    316c:	916872b0 	.word	0x916872b0
    3170:	40187ced 	.word	0x40187ced
    3174:	b645a1cb 	.word	0xb645a1cb
    3178:	40187df3 	.word	0x40187df3
    317c:	db22d0e5 	.word	0xdb22d0e5
    3180:	40187ef9 	.word	0x40187ef9
    3184:	00000000 	.word	0x00000000
    3188:	40188000 	.word	0x40188000
    318c:	24dd2f1b 	.word	0x24dd2f1b
    3190:	40188106 	.word	0x40188106
    3194:	49ba5e35 	.word	0x49ba5e35
    3198:	4018820c 	.word	0x4018820c
    319c:	6e978d50 	.word	0x6e978d50
    31a0:	40188312 	.word	0x40188312
    31a4:	24dd2f1b 	.word	0x24dd2f1b
    31a8:	401c0106 	.word	0x401c0106
    31ac:	49ba5e35 	.word	0x49ba5e35
    31b0:	401c020c 	.word	0x401c020c
    31b4:	6e978d50 	.word	0x6e978d50
    31b8:	401c0312 	.word	0x401c0312
    31bc:	9374bc6a 	.word	0x9374bc6a
    31c0:	401c0418 	.word	0x401c0418
    31c4:	b851eb85 	.word	0xb851eb85
    31c8:	401c051e 	.word	0x401c051e
    31cc:	dd2f1aa0 	.word	0xdd2f1aa0
    31d0:	401c0624 	.word	0x401c0624
    31d4:	020c49ba 	.word	0x020c49ba
    31d8:	401c072b 	.word	0x401c072b
    31dc:	26e978d5 	.word	0x26e978d5
    31e0:	401c0831 	.word	0x401c0831
    31e4:	4bc6a7f0 	.word	0x4bc6a7f0
    31e8:	401c0937 	.word	0x401c0937
    31ec:	70a3d70a 	.word	0x70a3d70a
    31f0:	401c0a3d 	.word	0x401c0a3d
    31f4:	95810625 	.word	0x95810625
    31f8:	401c0b43 	.word	0x401c0b43
    31fc:	ba5e353f 	.word	0xba5e353f
    3200:	401c0c49 	.word	0x401c0c49
    3204:	df3b645a 	.word	0xdf3b645a
    3208:	401c0d4f 	.word	0x401c0d4f
    320c:	04189375 	.word	0x04189375
    3210:	401c0e56 	.word	0x401c0e56
    3214:	28f5c28f 	.word	0x28f5c28f
    3218:	401c0f5c 	.word	0x401c0f5c
    321c:	4dd2f1aa 	.word	0x4dd2f1aa
    3220:	401c1062 	.word	0x401c1062
    3224:	72b020c5 	.word	0x72b020c5
    3228:	401c1168 	.word	0x401c1168
    322c:	978d4fdf 	.word	0x978d4fdf
    3230:	401c126e 	.word	0x401c126e
    3234:	bc6a7efa 	.word	0xbc6a7efa
    3238:	401c1374 	.word	0x401c1374
    323c:	e147ae14 	.word	0xe147ae14
    3240:	401c147a 	.word	0x401c147a
    3244:	0624dd2f 	.word	0x0624dd2f
    3248:	401c1581 	.word	0x401c1581
    324c:	2b020c4a 	.word	0x2b020c4a
    3250:	401c1687 	.word	0x401c1687
    3254:	4fdf3b64 	.word	0x4fdf3b64
    3258:	401c178d 	.word	0x401c178d
    325c:	74bc6a7f 	.word	0x74bc6a7f
    3260:	401c1893 	.word	0x401c1893
    3264:	9999999a 	.word	0x9999999a
    3268:	401c1999 	.word	0x401c1999
    326c:	be76c8b4 	.word	0xbe76c8b4
    3270:	401c1a9f 	.word	0x401c1a9f
    3274:	e353f7cf 	.word	0xe353f7cf
    3278:	401c1ba5 	.word	0x401c1ba5
    327c:	083126e9 	.word	0x083126e9
    3280:	401c1cac 	.word	0x401c1cac
    3284:	2d0e5604 	.word	0x2d0e5604
    3288:	401c1db2 	.word	0x401c1db2
    328c:	51eb851f 	.word	0x51eb851f
    3290:	401c1eb8 	.word	0x401c1eb8
    3294:	76c8b439 	.word	0x76c8b439
    3298:	401c1fbe 	.word	0x401c1fbe
    329c:	9ba5e354 	.word	0x9ba5e354
    32a0:	401c20c4 	.word	0x401c20c4
    32a4:	c083126f 	.word	0xc083126f
    32a8:	401c21ca 	.word	0x401c21ca
    32ac:	e5604189 	.word	0xe5604189
    32b0:	401c22d0 	.word	0x401c22d0
    32b4:	0a3d70a4 	.word	0x0a3d70a4
    32b8:	401c23d7 	.word	0x401c23d7
    32bc:	2f1a9fbe 	.word	0x2f1a9fbe
    32c0:	401c24dd 	.word	0x401c24dd
    32c4:	53f7ced9 	.word	0x53f7ced9
    32c8:	401c25e3 	.word	0x401c25e3
    32cc:	78d4fdf4 	.word	0x78d4fdf4
    32d0:	401c26e9 	.word	0x401c26e9
    32d4:	9db22d0e 	.word	0x9db22d0e
    32d8:	401c27ef 	.word	0x401c27ef
    32dc:	c28f5c29 	.word	0xc28f5c29
    32e0:	401c28f5 	.word	0x401c28f5
    32e4:	e76c8b44 	.word	0xe76c8b44
    32e8:	401c29fb 	.word	0x401c29fb
    32ec:	0c49ba5e 	.word	0x0c49ba5e
    32f0:	401c2b02 	.word	0x401c2b02
    32f4:	3126e979 	.word	0x3126e979
    32f8:	401c2c08 	.word	0x401c2c08
    32fc:	56041893 	.word	0x56041893
    3300:	401c2d0e 	.word	0x401c2d0e
    3304:	7ae147ae 	.word	0x7ae147ae
    3308:	401c2e14 	.word	0x401c2e14
    330c:	9fbe76c9 	.word	0x9fbe76c9
    3310:	401c2f1a 	.word	0x401c2f1a
    3314:	c49ba5e3 	.word	0xc49ba5e3
    3318:	401c3020 	.word	0x401c3020
    331c:	e978d4fe 	.word	0xe978d4fe
    3320:	401c3126 	.word	0x401c3126
    3324:	0e560419 	.word	0x0e560419
    3328:	401c322d 	.word	0x401c322d
    332c:	33333333 	.word	0x33333333
    3330:	401c3333 	.word	0x401c3333
    3334:	5810624e 	.word	0x5810624e
    3338:	401c3439 	.word	0x401c3439
    333c:	7ced9168 	.word	0x7ced9168
    3340:	401c353f 	.word	0x401c353f
    3344:	a1cac083 	.word	0xa1cac083
    3348:	401c3645 	.word	0x401c3645
    334c:	c6a7ef9e 	.word	0xc6a7ef9e
    3350:	401c374b 	.word	0x401c374b
    3354:	eb851eb8 	.word	0xeb851eb8
    3358:	401c3851 	.word	0x401c3851
    335c:	10624dd3 	.word	0x10624dd3
    3360:	401c3958 	.word	0x401c3958
    3364:	353f7cee 	.word	0x353f7cee
    3368:	401c3a5e 	.word	0x401c3a5e
    336c:	5a1cac08 	.word	0x5a1cac08
    3370:	401c3b64 	.word	0x401c3b64
    3374:	7ef9db23 	.word	0x7ef9db23
    3378:	401c3c6a 	.word	0x401c3c6a
    337c:	a3d70a3d 	.word	0xa3d70a3d
    3380:	401c3d70 	.word	0x401c3d70
    3384:	c8b43958 	.word	0xc8b43958
    3388:	401c3e76 	.word	0x401c3e76
    338c:	ed916873 	.word	0xed916873
    3390:	401c3f7c 	.word	0x401c3f7c
    3394:	126e978d 	.word	0x126e978d
    3398:	401c4083 	.word	0x401c4083
    339c:	374bc6a8 	.word	0x374bc6a8
    33a0:	401c4189 	.word	0x401c4189
    33a4:	5c28f5c3 	.word	0x5c28f5c3
    33a8:	401c428f 	.word	0x401c428f
    33ac:	810624dd 	.word	0x810624dd
    33b0:	401c4395 	.word	0x401c4395
    33b4:	a5e353f8 	.word	0xa5e353f8
    33b8:	401c449b 	.word	0x401c449b
    33bc:	cac08312 	.word	0xcac08312
    33c0:	401c45a1 	.word	0x401c45a1
    33c4:	ef9db22d 	.word	0xef9db22d
    33c8:	401c46a7 	.word	0x401c46a7
    33cc:	147ae148 	.word	0x147ae148
    33d0:	401c47ae 	.word	0x401c47ae
    33d4:	39581062 	.word	0x39581062
    33d8:	401c48b4 	.word	0x401c48b4
    33dc:	5e353f7d 	.word	0x5e353f7d
    33e0:	401c49ba 	.word	0x401c49ba
    33e4:	83126e98 	.word	0x83126e98
    33e8:	401c4ac0 	.word	0x401c4ac0
    33ec:	a7ef9db2 	.word	0xa7ef9db2
    33f0:	401c4bc6 	.word	0x401c4bc6
    33f4:	cccccccd 	.word	0xcccccccd
    33f8:	401c4ccc 	.word	0x401c4ccc
    33fc:	f1a9fbe7 	.word	0xf1a9fbe7
    3400:	401c4dd2 	.word	0x401c4dd2
    3404:	16872b02 	.word	0x16872b02
    3408:	401c4ed9 	.word	0x401c4ed9
    340c:	3b645a1d 	.word	0x3b645a1d
    3410:	401c4fdf 	.word	0x401c4fdf
    3414:	60418937 	.word	0x60418937
    3418:	401c50e5 	.word	0x401c50e5
    341c:	851eb852 	.word	0x851eb852
    3420:	401c51eb 	.word	0x401c51eb
    3424:	a9fbe76d 	.word	0xa9fbe76d
    3428:	401c52f1 	.word	0x401c52f1
    342c:	ced91687 	.word	0xced91687
    3430:	401c53f7 	.word	0x401c53f7
    3434:	f3b645a2 	.word	0xf3b645a2
    3438:	401c54fd 	.word	0x401c54fd
    343c:	189374bc 	.word	0x189374bc
    3440:	401c5604 	.word	0x401c5604
    3444:	3d70a3d7 	.word	0x3d70a3d7
    3448:	401c570a 	.word	0x401c570a
    344c:	624dd2f2 	.word	0x624dd2f2
    3450:	401c5810 	.word	0x401c5810
    3454:	872b020c 	.word	0x872b020c
    3458:	401c5916 	.word	0x401c5916
    345c:	ac083127 	.word	0xac083127
    3460:	401c5a1c 	.word	0x401c5a1c
    3464:	d0e56042 	.word	0xd0e56042
    3468:	401c5b22 	.word	0x401c5b22
    346c:	f5c28f5c 	.word	0xf5c28f5c
    3470:	401c5c28 	.word	0x401c5c28
    3474:	1a9fbe77 	.word	0x1a9fbe77
    3478:	401c5d2f 	.word	0x401c5d2f
    347c:	3f7ced91 	.word	0x3f7ced91
    3480:	401c5e35 	.word	0x401c5e35
    3484:	645a1cac 	.word	0x645a1cac
    3488:	401c5f3b 	.word	0x401c5f3b
    348c:	89374bc7 	.word	0x89374bc7
    3490:	401c6041 	.word	0x401c6041
    3494:	ae147ae1 	.word	0xae147ae1
    3498:	401c6147 	.word	0x401c6147
    349c:	d2f1a9fc 	.word	0xd2f1a9fc
    34a0:	401c624d 	.word	0x401c624d
    34a4:	f7ced917 	.word	0xf7ced917
    34a8:	401c6353 	.word	0x401c6353
    34ac:	1cac0831 	.word	0x1cac0831
    34b0:	401c645a 	.word	0x401c645a
    34b4:	4189374c 	.word	0x4189374c
    34b8:	401c6560 	.word	0x401c6560
    34bc:	66666666 	.word	0x66666666
    34c0:	401c6666 	.word	0x401c6666
    34c4:	8b439581 	.word	0x8b439581
    34c8:	401c676c 	.word	0x401c676c
    34cc:	b020c49c 	.word	0xb020c49c
    34d0:	401c6872 	.word	0x401c6872
    34d4:	d4fdf3b6 	.word	0xd4fdf3b6
    34d8:	401c6978 	.word	0x401c6978
    34dc:	f9db22d1 	.word	0xf9db22d1
    34e0:	401c6a7e 	.word	0x401c6a7e
    34e4:	1eb851ec 	.word	0x1eb851ec
    34e8:	401c6b85 	.word	0x401c6b85
    34ec:	43958106 	.word	0x43958106
    34f0:	401c6c8b 	.word	0x401c6c8b
    34f4:	6872b021 	.word	0x6872b021
    34f8:	401c6d91 	.word	0x401c6d91
    34fc:	8d4fdf3b 	.word	0x8d4fdf3b
    3500:	401c6e97 	.word	0x401c6e97
    3504:	b22d0e56 	.word	0xb22d0e56
    3508:	401c6f9d 	.word	0x401c6f9d
    350c:	d70a3d71 	.word	0xd70a3d71
    3510:	401c70a3 	.word	0x401c70a3
    3514:	fbe76c8b 	.word	0xfbe76c8b
    3518:	401c71a9 	.word	0x401c71a9
    351c:	20c49ba6 	.word	0x20c49ba6
    3520:	401c72b0 	.word	0x401c72b0
    3524:	45a1cac1 	.word	0x45a1cac1
    3528:	401c73b6 	.word	0x401c73b6
    352c:	6a7ef9db 	.word	0x6a7ef9db
    3530:	401c74bc 	.word	0x401c74bc
    3534:	8f5c28f6 	.word	0x8f5c28f6
    3538:	401c75c2 	.word	0x401c75c2
    353c:	b4395810 	.word	0xb4395810
    3540:	401c76c8 	.word	0x401c76c8
    3544:	d916872b 	.word	0xd916872b
    3548:	401c77ce 	.word	0x401c77ce
    354c:	fdf3b646 	.word	0xfdf3b646
    3550:	401c78d4 	.word	0x401c78d4
    3554:	22d0e560 	.word	0x22d0e560
    3558:	401c79db 	.word	0x401c79db
    355c:	47ae147b 	.word	0x47ae147b
    3560:	401c7ae1 	.word	0x401c7ae1
    3564:	6c8b4396 	.word	0x6c8b4396
    3568:	401c7be7 	.word	0x401c7be7
    356c:	916872b0 	.word	0x916872b0
    3570:	401c7ced 	.word	0x401c7ced
    3574:	b645a1cb 	.word	0xb645a1cb
    3578:	401c7df3 	.word	0x401c7df3
    357c:	db22d0e5 	.word	0xdb22d0e5
    3580:	401c7ef9 	.word	0x401c7ef9
    3584:	00000000 	.word	0x00000000
    3588:	401c8000 	.word	0x401c8000
    358c:	24dd2f1b 	.word	0x24dd2f1b
    3590:	401c8106 	.word	0x401c8106
    3594:	49ba5e35 	.word	0x49ba5e35
    3598:	401c820c 	.word	0x401c820c
    359c:	6e978d50 	.word	0x6e978d50
    35a0:	401c8312 	.word	0x401c8312
    35a4:	126e978d 	.word	0x126e978d
    35a8:	40200083 	.word	0x40200083
    35ac:	24dd2f1b 	.word	0x24dd2f1b
    35b0:	40200106 	.word	0x40200106
    35b4:	374bc6a8 	.word	0x374bc6a8
    35b8:	40200189 	.word	0x40200189
    35bc:	49ba5e35 	.word	0x49ba5e35
    35c0:	4020020c 	.word	0x4020020c
    35c4:	5c28f5c3 	.word	0x5c28f5c3
    35c8:	4020028f 	.word	0x4020028f
    35cc:	6e978d50 	.word	0x6e978d50
    35d0:	40200312 	.word	0x40200312
    35d4:	810624dd 	.word	0x810624dd
    35d8:	40200395 	.word	0x40200395
    35dc:	9374bc6a 	.word	0x9374bc6a
    35e0:	40200418 	.word	0x40200418
    35e4:	a5e353f8 	.word	0xa5e353f8
    35e8:	4020049b 	.word	0x4020049b
    35ec:	b851eb85 	.word	0xb851eb85
    35f0:	4020051e 	.word	0x4020051e
    35f4:	cac08312 	.word	0xcac08312
    35f8:	402005a1 	.word	0x402005a1
    35fc:	dd2f1aa0 	.word	0xdd2f1aa0
    3600:	40200624 	.word	0x40200624
    3604:	ef9db22d 	.word	0xef9db22d
    3608:	402006a7 	.word	0x402006a7
    360c:	020c49ba 	.word	0x020c49ba
    3610:	4020072b 	.word	0x4020072b
    3614:	147ae148 	.word	0x147ae148
    3618:	402007ae 	.word	0x402007ae
    361c:	26e978d5 	.word	0x26e978d5
    3620:	40200831 	.word	0x40200831
    3624:	39581062 	.word	0x39581062
    3628:	402008b4 	.word	0x402008b4
    362c:	4bc6a7f0 	.word	0x4bc6a7f0
    3630:	40200937 	.word	0x40200937
    3634:	5e353f7d 	.word	0x5e353f7d
    3638:	402009ba 	.word	0x402009ba
    363c:	70a3d70a 	.word	0x70a3d70a
    3640:	40200a3d 	.word	0x40200a3d
    3644:	83126e98 	.word	0x83126e98
    3648:	40200ac0 	.word	0x40200ac0
    364c:	95810625 	.word	0x95810625
    3650:	40200b43 	.word	0x40200b43
    3654:	a7ef9db2 	.word	0xa7ef9db2
    3658:	40200bc6 	.word	0x40200bc6
    365c:	ba5e353f 	.word	0xba5e353f
    3660:	40200c49 	.word	0x40200c49
    3664:	cccccccd 	.word	0xcccccccd
    3668:	40200ccc 	.word	0x40200ccc
    366c:	df3b645a 	.word	0xdf3b645a
    3670:	40200d4f 	.word	0x40200d4f
    3674:	f1a9fbe7 	.word	0xf1a9fbe7
    3678:	40200dd2 	.word	0x40200dd2
    367c:	04189375 	.word	0x04189375
    3680:	40200e56 	.word	0x40200e56
    3684:	16872b02 	.word	0x16872b02
    3688:	40200ed9 	.word	0x40200ed9
    368c:	28f5c28f 	.word	0x28f5c28f
    3690:	40200f5c 	.word	0x40200f5c
    3694:	3b645a1d 	.word	0x3b645a1d
    3698:	40200fdf 	.word	0x40200fdf
    369c:	4dd2f1aa 	.word	0x4dd2f1aa
    36a0:	40201062 	.word	0x40201062
    36a4:	60418937 	.word	0x60418937
    36a8:	402010e5 	.word	0x402010e5
    36ac:	72b020c5 	.word	0x72b020c5
    36b0:	40201168 	.word	0x40201168
    36b4:	851eb852 	.word	0x851eb852
    36b8:	402011eb 	.word	0x402011eb
    36bc:	978d4fdf 	.word	0x978d4fdf
    36c0:	4020126e 	.word	0x4020126e
    36c4:	a9fbe76d 	.word	0xa9fbe76d
    36c8:	402012f1 	.word	0x402012f1
    36cc:	bc6a7efa 	.word	0xbc6a7efa
    36d0:	40201374 	.word	0x40201374
    36d4:	ced91687 	.word	0xced91687
    36d8:	402013f7 	.word	0x402013f7
    36dc:	e147ae14 	.word	0xe147ae14
    36e0:	4020147a 	.word	0x4020147a
    36e4:	f3b645a2 	.word	0xf3b645a2
    36e8:	402014fd 	.word	0x402014fd
    36ec:	0624dd2f 	.word	0x0624dd2f
    36f0:	40201581 	.word	0x40201581
    36f4:	189374bc 	.word	0x189374bc
    36f8:	40201604 	.word	0x40201604
    36fc:	2b020c4a 	.word	0x2b020c4a
    3700:	40201687 	.word	0x40201687
    3704:	3d70a3d7 	.word	0x3d70a3d7
    3708:	4020170a 	.word	0x4020170a
    370c:	4fdf3b64 	.word	0x4fdf3b64
    3710:	4020178d 	.word	0x4020178d
    3714:	624dd2f2 	.word	0x624dd2f2
    3718:	40201810 	.word	0x40201810
    371c:	74bc6a7f 	.word	0x74bc6a7f
    3720:	40201893 	.word	0x40201893
    3724:	872b020c 	.word	0x872b020c
    3728:	40201916 	.word	0x40201916
    372c:	9999999a 	.word	0x9999999a
    3730:	40201999 	.word	0x40201999
    3734:	ac083127 	.word	0xac083127
    3738:	40201a1c 	.word	0x40201a1c
    373c:	be76c8b4 	.word	0xbe76c8b4
    3740:	40201a9f 	.word	0x40201a9f
    3744:	d0e56042 	.word	0xd0e56042
    3748:	40201b22 	.word	0x40201b22
    374c:	e353f7cf 	.word	0xe353f7cf
    3750:	40201ba5 	.word	0x40201ba5
    3754:	f5c28f5c 	.word	0xf5c28f5c
    3758:	40201c28 	.word	0x40201c28
    375c:	083126e9 	.word	0x083126e9
    3760:	40201cac 	.word	0x40201cac
    3764:	1a9fbe77 	.word	0x1a9fbe77
    3768:	40201d2f 	.word	0x40201d2f
    376c:	2d0e5604 	.word	0x2d0e5604
    3770:	40201db2 	.word	0x40201db2
    3774:	3f7ced91 	.word	0x3f7ced91
    3778:	40201e35 	.word	0x40201e35
    377c:	51eb851f 	.word	0x51eb851f
    3780:	40201eb8 	.word	0x40201eb8
    3784:	645a1cac 	.word	0x645a1cac
    3788:	40201f3b 	.word	0x40201f3b
    378c:	76c8b439 	.word	0x76c8b439
    3790:	40201fbe 	.word	0x40201fbe
    3794:	89374bc7 	.word	0x89374bc7
    3798:	40202041 	.word	0x40202041
    379c:	9ba5e354 	.word	0x9ba5e354
    37a0:	402020c4 	.word	0x402020c4
    37a4:	ae147ae1 	.word	0xae147ae1
    37a8:	40202147 	.word	0x40202147
    37ac:	c083126f 	.word	0xc083126f
    37b0:	402021ca 	.word	0x402021ca
    37b4:	d2f1a9fc 	.word	0xd2f1a9fc
    37b8:	4020224d 	.word	0x4020224d
    37bc:	e5604189 	.word	0xe5604189
    37c0:	402022d0 	.word	0x402022d0
    37c4:	f7ced917 	.word	0xf7ced917
    37c8:	40202353 	.word	0x40202353
    37cc:	0a3d70a4 	.word	0x0a3d70a4
    37d0:	402023d7 	.word	0x402023d7
    37d4:	1cac0831 	.word	0x1cac0831
    37d8:	4020245a 	.word	0x4020245a
    37dc:	2f1a9fbe 	.word	0x2f1a9fbe
    37e0:	402024dd 	.word	0x402024dd
    37e4:	4189374c 	.word	0x4189374c
    37e8:	40202560 	.word	0x40202560
    37ec:	53f7ced9 	.word	0x53f7ced9
    37f0:	402025e3 	.word	0x402025e3
    37f4:	66666666 	.word	0x66666666
    37f8:	40202666 	.word	0x40202666
    37fc:	78d4fdf4 	.word	0x78d4fdf4
    3800:	402026e9 	.word	0x402026e9
    3804:	8b439581 	.word	0x8b439581
    3808:	4020276c 	.word	0x4020276c
    380c:	9db22d0e 	.word	0x9db22d0e
    3810:	402027ef 	.word	0x402027ef
    3814:	b020c49c 	.word	0xb020c49c
    3818:	40202872 	.word	0x40202872
    381c:	c28f5c29 	.word	0xc28f5c29
    3820:	402028f5 	.word	0x402028f5
    3824:	d4fdf3b6 	.word	0xd4fdf3b6
    3828:	40202978 	.word	0x40202978
    382c:	e76c8b44 	.word	0xe76c8b44
    3830:	402029fb 	.word	0x402029fb
    3834:	f9db22d1 	.word	0xf9db22d1
    3838:	40202a7e 	.word	0x40202a7e
    383c:	0c49ba5e 	.word	0x0c49ba5e
    3840:	40202b02 	.word	0x40202b02
    3844:	1eb851ec 	.word	0x1eb851ec
    3848:	40202b85 	.word	0x40202b85
    384c:	3126e979 	.word	0x3126e979
    3850:	40202c08 	.word	0x40202c08
    3854:	43958106 	.word	0x43958106
    3858:	40202c8b 	.word	0x40202c8b
    385c:	56041893 	.word	0x56041893
    3860:	40202d0e 	.word	0x40202d0e
    3864:	6872b021 	.word	0x6872b021
    3868:	40202d91 	.word	0x40202d91
    386c:	7ae147ae 	.word	0x7ae147ae
    3870:	40202e14 	.word	0x40202e14
    3874:	8d4fdf3b 	.word	0x8d4fdf3b
    3878:	40202e97 	.word	0x40202e97
    387c:	9fbe76c9 	.word	0x9fbe76c9
    3880:	40202f1a 	.word	0x40202f1a
    3884:	b22d0e56 	.word	0xb22d0e56
    3888:	40202f9d 	.word	0x40202f9d
    388c:	c49ba5e3 	.word	0xc49ba5e3
    3890:	40203020 	.word	0x40203020
    3894:	d70a3d71 	.word	0xd70a3d71
    3898:	402030a3 	.word	0x402030a3
    389c:	e978d4fe 	.word	0xe978d4fe
    38a0:	40203126 	.word	0x40203126
    38a4:	fbe76c8b 	.word	0xfbe76c8b
    38a8:	402031a9 	.word	0x402031a9
    38ac:	0e560419 	.word	0x0e560419
    38b0:	4020322d 	.word	0x4020322d
    38b4:	20c49ba6 	.word	0x20c49ba6
    38b8:	402032b0 	.word	0x402032b0
    38bc:	33333333 	.word	0x33333333
    38c0:	40203333 	.word	0x40203333
    38c4:	45a1cac1 	.word	0x45a1cac1
    38c8:	402033b6 	.word	0x402033b6
    38cc:	5810624e 	.word	0x5810624e
    38d0:	40203439 	.word	0x40203439
    38d4:	6a7ef9db 	.word	0x6a7ef9db
    38d8:	402034bc 	.word	0x402034bc
    38dc:	7ced9168 	.word	0x7ced9168
    38e0:	4020353f 	.word	0x4020353f
    38e4:	8f5c28f6 	.word	0x8f5c28f6
    38e8:	402035c2 	.word	0x402035c2
    38ec:	a1cac083 	.word	0xa1cac083
    38f0:	40203645 	.word	0x40203645
    38f4:	b4395810 	.word	0xb4395810
    38f8:	402036c8 	.word	0x402036c8
    38fc:	c6a7ef9e 	.word	0xc6a7ef9e
    3900:	4020374b 	.word	0x4020374b
    3904:	d916872b 	.word	0xd916872b
    3908:	402037ce 	.word	0x402037ce
    390c:	eb851eb8 	.word	0xeb851eb8
    3910:	40203851 	.word	0x40203851
    3914:	fdf3b646 	.word	0xfdf3b646
    3918:	402038d4 	.word	0x402038d4
    391c:	10624dd3 	.word	0x10624dd3
    3920:	40203958 	.word	0x40203958
    3924:	22d0e560 	.word	0x22d0e560
    3928:	402039db 	.word	0x402039db
    392c:	353f7cee 	.word	0x353f7cee
    3930:	40203a5e 	.word	0x40203a5e
    3934:	47ae147b 	.word	0x47ae147b
    3938:	40203ae1 	.word	0x40203ae1
    393c:	5a1cac08 	.word	0x5a1cac08
    3940:	40203b64 	.word	0x40203b64
    3944:	6c8b4396 	.word	0x6c8b4396
    3948:	40203be7 	.word	0x40203be7
    394c:	7ef9db23 	.word	0x7ef9db23
    3950:	40203c6a 	.word	0x40203c6a
    3954:	916872b0 	.word	0x916872b0
    3958:	40203ced 	.word	0x40203ced
    395c:	a3d70a3d 	.word	0xa3d70a3d
    3960:	40203d70 	.word	0x40203d70
    3964:	b645a1cb 	.word	0xb645a1cb
    3968:	40203df3 	.word	0x40203df3
    396c:	c8b43958 	.word	0xc8b43958
    3970:	40203e76 	.word	0x40203e76
    3974:	db22d0e5 	.word	0xdb22d0e5
    3978:	40203ef9 	.word	0x40203ef9
    397c:	ed916873 	.word	0xed916873
    3980:	40203f7c 	.word	0x40203f7c
    3984:	00000000 	.word	0x00000000
    3988:	40204000 	.word	0x40204000
    398c:	126e978d 	.word	0x126e978d
    3990:	40204083 	.word	0x40204083
    3994:	24dd2f1b 	.word	0x24dd2f1b
    3998:	40204106 	.word	0x40204106
    399c:	374bc6a8 	.word	0x374bc6a8
    39a0:	40204189 	.word	0x40204189
    39a4:	126e978d 	.word	0x126e978d
    39a8:	40220083 	.word	0x40220083
    39ac:	24dd2f1b 	.word	0x24dd2f1b
    39b0:	40220106 	.word	0x40220106
    39b4:	374bc6a8 	.word	0x374bc6a8
    39b8:	40220189 	.word	0x40220189
    39bc:	49ba5e35 	.word	0x49ba5e35
    39c0:	4022020c 	.word	0x4022020c
    39c4:	5c28f5c3 	.word	0x5c28f5c3
    39c8:	4022028f 	.word	0x4022028f
    39cc:	6e978d50 	.word	0x6e978d50
    39d0:	40220312 	.word	0x40220312
    39d4:	810624dd 	.word	0x810624dd
    39d8:	40220395 	.word	0x40220395
    39dc:	9374bc6a 	.word	0x9374bc6a
    39e0:	40220418 	.word	0x40220418
    39e4:	a5e353f8 	.word	0xa5e353f8
    39e8:	4022049b 	.word	0x4022049b
    39ec:	b851eb85 	.word	0xb851eb85
    39f0:	4022051e 	.word	0x4022051e
    39f4:	cac08312 	.word	0xcac08312
    39f8:	402205a1 	.word	0x402205a1
    39fc:	dd2f1aa0 	.word	0xdd2f1aa0
    3a00:	40220624 	.word	0x40220624
    3a04:	ef9db22d 	.word	0xef9db22d
    3a08:	402206a7 	.word	0x402206a7
    3a0c:	020c49ba 	.word	0x020c49ba
    3a10:	4022072b 	.word	0x4022072b
    3a14:	147ae148 	.word	0x147ae148
    3a18:	402207ae 	.word	0x402207ae
    3a1c:	26e978d5 	.word	0x26e978d5
    3a20:	40220831 	.word	0x40220831
    3a24:	39581062 	.word	0x39581062
    3a28:	402208b4 	.word	0x402208b4
    3a2c:	4bc6a7f0 	.word	0x4bc6a7f0
    3a30:	40220937 	.word	0x40220937
    3a34:	5e353f7d 	.word	0x5e353f7d
    3a38:	402209ba 	.word	0x402209ba
    3a3c:	70a3d70a 	.word	0x70a3d70a
    3a40:	40220a3d 	.word	0x40220a3d
    3a44:	83126e98 	.word	0x83126e98
    3a48:	40220ac0 	.word	0x40220ac0
    3a4c:	95810625 	.word	0x95810625
    3a50:	40220b43 	.word	0x40220b43
    3a54:	a7ef9db2 	.word	0xa7ef9db2
    3a58:	40220bc6 	.word	0x40220bc6
    3a5c:	ba5e353f 	.word	0xba5e353f
    3a60:	40220c49 	.word	0x40220c49
    3a64:	cccccccd 	.word	0xcccccccd
    3a68:	40220ccc 	.word	0x40220ccc
    3a6c:	df3b645a 	.word	0xdf3b645a
    3a70:	40220d4f 	.word	0x40220d4f
    3a74:	f1a9fbe7 	.word	0xf1a9fbe7
    3a78:	40220dd2 	.word	0x40220dd2
    3a7c:	04189375 	.word	0x04189375
    3a80:	40220e56 	.word	0x40220e56
    3a84:	16872b02 	.word	0x16872b02
    3a88:	40220ed9 	.word	0x40220ed9
    3a8c:	28f5c28f 	.word	0x28f5c28f
    3a90:	40220f5c 	.word	0x40220f5c
    3a94:	3b645a1d 	.word	0x3b645a1d
    3a98:	40220fdf 	.word	0x40220fdf
    3a9c:	4dd2f1aa 	.word	0x4dd2f1aa
    3aa0:	40221062 	.word	0x40221062
    3aa4:	60418937 	.word	0x60418937
    3aa8:	402210e5 	.word	0x402210e5
    3aac:	72b020c5 	.word	0x72b020c5
    3ab0:	40221168 	.word	0x40221168
    3ab4:	851eb852 	.word	0x851eb852
    3ab8:	402211eb 	.word	0x402211eb
    3abc:	978d4fdf 	.word	0x978d4fdf
    3ac0:	4022126e 	.word	0x4022126e
    3ac4:	a9fbe76d 	.word	0xa9fbe76d
    3ac8:	402212f1 	.word	0x402212f1
    3acc:	bc6a7efa 	.word	0xbc6a7efa
    3ad0:	40221374 	.word	0x40221374
    3ad4:	ced91687 	.word	0xced91687
    3ad8:	402213f7 	.word	0x402213f7
    3adc:	e147ae14 	.word	0xe147ae14
    3ae0:	4022147a 	.word	0x4022147a
    3ae4:	f3b645a2 	.word	0xf3b645a2
    3ae8:	402214fd 	.word	0x402214fd
    3aec:	0624dd2f 	.word	0x0624dd2f
    3af0:	40221581 	.word	0x40221581
    3af4:	189374bc 	.word	0x189374bc
    3af8:	40221604 	.word	0x40221604
    3afc:	2b020c4a 	.word	0x2b020c4a
    3b00:	40221687 	.word	0x40221687
    3b04:	3d70a3d7 	.word	0x3d70a3d7
    3b08:	4022170a 	.word	0x4022170a
    3b0c:	4fdf3b64 	.word	0x4fdf3b64
    3b10:	4022178d 	.word	0x4022178d
    3b14:	624dd2f2 	.word	0x624dd2f2
    3b18:	40221810 	.word	0x40221810
    3b1c:	74bc6a7f 	.word	0x74bc6a7f
    3b20:	40221893 	.word	0x40221893
    3b24:	872b020c 	.word	0x872b020c
    3b28:	40221916 	.word	0x40221916
    3b2c:	9999999a 	.word	0x9999999a
    3b30:	40221999 	.word	0x40221999
    3b34:	ac083127 	.word	0xac083127
    3b38:	40221a1c 	.word	0x40221a1c
    3b3c:	be76c8b4 	.word	0xbe76c8b4
    3b40:	40221a9f 	.word	0x40221a9f
    3b44:	d0e56042 	.word	0xd0e56042
    3b48:	40221b22 	.word	0x40221b22
    3b4c:	e353f7cf 	.word	0xe353f7cf
    3b50:	40221ba5 	.word	0x40221ba5
    3b54:	f5c28f5c 	.word	0xf5c28f5c
    3b58:	40221c28 	.word	0x40221c28
    3b5c:	083126e9 	.word	0x083126e9
    3b60:	40221cac 	.word	0x40221cac
    3b64:	1a9fbe77 	.word	0x1a9fbe77
    3b68:	40221d2f 	.word	0x40221d2f
    3b6c:	2d0e5604 	.word	0x2d0e5604
    3b70:	40221db2 	.word	0x40221db2
    3b74:	3f7ced91 	.word	0x3f7ced91
    3b78:	40221e35 	.word	0x40221e35
    3b7c:	51eb851f 	.word	0x51eb851f
    3b80:	40221eb8 	.word	0x40221eb8
    3b84:	645a1cac 	.word	0x645a1cac
    3b88:	40221f3b 	.word	0x40221f3b
    3b8c:	76c8b439 	.word	0x76c8b439
    3b90:	40221fbe 	.word	0x40221fbe
    3b94:	89374bc7 	.word	0x89374bc7
    3b98:	40222041 	.word	0x40222041
    3b9c:	9ba5e354 	.word	0x9ba5e354
    3ba0:	402220c4 	.word	0x402220c4
    3ba4:	ae147ae1 	.word	0xae147ae1
    3ba8:	40222147 	.word	0x40222147
    3bac:	c083126f 	.word	0xc083126f
    3bb0:	402221ca 	.word	0x402221ca
    3bb4:	d2f1a9fc 	.word	0xd2f1a9fc
    3bb8:	4022224d 	.word	0x4022224d
    3bbc:	e5604189 	.word	0xe5604189
    3bc0:	402222d0 	.word	0x402222d0
    3bc4:	f7ced917 	.word	0xf7ced917
    3bc8:	40222353 	.word	0x40222353
    3bcc:	0a3d70a4 	.word	0x0a3d70a4
    3bd0:	402223d7 	.word	0x402223d7
    3bd4:	1cac0831 	.word	0x1cac0831
    3bd8:	4022245a 	.word	0x4022245a
    3bdc:	2f1a9fbe 	.word	0x2f1a9fbe
    3be0:	402224dd 	.word	0x402224dd
    3be4:	4189374c 	.word	0x4189374c
    3be8:	40222560 	.word	0x40222560
    3bec:	53f7ced9 	.word	0x53f7ced9
    3bf0:	402225e3 	.word	0x402225e3
    3bf4:	66666666 	.word	0x66666666
    3bf8:	40222666 	.word	0x40222666
    3bfc:	78d4fdf4 	.word	0x78d4fdf4
    3c00:	402226e9 	.word	0x402226e9
    3c04:	8b439581 	.word	0x8b439581
    3c08:	4022276c 	.word	0x4022276c
    3c0c:	9db22d0e 	.word	0x9db22d0e
    3c10:	402227ef 	.word	0x402227ef
    3c14:	b020c49c 	.word	0xb020c49c
    3c18:	40222872 	.word	0x40222872
    3c1c:	c28f5c29 	.word	0xc28f5c29
    3c20:	402228f5 	.word	0x402228f5
    3c24:	d4fdf3b6 	.word	0xd4fdf3b6
    3c28:	40222978 	.word	0x40222978
    3c2c:	e76c8b44 	.word	0xe76c8b44
    3c30:	402229fb 	.word	0x402229fb
    3c34:	f9db22d1 	.word	0xf9db22d1
    3c38:	40222a7e 	.word	0x40222a7e
    3c3c:	0c49ba5e 	.word	0x0c49ba5e
    3c40:	40222b02 	.word	0x40222b02
    3c44:	1eb851ec 	.word	0x1eb851ec
    3c48:	40222b85 	.word	0x40222b85
    3c4c:	3126e979 	.word	0x3126e979
    3c50:	40222c08 	.word	0x40222c08
    3c54:	43958106 	.word	0x43958106
    3c58:	40222c8b 	.word	0x40222c8b
    3c5c:	56041893 	.word	0x56041893
    3c60:	40222d0e 	.word	0x40222d0e
    3c64:	6872b021 	.word	0x6872b021
    3c68:	40222d91 	.word	0x40222d91
    3c6c:	7ae147ae 	.word	0x7ae147ae
    3c70:	40222e14 	.word	0x40222e14
    3c74:	8d4fdf3b 	.word	0x8d4fdf3b
    3c78:	40222e97 	.word	0x40222e97
    3c7c:	9fbe76c9 	.word	0x9fbe76c9
    3c80:	40222f1a 	.word	0x40222f1a
    3c84:	b22d0e56 	.word	0xb22d0e56
    3c88:	40222f9d 	.word	0x40222f9d
    3c8c:	c49ba5e3 	.word	0xc49ba5e3
    3c90:	40223020 	.word	0x40223020
    3c94:	d70a3d71 	.word	0xd70a3d71
    3c98:	402230a3 	.word	0x402230a3
    3c9c:	e978d4fe 	.word	0xe978d4fe
    3ca0:	40223126 	.word	0x40223126
    3ca4:	fbe76c8b 	.word	0xfbe76c8b
    3ca8:	402231a9 	.word	0x402231a9
    3cac:	0e560419 	.word	0x0e560419
    3cb0:	4022322d 	.word	0x4022322d
    3cb4:	20c49ba6 	.word	0x20c49ba6
    3cb8:	402232b0 	.word	0x402232b0
    3cbc:	33333333 	.word	0x33333333
    3cc0:	40223333 	.word	0x40223333
    3cc4:	45a1cac1 	.word	0x45a1cac1
    3cc8:	402233b6 	.word	0x402233b6
    3ccc:	5810624e 	.word	0x5810624e
    3cd0:	40223439 	.word	0x40223439
    3cd4:	6a7ef9db 	.word	0x6a7ef9db
    3cd8:	402234bc 	.word	0x402234bc
    3cdc:	7ced9168 	.word	0x7ced9168
    3ce0:	4022353f 	.word	0x4022353f
    3ce4:	8f5c28f6 	.word	0x8f5c28f6
    3ce8:	402235c2 	.word	0x402235c2
    3cec:	a1cac083 	.word	0xa1cac083
    3cf0:	40223645 	.word	0x40223645
    3cf4:	b4395810 	.word	0xb4395810
    3cf8:	402236c8 	.word	0x402236c8
    3cfc:	c6a7ef9e 	.word	0xc6a7ef9e
    3d00:	4022374b 	.word	0x4022374b
    3d04:	d916872b 	.word	0xd916872b
    3d08:	402237ce 	.word	0x402237ce
    3d0c:	eb851eb8 	.word	0xeb851eb8
    3d10:	40223851 	.word	0x40223851
    3d14:	fdf3b646 	.word	0xfdf3b646
    3d18:	402238d4 	.word	0x402238d4
    3d1c:	10624dd3 	.word	0x10624dd3
    3d20:	40223958 	.word	0x40223958
    3d24:	22d0e560 	.word	0x22d0e560
    3d28:	402239db 	.word	0x402239db
    3d2c:	353f7cee 	.word	0x353f7cee
    3d30:	40223a5e 	.word	0x40223a5e
    3d34:	47ae147b 	.word	0x47ae147b
    3d38:	40223ae1 	.word	0x40223ae1
    3d3c:	5a1cac08 	.word	0x5a1cac08
    3d40:	40223b64 	.word	0x40223b64
    3d44:	6c8b4396 	.word	0x6c8b4396
    3d48:	40223be7 	.word	0x40223be7
    3d4c:	7ef9db23 	.word	0x7ef9db23
    3d50:	40223c6a 	.word	0x40223c6a
    3d54:	916872b0 	.word	0x916872b0
    3d58:	40223ced 	.word	0x40223ced
    3d5c:	a3d70a3d 	.word	0xa3d70a3d
    3d60:	40223d70 	.word	0x40223d70
    3d64:	b645a1cb 	.word	0xb645a1cb
    3d68:	40223df3 	.word	0x40223df3
    3d6c:	c8b43958 	.word	0xc8b43958
    3d70:	40223e76 	.word	0x40223e76
    3d74:	db22d0e5 	.word	0xdb22d0e5
    3d78:	40223ef9 	.word	0x40223ef9
    3d7c:	ed916873 	.word	0xed916873
    3d80:	40223f7c 	.word	0x40223f7c
    3d84:	00000000 	.word	0x00000000
    3d88:	40224000 	.word	0x40224000
    3d8c:	126e978d 	.word	0x126e978d
    3d90:	40224083 	.word	0x40224083
    3d94:	24dd2f1b 	.word	0x24dd2f1b
    3d98:	40224106 	.word	0x40224106
    3d9c:	374bc6a8 	.word	0x374bc6a8
    3da0:	40224189 	.word	0x40224189
    3da4:	126e978d 	.word	0x126e978d
    3da8:	40240083 	.word	0x40240083
    3dac:	24dd2f1b 	.word	0x24dd2f1b
    3db0:	40240106 	.word	0x40240106
    3db4:	374bc6a8 	.word	0x374bc6a8
    3db8:	40240189 	.word	0x40240189
    3dbc:	49ba5e35 	.word	0x49ba5e35
    3dc0:	4024020c 	.word	0x4024020c
    3dc4:	5c28f5c3 	.word	0x5c28f5c3
    3dc8:	4024028f 	.word	0x4024028f
    3dcc:	6e978d50 	.word	0x6e978d50
    3dd0:	40240312 	.word	0x40240312
    3dd4:	810624dd 	.word	0x810624dd
    3dd8:	40240395 	.word	0x40240395
    3ddc:	9374bc6a 	.word	0x9374bc6a
    3de0:	40240418 	.word	0x40240418
    3de4:	a5e353f8 	.word	0xa5e353f8
    3de8:	4024049b 	.word	0x4024049b
    3dec:	b851eb85 	.word	0xb851eb85
    3df0:	4024051e 	.word	0x4024051e
    3df4:	cac08312 	.word	0xcac08312
    3df8:	402405a1 	.word	0x402405a1
    3dfc:	dd2f1aa0 	.word	0xdd2f1aa0
    3e00:	40240624 	.word	0x40240624
    3e04:	ef9db22d 	.word	0xef9db22d
    3e08:	402406a7 	.word	0x402406a7
    3e0c:	020c49ba 	.word	0x020c49ba
    3e10:	4024072b 	.word	0x4024072b
    3e14:	147ae148 	.word	0x147ae148
    3e18:	402407ae 	.word	0x402407ae
    3e1c:	26e978d5 	.word	0x26e978d5
    3e20:	40240831 	.word	0x40240831
    3e24:	39581062 	.word	0x39581062
    3e28:	402408b4 	.word	0x402408b4
    3e2c:	4bc6a7f0 	.word	0x4bc6a7f0
    3e30:	40240937 	.word	0x40240937
    3e34:	5e353f7d 	.word	0x5e353f7d
    3e38:	402409ba 	.word	0x402409ba
    3e3c:	70a3d70a 	.word	0x70a3d70a
    3e40:	40240a3d 	.word	0x40240a3d
    3e44:	83126e98 	.word	0x83126e98
    3e48:	40240ac0 	.word	0x40240ac0
    3e4c:	95810625 	.word	0x95810625
    3e50:	40240b43 	.word	0x40240b43
    3e54:	a7ef9db2 	.word	0xa7ef9db2
    3e58:	40240bc6 	.word	0x40240bc6
    3e5c:	ba5e353f 	.word	0xba5e353f
    3e60:	40240c49 	.word	0x40240c49
    3e64:	cccccccd 	.word	0xcccccccd
    3e68:	40240ccc 	.word	0x40240ccc
    3e6c:	df3b645a 	.word	0xdf3b645a
    3e70:	40240d4f 	.word	0x40240d4f
    3e74:	f1a9fbe7 	.word	0xf1a9fbe7
    3e78:	40240dd2 	.word	0x40240dd2
    3e7c:	04189375 	.word	0x04189375
    3e80:	40240e56 	.word	0x40240e56
    3e84:	16872b02 	.word	0x16872b02
    3e88:	40240ed9 	.word	0x40240ed9
    3e8c:	28f5c28f 	.word	0x28f5c28f
    3e90:	40240f5c 	.word	0x40240f5c
    3e94:	3b645a1d 	.word	0x3b645a1d
    3e98:	40240fdf 	.word	0x40240fdf
    3e9c:	4dd2f1aa 	.word	0x4dd2f1aa
    3ea0:	40241062 	.word	0x40241062
    3ea4:	60418937 	.word	0x60418937
    3ea8:	402410e5 	.word	0x402410e5
    3eac:	72b020c5 	.word	0x72b020c5
    3eb0:	40241168 	.word	0x40241168
    3eb4:	851eb852 	.word	0x851eb852
    3eb8:	402411eb 	.word	0x402411eb
    3ebc:	978d4fdf 	.word	0x978d4fdf
    3ec0:	4024126e 	.word	0x4024126e
    3ec4:	a9fbe76d 	.word	0xa9fbe76d
    3ec8:	402412f1 	.word	0x402412f1
    3ecc:	bc6a7efa 	.word	0xbc6a7efa
    3ed0:	40241374 	.word	0x40241374
    3ed4:	ced91687 	.word	0xced91687
    3ed8:	402413f7 	.word	0x402413f7
    3edc:	e147ae14 	.word	0xe147ae14
    3ee0:	4024147a 	.word	0x4024147a
    3ee4:	f3b645a2 	.word	0xf3b645a2
    3ee8:	402414fd 	.word	0x402414fd
    3eec:	0624dd2f 	.word	0x0624dd2f
    3ef0:	40241581 	.word	0x40241581
    3ef4:	189374bc 	.word	0x189374bc
    3ef8:	40241604 	.word	0x40241604
    3efc:	2b020c4a 	.word	0x2b020c4a
    3f00:	40241687 	.word	0x40241687
    3f04:	3d70a3d7 	.word	0x3d70a3d7
    3f08:	4024170a 	.word	0x4024170a
    3f0c:	4fdf3b64 	.word	0x4fdf3b64
    3f10:	4024178d 	.word	0x4024178d
    3f14:	624dd2f2 	.word	0x624dd2f2
    3f18:	40241810 	.word	0x40241810
    3f1c:	74bc6a7f 	.word	0x74bc6a7f
    3f20:	40241893 	.word	0x40241893
    3f24:	872b020c 	.word	0x872b020c
    3f28:	40241916 	.word	0x40241916
    3f2c:	9999999a 	.word	0x9999999a
    3f30:	40241999 	.word	0x40241999
    3f34:	ac083127 	.word	0xac083127
    3f38:	40241a1c 	.word	0x40241a1c
    3f3c:	be76c8b4 	.word	0xbe76c8b4
    3f40:	40241a9f 	.word	0x40241a9f
    3f44:	d0e56042 	.word	0xd0e56042
    3f48:	40241b22 	.word	0x40241b22
    3f4c:	e353f7cf 	.word	0xe353f7cf
    3f50:	40241ba5 	.word	0x40241ba5
    3f54:	f5c28f5c 	.word	0xf5c28f5c
    3f58:	40241c28 	.word	0x40241c28
    3f5c:	083126e9 	.word	0x083126e9
    3f60:	40241cac 	.word	0x40241cac
    3f64:	1a9fbe77 	.word	0x1a9fbe77
    3f68:	40241d2f 	.word	0x40241d2f
    3f6c:	2d0e5604 	.word	0x2d0e5604
    3f70:	40241db2 	.word	0x40241db2
    3f74:	3f7ced91 	.word	0x3f7ced91
    3f78:	40241e35 	.word	0x40241e35
    3f7c:	51eb851f 	.word	0x51eb851f
    3f80:	40241eb8 	.word	0x40241eb8
    3f84:	645a1cac 	.word	0x645a1cac
    3f88:	40241f3b 	.word	0x40241f3b
    3f8c:	76c8b439 	.word	0x76c8b439
    3f90:	40241fbe 	.word	0x40241fbe
    3f94:	89374bc7 	.word	0x89374bc7
    3f98:	40242041 	.word	0x40242041
    3f9c:	9ba5e354 	.word	0x9ba5e354
    3fa0:	402420c4 	.word	0x402420c4
    3fa4:	ae147ae1 	.word	0xae147ae1
    3fa8:	40242147 	.word	0x40242147
    3fac:	c083126f 	.word	0xc083126f
    3fb0:	402421ca 	.word	0x402421ca
    3fb4:	d2f1a9fc 	.word	0xd2f1a9fc
    3fb8:	4024224d 	.word	0x4024224d
    3fbc:	e5604189 	.word	0xe5604189
    3fc0:	402422d0 	.word	0x402422d0
    3fc4:	f7ced917 	.word	0xf7ced917
    3fc8:	40242353 	.word	0x40242353
    3fcc:	0a3d70a4 	.word	0x0a3d70a4
    3fd0:	402423d7 	.word	0x402423d7
    3fd4:	1cac0831 	.word	0x1cac0831
    3fd8:	4024245a 	.word	0x4024245a
    3fdc:	2f1a9fbe 	.word	0x2f1a9fbe
    3fe0:	402424dd 	.word	0x402424dd
    3fe4:	4189374c 	.word	0x4189374c
    3fe8:	40242560 	.word	0x40242560
    3fec:	53f7ced9 	.word	0x53f7ced9
    3ff0:	402425e3 	.word	0x402425e3
    3ff4:	66666666 	.word	0x66666666
    3ff8:	40242666 	.word	0x40242666
    3ffc:	78d4fdf4 	.word	0x78d4fdf4
    4000:	402426e9 	.word	0x402426e9
    4004:	8b439581 	.word	0x8b439581
    4008:	4024276c 	.word	0x4024276c
    400c:	9db22d0e 	.word	0x9db22d0e
    4010:	402427ef 	.word	0x402427ef
    4014:	b020c49c 	.word	0xb020c49c
    4018:	40242872 	.word	0x40242872
    401c:	c28f5c29 	.word	0xc28f5c29
    4020:	402428f5 	.word	0x402428f5
    4024:	d4fdf3b6 	.word	0xd4fdf3b6
    4028:	40242978 	.word	0x40242978
    402c:	e76c8b44 	.word	0xe76c8b44
    4030:	402429fb 	.word	0x402429fb
    4034:	f9db22d1 	.word	0xf9db22d1
    4038:	40242a7e 	.word	0x40242a7e
    403c:	0c49ba5e 	.word	0x0c49ba5e
    4040:	40242b02 	.word	0x40242b02
    4044:	1eb851ec 	.word	0x1eb851ec
    4048:	40242b85 	.word	0x40242b85
    404c:	3126e979 	.word	0x3126e979
    4050:	40242c08 	.word	0x40242c08
    4054:	43958106 	.word	0x43958106
    4058:	40242c8b 	.word	0x40242c8b
    405c:	56041893 	.word	0x56041893
    4060:	40242d0e 	.word	0x40242d0e
    4064:	6872b021 	.word	0x6872b021
    4068:	40242d91 	.word	0x40242d91
    406c:	7ae147ae 	.word	0x7ae147ae
    4070:	40242e14 	.word	0x40242e14
    4074:	8d4fdf3b 	.word	0x8d4fdf3b
    4078:	40242e97 	.word	0x40242e97
    407c:	9fbe76c9 	.word	0x9fbe76c9
    4080:	40242f1a 	.word	0x40242f1a
    4084:	b22d0e56 	.word	0xb22d0e56
    4088:	40242f9d 	.word	0x40242f9d
    408c:	c49ba5e3 	.word	0xc49ba5e3
    4090:	40243020 	.word	0x40243020
    4094:	d70a3d71 	.word	0xd70a3d71
    4098:	402430a3 	.word	0x402430a3
    409c:	e978d4fe 	.word	0xe978d4fe
    40a0:	40243126 	.word	0x40243126
    40a4:	fbe76c8b 	.word	0xfbe76c8b
    40a8:	402431a9 	.word	0x402431a9
    40ac:	0e560419 	.word	0x0e560419
    40b0:	4024322d 	.word	0x4024322d
    40b4:	20c49ba6 	.word	0x20c49ba6
    40b8:	402432b0 	.word	0x402432b0
    40bc:	33333333 	.word	0x33333333
    40c0:	40243333 	.word	0x40243333
    40c4:	45a1cac1 	.word	0x45a1cac1
    40c8:	402433b6 	.word	0x402433b6
    40cc:	5810624e 	.word	0x5810624e
    40d0:	40243439 	.word	0x40243439
    40d4:	6a7ef9db 	.word	0x6a7ef9db
    40d8:	402434bc 	.word	0x402434bc
    40dc:	7ced9168 	.word	0x7ced9168
    40e0:	4024353f 	.word	0x4024353f
    40e4:	8f5c28f6 	.word	0x8f5c28f6
    40e8:	402435c2 	.word	0x402435c2
    40ec:	a1cac083 	.word	0xa1cac083
    40f0:	40243645 	.word	0x40243645
    40f4:	b4395810 	.word	0xb4395810
    40f8:	402436c8 	.word	0x402436c8
    40fc:	c6a7ef9e 	.word	0xc6a7ef9e
    4100:	4024374b 	.word	0x4024374b
    4104:	d916872b 	.word	0xd916872b
    4108:	402437ce 	.word	0x402437ce
    410c:	eb851eb8 	.word	0xeb851eb8
    4110:	40243851 	.word	0x40243851
    4114:	fdf3b646 	.word	0xfdf3b646
    4118:	402438d4 	.word	0x402438d4
    411c:	10624dd3 	.word	0x10624dd3
    4120:	40243958 	.word	0x40243958
    4124:	22d0e560 	.word	0x22d0e560
    4128:	402439db 	.word	0x402439db
    412c:	353f7cee 	.word	0x353f7cee
    4130:	40243a5e 	.word	0x40243a5e
    4134:	47ae147b 	.word	0x47ae147b
    4138:	40243ae1 	.word	0x40243ae1
    413c:	5a1cac08 	.word	0x5a1cac08
    4140:	40243b64 	.word	0x40243b64
    4144:	6c8b4396 	.word	0x6c8b4396
    4148:	40243be7 	.word	0x40243be7
    414c:	7ef9db23 	.word	0x7ef9db23
    4150:	40243c6a 	.word	0x40243c6a
    4154:	916872b0 	.word	0x916872b0
    4158:	40243ced 	.word	0x40243ced
    415c:	a3d70a3d 	.word	0xa3d70a3d
    4160:	40243d70 	.word	0x40243d70
    4164:	b645a1cb 	.word	0xb645a1cb
    4168:	40243df3 	.word	0x40243df3
    416c:	c8b43958 	.word	0xc8b43958
    4170:	40243e76 	.word	0x40243e76
    4174:	db22d0e5 	.word	0xdb22d0e5
    4178:	40243ef9 	.word	0x40243ef9
    417c:	ed916873 	.word	0xed916873
    4180:	40243f7c 	.word	0x40243f7c
    4184:	00000000 	.word	0x00000000
    4188:	40244000 	.word	0x40244000
    418c:	126e978d 	.word	0x126e978d
    4190:	40244083 	.word	0x40244083
    4194:	24dd2f1b 	.word	0x24dd2f1b
    4198:	40244106 	.word	0x40244106
    419c:	374bc6a8 	.word	0x374bc6a8
    41a0:	40244189 	.word	0x40244189
    41a4:	126e978d 	.word	0x126e978d
    41a8:	40260083 	.word	0x40260083
    41ac:	24dd2f1b 	.word	0x24dd2f1b
    41b0:	40260106 	.word	0x40260106
    41b4:	374bc6a8 	.word	0x374bc6a8
    41b8:	40260189 	.word	0x40260189
    41bc:	49ba5e35 	.word	0x49ba5e35
    41c0:	4026020c 	.word	0x4026020c
    41c4:	5c28f5c3 	.word	0x5c28f5c3
    41c8:	4026028f 	.word	0x4026028f
    41cc:	6e978d50 	.word	0x6e978d50
    41d0:	40260312 	.word	0x40260312
    41d4:	810624dd 	.word	0x810624dd
    41d8:	40260395 	.word	0x40260395
    41dc:	9374bc6a 	.word	0x9374bc6a
    41e0:	40260418 	.word	0x40260418
    41e4:	a5e353f8 	.word	0xa5e353f8
    41e8:	4026049b 	.word	0x4026049b
    41ec:	b851eb85 	.word	0xb851eb85
    41f0:	4026051e 	.word	0x4026051e
    41f4:	cac08312 	.word	0xcac08312
    41f8:	402605a1 	.word	0x402605a1
    41fc:	dd2f1aa0 	.word	0xdd2f1aa0
    4200:	40260624 	.word	0x40260624
    4204:	ef9db22d 	.word	0xef9db22d
    4208:	402606a7 	.word	0x402606a7
    420c:	020c49ba 	.word	0x020c49ba
    4210:	4026072b 	.word	0x4026072b
    4214:	147ae148 	.word	0x147ae148
    4218:	402607ae 	.word	0x402607ae
    421c:	26e978d5 	.word	0x26e978d5
    4220:	40260831 	.word	0x40260831
    4224:	39581062 	.word	0x39581062
    4228:	402608b4 	.word	0x402608b4
    422c:	4bc6a7f0 	.word	0x4bc6a7f0
    4230:	40260937 	.word	0x40260937
    4234:	5e353f7d 	.word	0x5e353f7d
    4238:	402609ba 	.word	0x402609ba
    423c:	70a3d70a 	.word	0x70a3d70a
    4240:	40260a3d 	.word	0x40260a3d
    4244:	83126e98 	.word	0x83126e98
    4248:	40260ac0 	.word	0x40260ac0
    424c:	95810625 	.word	0x95810625
    4250:	40260b43 	.word	0x40260b43
    4254:	a7ef9db2 	.word	0xa7ef9db2
    4258:	40260bc6 	.word	0x40260bc6
    425c:	ba5e353f 	.word	0xba5e353f
    4260:	40260c49 	.word	0x40260c49
    4264:	cccccccd 	.word	0xcccccccd
    4268:	40260ccc 	.word	0x40260ccc
    426c:	df3b645a 	.word	0xdf3b645a
    4270:	40260d4f 	.word	0x40260d4f
    4274:	f1a9fbe7 	.word	0xf1a9fbe7
    4278:	40260dd2 	.word	0x40260dd2
    427c:	04189375 	.word	0x04189375
    4280:	40260e56 	.word	0x40260e56
    4284:	16872b02 	.word	0x16872b02
    4288:	40260ed9 	.word	0x40260ed9
    428c:	28f5c28f 	.word	0x28f5c28f
    4290:	40260f5c 	.word	0x40260f5c
    4294:	3b645a1d 	.word	0x3b645a1d
    4298:	40260fdf 	.word	0x40260fdf
    429c:	4dd2f1aa 	.word	0x4dd2f1aa
    42a0:	40261062 	.word	0x40261062
    42a4:	60418937 	.word	0x60418937
    42a8:	402610e5 	.word	0x402610e5
    42ac:	72b020c5 	.word	0x72b020c5
    42b0:	40261168 	.word	0x40261168
    42b4:	851eb852 	.word	0x851eb852
    42b8:	402611eb 	.word	0x402611eb
    42bc:	978d4fdf 	.word	0x978d4fdf
    42c0:	4026126e 	.word	0x4026126e
    42c4:	a9fbe76d 	.word	0xa9fbe76d
    42c8:	402612f1 	.word	0x402612f1
    42cc:	bc6a7efa 	.word	0xbc6a7efa
    42d0:	40261374 	.word	0x40261374
    42d4:	ced91687 	.word	0xced91687
    42d8:	402613f7 	.word	0x402613f7
    42dc:	e147ae14 	.word	0xe147ae14
    42e0:	4026147a 	.word	0x4026147a
    42e4:	f3b645a2 	.word	0xf3b645a2
    42e8:	402614fd 	.word	0x402614fd
    42ec:	0624dd2f 	.word	0x0624dd2f
    42f0:	40261581 	.word	0x40261581
    42f4:	189374bc 	.word	0x189374bc
    42f8:	40261604 	.word	0x40261604
    42fc:	2b020c4a 	.word	0x2b020c4a
    4300:	40261687 	.word	0x40261687
    4304:	3d70a3d7 	.word	0x3d70a3d7
    4308:	4026170a 	.word	0x4026170a
    430c:	4fdf3b64 	.word	0x4fdf3b64
    4310:	4026178d 	.word	0x4026178d
    4314:	624dd2f2 	.word	0x624dd2f2
    4318:	40261810 	.word	0x40261810
    431c:	74bc6a7f 	.word	0x74bc6a7f
    4320:	40261893 	.word	0x40261893
    4324:	872b020c 	.word	0x872b020c
    4328:	40261916 	.word	0x40261916
    432c:	9999999a 	.word	0x9999999a
    4330:	40261999 	.word	0x40261999
    4334:	ac083127 	.word	0xac083127
    4338:	40261a1c 	.word	0x40261a1c
    433c:	be76c8b4 	.word	0xbe76c8b4
    4340:	40261a9f 	.word	0x40261a9f
    4344:	d0e56042 	.word	0xd0e56042
    4348:	40261b22 	.word	0x40261b22
    434c:	e353f7cf 	.word	0xe353f7cf
    4350:	40261ba5 	.word	0x40261ba5
    4354:	f5c28f5c 	.word	0xf5c28f5c
    4358:	40261c28 	.word	0x40261c28
    435c:	083126e9 	.word	0x083126e9
    4360:	40261cac 	.word	0x40261cac
    4364:	1a9fbe77 	.word	0x1a9fbe77
    4368:	40261d2f 	.word	0x40261d2f
    436c:	2d0e5604 	.word	0x2d0e5604
    4370:	40261db2 	.word	0x40261db2
    4374:	3f7ced91 	.word	0x3f7ced91
    4378:	40261e35 	.word	0x40261e35
    437c:	51eb851f 	.word	0x51eb851f
    4380:	40261eb8 	.word	0x40261eb8
    4384:	645a1cac 	.word	0x645a1cac
    4388:	40261f3b 	.word	0x40261f3b
    438c:	76c8b439 	.word	0x76c8b439
    4390:	40261fbe 	.word	0x40261fbe
    4394:	89374bc7 	.word	0x89374bc7
    4398:	40262041 	.word	0x40262041
    439c:	9ba5e354 	.word	0x9ba5e354
    43a0:	402620c4 	.word	0x402620c4
    43a4:	ae147ae1 	.word	0xae147ae1
    43a8:	40262147 	.word	0x40262147
    43ac:	c083126f 	.word	0xc083126f
    43b0:	402621ca 	.word	0x402621ca
    43b4:	d2f1a9fc 	.word	0xd2f1a9fc
    43b8:	4026224d 	.word	0x4026224d
    43bc:	e5604189 	.word	0xe5604189
    43c0:	402622d0 	.word	0x402622d0
    43c4:	f7ced917 	.word	0xf7ced917
    43c8:	40262353 	.word	0x40262353
    43cc:	0a3d70a4 	.word	0x0a3d70a4
    43d0:	402623d7 	.word	0x402623d7
    43d4:	1cac0831 	.word	0x1cac0831
    43d8:	4026245a 	.word	0x4026245a
    43dc:	2f1a9fbe 	.word	0x2f1a9fbe
    43e0:	402624dd 	.word	0x402624dd
    43e4:	4189374c 	.word	0x4189374c
    43e8:	40262560 	.word	0x40262560
    43ec:	53f7ced9 	.word	0x53f7ced9
    43f0:	402625e3 	.word	0x402625e3
    43f4:	66666666 	.word	0x66666666
    43f8:	40262666 	.word	0x40262666
    43fc:	78d4fdf4 	.word	0x78d4fdf4
    4400:	402626e9 	.word	0x402626e9
    4404:	8b439581 	.word	0x8b439581
    4408:	4026276c 	.word	0x4026276c
    440c:	9db22d0e 	.word	0x9db22d0e
    4410:	402627ef 	.word	0x402627ef
    4414:	b020c49c 	.word	0xb020c49c
    4418:	40262872 	.word	0x40262872
    441c:	c28f5c29 	.word	0xc28f5c29
    4420:	402628f5 	.word	0x402628f5
    4424:	d4fdf3b6 	.word	0xd4fdf3b6
    4428:	40262978 	.word	0x40262978
    442c:	e76c8b44 	.word	0xe76c8b44
    4430:	402629fb 	.word	0x402629fb
    4434:	f9db22d1 	.word	0xf9db22d1
    4438:	40262a7e 	.word	0x40262a7e
    443c:	0c49ba5e 	.word	0x0c49ba5e
    4440:	40262b02 	.word	0x40262b02
    4444:	1eb851ec 	.word	0x1eb851ec
    4448:	40262b85 	.word	0x40262b85
    444c:	3126e979 	.word	0x3126e979
    4450:	40262c08 	.word	0x40262c08
    4454:	43958106 	.word	0x43958106
    4458:	40262c8b 	.word	0x40262c8b
    445c:	56041893 	.word	0x56041893
    4460:	40262d0e 	.word	0x40262d0e
    4464:	6872b021 	.word	0x6872b021
    4468:	40262d91 	.word	0x40262d91
    446c:	7ae147ae 	.word	0x7ae147ae
    4470:	40262e14 	.word	0x40262e14
    4474:	8d4fdf3b 	.word	0x8d4fdf3b
    4478:	40262e97 	.word	0x40262e97
    447c:	9fbe76c9 	.word	0x9fbe76c9
    4480:	40262f1a 	.word	0x40262f1a
    4484:	b22d0e56 	.word	0xb22d0e56
    4488:	40262f9d 	.word	0x40262f9d
    448c:	c49ba5e3 	.word	0xc49ba5e3
    4490:	40263020 	.word	0x40263020
    4494:	d70a3d71 	.word	0xd70a3d71
    4498:	402630a3 	.word	0x402630a3
    449c:	e978d4fe 	.word	0xe978d4fe
    44a0:	40263126 	.word	0x40263126
    44a4:	fbe76c8b 	.word	0xfbe76c8b
    44a8:	402631a9 	.word	0x402631a9
    44ac:	0e560419 	.word	0x0e560419
    44b0:	4026322d 	.word	0x4026322d
    44b4:	20c49ba6 	.word	0x20c49ba6
    44b8:	402632b0 	.word	0x402632b0
    44bc:	33333333 	.word	0x33333333
    44c0:	40263333 	.word	0x40263333
    44c4:	45a1cac1 	.word	0x45a1cac1
    44c8:	402633b6 	.word	0x402633b6
    44cc:	5810624e 	.word	0x5810624e
    44d0:	40263439 	.word	0x40263439
    44d4:	6a7ef9db 	.word	0x6a7ef9db
    44d8:	402634bc 	.word	0x402634bc
    44dc:	7ced9168 	.word	0x7ced9168
    44e0:	4026353f 	.word	0x4026353f
    44e4:	8f5c28f6 	.word	0x8f5c28f6
    44e8:	402635c2 	.word	0x402635c2
    44ec:	a1cac083 	.word	0xa1cac083
    44f0:	40263645 	.word	0x40263645
    44f4:	b4395810 	.word	0xb4395810
    44f8:	402636c8 	.word	0x402636c8
    44fc:	c6a7ef9e 	.word	0xc6a7ef9e
    4500:	4026374b 	.word	0x4026374b
    4504:	d916872b 	.word	0xd916872b
    4508:	402637ce 	.word	0x402637ce
    450c:	eb851eb8 	.word	0xeb851eb8
    4510:	40263851 	.word	0x40263851
    4514:	fdf3b646 	.word	0xfdf3b646
    4518:	402638d4 	.word	0x402638d4
    451c:	10624dd3 	.word	0x10624dd3
    4520:	40263958 	.word	0x40263958
    4524:	22d0e560 	.word	0x22d0e560
    4528:	402639db 	.word	0x402639db
    452c:	353f7cee 	.word	0x353f7cee
    4530:	40263a5e 	.word	0x40263a5e
    4534:	47ae147b 	.word	0x47ae147b
    4538:	40263ae1 	.word	0x40263ae1
    453c:	5a1cac08 	.word	0x5a1cac08
    4540:	40263b64 	.word	0x40263b64
    4544:	6c8b4396 	.word	0x6c8b4396
    4548:	40263be7 	.word	0x40263be7
    454c:	7ef9db23 	.word	0x7ef9db23
    4550:	40263c6a 	.word	0x40263c6a
    4554:	916872b0 	.word	0x916872b0
    4558:	40263ced 	.word	0x40263ced
    455c:	a3d70a3d 	.word	0xa3d70a3d
    4560:	40263d70 	.word	0x40263d70
    4564:	b645a1cb 	.word	0xb645a1cb
    4568:	40263df3 	.word	0x40263df3
    456c:	c8b43958 	.word	0xc8b43958
    4570:	40263e76 	.word	0x40263e76
    4574:	db22d0e5 	.word	0xdb22d0e5
    4578:	40263ef9 	.word	0x40263ef9
    457c:	ed916873 	.word	0xed916873
    4580:	40263f7c 	.word	0x40263f7c
    4584:	00000000 	.word	0x00000000
    4588:	40264000 	.word	0x40264000
    458c:	126e978d 	.word	0x126e978d
    4590:	40264083 	.word	0x40264083
    4594:	24dd2f1b 	.word	0x24dd2f1b
    4598:	40264106 	.word	0x40264106
    459c:	374bc6a8 	.word	0x374bc6a8
    45a0:	40264189 	.word	0x40264189
    45a4:	126e978d 	.word	0x126e978d
    45a8:	40280083 	.word	0x40280083
    45ac:	24dd2f1b 	.word	0x24dd2f1b
    45b0:	40280106 	.word	0x40280106
    45b4:	374bc6a8 	.word	0x374bc6a8
    45b8:	40280189 	.word	0x40280189
    45bc:	49ba5e35 	.word	0x49ba5e35
    45c0:	4028020c 	.word	0x4028020c
    45c4:	5c28f5c3 	.word	0x5c28f5c3
    45c8:	4028028f 	.word	0x4028028f
    45cc:	6e978d50 	.word	0x6e978d50
    45d0:	40280312 	.word	0x40280312
    45d4:	810624dd 	.word	0x810624dd
    45d8:	40280395 	.word	0x40280395
    45dc:	9374bc6a 	.word	0x9374bc6a
    45e0:	40280418 	.word	0x40280418
    45e4:	a5e353f8 	.word	0xa5e353f8
    45e8:	4028049b 	.word	0x4028049b
    45ec:	b851eb85 	.word	0xb851eb85
    45f0:	4028051e 	.word	0x4028051e
    45f4:	cac08312 	.word	0xcac08312
    45f8:	402805a1 	.word	0x402805a1
    45fc:	dd2f1aa0 	.word	0xdd2f1aa0
    4600:	40280624 	.word	0x40280624
    4604:	ef9db22d 	.word	0xef9db22d
    4608:	402806a7 	.word	0x402806a7
    460c:	020c49ba 	.word	0x020c49ba
    4610:	4028072b 	.word	0x4028072b
    4614:	147ae148 	.word	0x147ae148
    4618:	402807ae 	.word	0x402807ae
    461c:	26e978d5 	.word	0x26e978d5
    4620:	40280831 	.word	0x40280831
    4624:	39581062 	.word	0x39581062
    4628:	402808b4 	.word	0x402808b4
    462c:	4bc6a7f0 	.word	0x4bc6a7f0
    4630:	40280937 	.word	0x40280937
    4634:	5e353f7d 	.word	0x5e353f7d
    4638:	402809ba 	.word	0x402809ba
    463c:	70a3d70a 	.word	0x70a3d70a
    4640:	40280a3d 	.word	0x40280a3d
    4644:	83126e98 	.word	0x83126e98
    4648:	40280ac0 	.word	0x40280ac0
    464c:	95810625 	.word	0x95810625
    4650:	40280b43 	.word	0x40280b43
    4654:	a7ef9db2 	.word	0xa7ef9db2
    4658:	40280bc6 	.word	0x40280bc6
    465c:	ba5e353f 	.word	0xba5e353f
    4660:	40280c49 	.word	0x40280c49
    4664:	cccccccd 	.word	0xcccccccd
    4668:	40280ccc 	.word	0x40280ccc
    466c:	df3b645a 	.word	0xdf3b645a
    4670:	40280d4f 	.word	0x40280d4f
    4674:	f1a9fbe7 	.word	0xf1a9fbe7
    4678:	40280dd2 	.word	0x40280dd2
    467c:	04189375 	.word	0x04189375
    4680:	40280e56 	.word	0x40280e56
    4684:	16872b02 	.word	0x16872b02
    4688:	40280ed9 	.word	0x40280ed9
    468c:	28f5c28f 	.word	0x28f5c28f
    4690:	40280f5c 	.word	0x40280f5c
    4694:	3b645a1d 	.word	0x3b645a1d
    4698:	40280fdf 	.word	0x40280fdf
    469c:	4dd2f1aa 	.word	0x4dd2f1aa
    46a0:	40281062 	.word	0x40281062
    46a4:	60418937 	.word	0x60418937
    46a8:	402810e5 	.word	0x402810e5
    46ac:	72b020c5 	.word	0x72b020c5
    46b0:	40281168 	.word	0x40281168
    46b4:	851eb852 	.word	0x851eb852
    46b8:	402811eb 	.word	0x402811eb
    46bc:	978d4fdf 	.word	0x978d4fdf
    46c0:	4028126e 	.word	0x4028126e
    46c4:	a9fbe76d 	.word	0xa9fbe76d
    46c8:	402812f1 	.word	0x402812f1
    46cc:	bc6a7efa 	.word	0xbc6a7efa
    46d0:	40281374 	.word	0x40281374
    46d4:	ced91687 	.word	0xced91687
    46d8:	402813f7 	.word	0x402813f7
    46dc:	e147ae14 	.word	0xe147ae14
    46e0:	4028147a 	.word	0x4028147a
    46e4:	f3b645a2 	.word	0xf3b645a2
    46e8:	402814fd 	.word	0x402814fd
    46ec:	0624dd2f 	.word	0x0624dd2f
    46f0:	40281581 	.word	0x40281581
    46f4:	189374bc 	.word	0x189374bc
    46f8:	40281604 	.word	0x40281604
    46fc:	2b020c4a 	.word	0x2b020c4a
    4700:	40281687 	.word	0x40281687
    4704:	3d70a3d7 	.word	0x3d70a3d7
    4708:	4028170a 	.word	0x4028170a
    470c:	4fdf3b64 	.word	0x4fdf3b64
    4710:	4028178d 	.word	0x4028178d
    4714:	624dd2f2 	.word	0x624dd2f2
    4718:	40281810 	.word	0x40281810
    471c:	74bc6a7f 	.word	0x74bc6a7f
    4720:	40281893 	.word	0x40281893
    4724:	872b020c 	.word	0x872b020c
    4728:	40281916 	.word	0x40281916
    472c:	9999999a 	.word	0x9999999a
    4730:	40281999 	.word	0x40281999
    4734:	ac083127 	.word	0xac083127
    4738:	40281a1c 	.word	0x40281a1c
    473c:	be76c8b4 	.word	0xbe76c8b4
    4740:	40281a9f 	.word	0x40281a9f
    4744:	d0e56042 	.word	0xd0e56042
    4748:	40281b22 	.word	0x40281b22
    474c:	e353f7cf 	.word	0xe353f7cf
    4750:	40281ba5 	.word	0x40281ba5
    4754:	f5c28f5c 	.word	0xf5c28f5c
    4758:	40281c28 	.word	0x40281c28
    475c:	083126e9 	.word	0x083126e9
    4760:	40281cac 	.word	0x40281cac
    4764:	1a9fbe77 	.word	0x1a9fbe77
    4768:	40281d2f 	.word	0x40281d2f
    476c:	2d0e5604 	.word	0x2d0e5604
    4770:	40281db2 	.word	0x40281db2
    4774:	3f7ced91 	.word	0x3f7ced91
    4778:	40281e35 	.word	0x40281e35
    477c:	51eb851f 	.word	0x51eb851f
    4780:	40281eb8 	.word	0x40281eb8
    4784:	645a1cac 	.word	0x645a1cac
    4788:	40281f3b 	.word	0x40281f3b
    478c:	76c8b439 	.word	0x76c8b439
    4790:	40281fbe 	.word	0x40281fbe
    4794:	89374bc7 	.word	0x89374bc7
    4798:	40282041 	.word	0x40282041
    479c:	9ba5e354 	.word	0x9ba5e354
    47a0:	402820c4 	.word	0x402820c4
    47a4:	ae147ae1 	.word	0xae147ae1
    47a8:	40282147 	.word	0x40282147
    47ac:	c083126f 	.word	0xc083126f
    47b0:	402821ca 	.word	0x402821ca
    47b4:	d2f1a9fc 	.word	0xd2f1a9fc
    47b8:	4028224d 	.word	0x4028224d
    47bc:	e5604189 	.word	0xe5604189
    47c0:	402822d0 	.word	0x402822d0
    47c4:	f7ced917 	.word	0xf7ced917
    47c8:	40282353 	.word	0x40282353
    47cc:	0a3d70a4 	.word	0x0a3d70a4
    47d0:	402823d7 	.word	0x402823d7
    47d4:	1cac0831 	.word	0x1cac0831
    47d8:	4028245a 	.word	0x4028245a
    47dc:	2f1a9fbe 	.word	0x2f1a9fbe
    47e0:	402824dd 	.word	0x402824dd
    47e4:	4189374c 	.word	0x4189374c
    47e8:	40282560 	.word	0x40282560
    47ec:	53f7ced9 	.word	0x53f7ced9
    47f0:	402825e3 	.word	0x402825e3
    47f4:	66666666 	.word	0x66666666
    47f8:	40282666 	.word	0x40282666
    47fc:	78d4fdf4 	.word	0x78d4fdf4
    4800:	402826e9 	.word	0x402826e9
    4804:	8b439581 	.word	0x8b439581
    4808:	4028276c 	.word	0x4028276c
    480c:	9db22d0e 	.word	0x9db22d0e
    4810:	402827ef 	.word	0x402827ef
    4814:	b020c49c 	.word	0xb020c49c
    4818:	40282872 	.word	0x40282872
    481c:	c28f5c29 	.word	0xc28f5c29
    4820:	402828f5 	.word	0x402828f5
    4824:	d4fdf3b6 	.word	0xd4fdf3b6
    4828:	40282978 	.word	0x40282978
    482c:	e76c8b44 	.word	0xe76c8b44
    4830:	402829fb 	.word	0x402829fb
    4834:	f9db22d1 	.word	0xf9db22d1
    4838:	40282a7e 	.word	0x40282a7e
    483c:	0c49ba5e 	.word	0x0c49ba5e
    4840:	40282b02 	.word	0x40282b02
    4844:	1eb851ec 	.word	0x1eb851ec
    4848:	40282b85 	.word	0x40282b85
    484c:	3126e979 	.word	0x3126e979
    4850:	40282c08 	.word	0x40282c08
    4854:	43958106 	.word	0x43958106
    4858:	40282c8b 	.word	0x40282c8b
    485c:	56041893 	.word	0x56041893
    4860:	40282d0e 	.word	0x40282d0e
    4864:	6872b021 	.word	0x6872b021
    4868:	40282d91 	.word	0x40282d91
    486c:	7ae147ae 	.word	0x7ae147ae
    4870:	40282e14 	.word	0x40282e14
    4874:	8d4fdf3b 	.word	0x8d4fdf3b
    4878:	40282e97 	.word	0x40282e97
    487c:	9fbe76c9 	.word	0x9fbe76c9
    4880:	40282f1a 	.word	0x40282f1a
    4884:	b22d0e56 	.word	0xb22d0e56
    4888:	40282f9d 	.word	0x40282f9d
    488c:	c49ba5e3 	.word	0xc49ba5e3
    4890:	40283020 	.word	0x40283020
    4894:	d70a3d71 	.word	0xd70a3d71
    4898:	402830a3 	.word	0x402830a3
    489c:	e978d4fe 	.word	0xe978d4fe
    48a0:	40283126 	.word	0x40283126
    48a4:	fbe76c8b 	.word	0xfbe76c8b
    48a8:	402831a9 	.word	0x402831a9
    48ac:	0e560419 	.word	0x0e560419
    48b0:	4028322d 	.word	0x4028322d
    48b4:	20c49ba6 	.word	0x20c49ba6
    48b8:	402832b0 	.word	0x402832b0
    48bc:	33333333 	.word	0x33333333
    48c0:	40283333 	.word	0x40283333
    48c4:	45a1cac1 	.word	0x45a1cac1
    48c8:	402833b6 	.word	0x402833b6
    48cc:	5810624e 	.word	0x5810624e
    48d0:	40283439 	.word	0x40283439
    48d4:	6a7ef9db 	.word	0x6a7ef9db
    48d8:	402834bc 	.word	0x402834bc
    48dc:	7ced9168 	.word	0x7ced9168
    48e0:	4028353f 	.word	0x4028353f
    48e4:	8f5c28f6 	.word	0x8f5c28f6
    48e8:	402835c2 	.word	0x402835c2
    48ec:	a1cac083 	.word	0xa1cac083
    48f0:	40283645 	.word	0x40283645
    48f4:	b4395810 	.word	0xb4395810
    48f8:	402836c8 	.word	0x402836c8
    48fc:	c6a7ef9e 	.word	0xc6a7ef9e
    4900:	4028374b 	.word	0x4028374b
    4904:	d916872b 	.word	0xd916872b
    4908:	402837ce 	.word	0x402837ce
    490c:	eb851eb8 	.word	0xeb851eb8
    4910:	40283851 	.word	0x40283851
    4914:	fdf3b646 	.word	0xfdf3b646
    4918:	402838d4 	.word	0x402838d4
    491c:	10624dd3 	.word	0x10624dd3
    4920:	40283958 	.word	0x40283958
    4924:	22d0e560 	.word	0x22d0e560
    4928:	402839db 	.word	0x402839db
    492c:	353f7cee 	.word	0x353f7cee
    4930:	40283a5e 	.word	0x40283a5e
    4934:	47ae147b 	.word	0x47ae147b
    4938:	40283ae1 	.word	0x40283ae1
    493c:	5a1cac08 	.word	0x5a1cac08
    4940:	40283b64 	.word	0x40283b64
    4944:	6c8b4396 	.word	0x6c8b4396
    4948:	40283be7 	.word	0x40283be7
    494c:	7ef9db23 	.word	0x7ef9db23
    4950:	40283c6a 	.word	0x40283c6a
    4954:	916872b0 	.word	0x916872b0
    4958:	40283ced 	.word	0x40283ced
    495c:	a3d70a3d 	.word	0xa3d70a3d
    4960:	40283d70 	.word	0x40283d70
    4964:	b645a1cb 	.word	0xb645a1cb
    4968:	40283df3 	.word	0x40283df3
    496c:	c8b43958 	.word	0xc8b43958
    4970:	40283e76 	.word	0x40283e76
    4974:	db22d0e5 	.word	0xdb22d0e5
    4978:	40283ef9 	.word	0x40283ef9
    497c:	ed916873 	.word	0xed916873
    4980:	40283f7c 	.word	0x40283f7c
    4984:	00000000 	.word	0x00000000
    4988:	40284000 	.word	0x40284000
    498c:	126e978d 	.word	0x126e978d
    4990:	40284083 	.word	0x40284083
    4994:	24dd2f1b 	.word	0x24dd2f1b
    4998:	40284106 	.word	0x40284106
    499c:	374bc6a8 	.word	0x374bc6a8
    49a0:	40284189 	.word	0x40284189
    49a4:	126e978d 	.word	0x126e978d
    49a8:	402a0083 	.word	0x402a0083
    49ac:	24dd2f1b 	.word	0x24dd2f1b
    49b0:	402a0106 	.word	0x402a0106
    49b4:	374bc6a8 	.word	0x374bc6a8
    49b8:	402a0189 	.word	0x402a0189
    49bc:	49ba5e35 	.word	0x49ba5e35
    49c0:	402a020c 	.word	0x402a020c
    49c4:	5c28f5c3 	.word	0x5c28f5c3
    49c8:	402a028f 	.word	0x402a028f
    49cc:	6e978d50 	.word	0x6e978d50
    49d0:	402a0312 	.word	0x402a0312
    49d4:	810624dd 	.word	0x810624dd
    49d8:	402a0395 	.word	0x402a0395
    49dc:	9374bc6a 	.word	0x9374bc6a
    49e0:	402a0418 	.word	0x402a0418
    49e4:	a5e353f8 	.word	0xa5e353f8
    49e8:	402a049b 	.word	0x402a049b
    49ec:	b851eb85 	.word	0xb851eb85
    49f0:	402a051e 	.word	0x402a051e
    49f4:	cac08312 	.word	0xcac08312
    49f8:	402a05a1 	.word	0x402a05a1
    49fc:	dd2f1aa0 	.word	0xdd2f1aa0
    4a00:	402a0624 	.word	0x402a0624
    4a04:	ef9db22d 	.word	0xef9db22d
    4a08:	402a06a7 	.word	0x402a06a7
    4a0c:	020c49ba 	.word	0x020c49ba
    4a10:	402a072b 	.word	0x402a072b
    4a14:	147ae148 	.word	0x147ae148
    4a18:	402a07ae 	.word	0x402a07ae
    4a1c:	26e978d5 	.word	0x26e978d5
    4a20:	402a0831 	.word	0x402a0831
    4a24:	39581062 	.word	0x39581062
    4a28:	402a08b4 	.word	0x402a08b4
    4a2c:	4bc6a7f0 	.word	0x4bc6a7f0
    4a30:	402a0937 	.word	0x402a0937
    4a34:	5e353f7d 	.word	0x5e353f7d
    4a38:	402a09ba 	.word	0x402a09ba
    4a3c:	70a3d70a 	.word	0x70a3d70a
    4a40:	402a0a3d 	.word	0x402a0a3d
    4a44:	83126e98 	.word	0x83126e98
    4a48:	402a0ac0 	.word	0x402a0ac0
    4a4c:	95810625 	.word	0x95810625
    4a50:	402a0b43 	.word	0x402a0b43
    4a54:	a7ef9db2 	.word	0xa7ef9db2
    4a58:	402a0bc6 	.word	0x402a0bc6
    4a5c:	ba5e353f 	.word	0xba5e353f
    4a60:	402a0c49 	.word	0x402a0c49
    4a64:	cccccccd 	.word	0xcccccccd
    4a68:	402a0ccc 	.word	0x402a0ccc
    4a6c:	df3b645a 	.word	0xdf3b645a
    4a70:	402a0d4f 	.word	0x402a0d4f
    4a74:	f1a9fbe7 	.word	0xf1a9fbe7
    4a78:	402a0dd2 	.word	0x402a0dd2
    4a7c:	04189375 	.word	0x04189375
    4a80:	402a0e56 	.word	0x402a0e56
    4a84:	16872b02 	.word	0x16872b02
    4a88:	402a0ed9 	.word	0x402a0ed9
    4a8c:	28f5c28f 	.word	0x28f5c28f
    4a90:	402a0f5c 	.word	0x402a0f5c
    4a94:	3b645a1d 	.word	0x3b645a1d
    4a98:	402a0fdf 	.word	0x402a0fdf
    4a9c:	4dd2f1aa 	.word	0x4dd2f1aa
    4aa0:	402a1062 	.word	0x402a1062
    4aa4:	60418937 	.word	0x60418937
    4aa8:	402a10e5 	.word	0x402a10e5
    4aac:	72b020c5 	.word	0x72b020c5
    4ab0:	402a1168 	.word	0x402a1168
    4ab4:	851eb852 	.word	0x851eb852
    4ab8:	402a11eb 	.word	0x402a11eb
    4abc:	978d4fdf 	.word	0x978d4fdf
    4ac0:	402a126e 	.word	0x402a126e
    4ac4:	a9fbe76d 	.word	0xa9fbe76d
    4ac8:	402a12f1 	.word	0x402a12f1
    4acc:	bc6a7efa 	.word	0xbc6a7efa
    4ad0:	402a1374 	.word	0x402a1374
    4ad4:	ced91687 	.word	0xced91687
    4ad8:	402a13f7 	.word	0x402a13f7
    4adc:	e147ae14 	.word	0xe147ae14
    4ae0:	402a147a 	.word	0x402a147a
    4ae4:	f3b645a2 	.word	0xf3b645a2
    4ae8:	402a14fd 	.word	0x402a14fd
    4aec:	0624dd2f 	.word	0x0624dd2f
    4af0:	402a1581 	.word	0x402a1581
    4af4:	189374bc 	.word	0x189374bc
    4af8:	402a1604 	.word	0x402a1604
    4afc:	2b020c4a 	.word	0x2b020c4a
    4b00:	402a1687 	.word	0x402a1687
    4b04:	3d70a3d7 	.word	0x3d70a3d7
    4b08:	402a170a 	.word	0x402a170a
    4b0c:	4fdf3b64 	.word	0x4fdf3b64
    4b10:	402a178d 	.word	0x402a178d
    4b14:	624dd2f2 	.word	0x624dd2f2
    4b18:	402a1810 	.word	0x402a1810
    4b1c:	74bc6a7f 	.word	0x74bc6a7f
    4b20:	402a1893 	.word	0x402a1893
    4b24:	872b020c 	.word	0x872b020c
    4b28:	402a1916 	.word	0x402a1916
    4b2c:	9999999a 	.word	0x9999999a
    4b30:	402a1999 	.word	0x402a1999
    4b34:	ac083127 	.word	0xac083127
    4b38:	402a1a1c 	.word	0x402a1a1c
    4b3c:	be76c8b4 	.word	0xbe76c8b4
    4b40:	402a1a9f 	.word	0x402a1a9f
    4b44:	d0e56042 	.word	0xd0e56042
    4b48:	402a1b22 	.word	0x402a1b22
    4b4c:	e353f7cf 	.word	0xe353f7cf
    4b50:	402a1ba5 	.word	0x402a1ba5
    4b54:	f5c28f5c 	.word	0xf5c28f5c
    4b58:	402a1c28 	.word	0x402a1c28
    4b5c:	083126e9 	.word	0x083126e9
    4b60:	402a1cac 	.word	0x402a1cac
    4b64:	1a9fbe77 	.word	0x1a9fbe77
    4b68:	402a1d2f 	.word	0x402a1d2f
    4b6c:	2d0e5604 	.word	0x2d0e5604
    4b70:	402a1db2 	.word	0x402a1db2
    4b74:	3f7ced91 	.word	0x3f7ced91
    4b78:	402a1e35 	.word	0x402a1e35
    4b7c:	51eb851f 	.word	0x51eb851f
    4b80:	402a1eb8 	.word	0x402a1eb8
    4b84:	645a1cac 	.word	0x645a1cac
    4b88:	402a1f3b 	.word	0x402a1f3b
    4b8c:	76c8b439 	.word	0x76c8b439
    4b90:	402a1fbe 	.word	0x402a1fbe
    4b94:	89374bc7 	.word	0x89374bc7
    4b98:	402a2041 	.word	0x402a2041
    4b9c:	9ba5e354 	.word	0x9ba5e354
    4ba0:	402a20c4 	.word	0x402a20c4
    4ba4:	ae147ae1 	.word	0xae147ae1
    4ba8:	402a2147 	.word	0x402a2147
    4bac:	c083126f 	.word	0xc083126f
    4bb0:	402a21ca 	.word	0x402a21ca
    4bb4:	d2f1a9fc 	.word	0xd2f1a9fc
    4bb8:	402a224d 	.word	0x402a224d
    4bbc:	e5604189 	.word	0xe5604189
    4bc0:	402a22d0 	.word	0x402a22d0
    4bc4:	f7ced917 	.word	0xf7ced917
    4bc8:	402a2353 	.word	0x402a2353
    4bcc:	0a3d70a4 	.word	0x0a3d70a4
    4bd0:	402a23d7 	.word	0x402a23d7
    4bd4:	1cac0831 	.word	0x1cac0831
    4bd8:	402a245a 	.word	0x402a245a
    4bdc:	2f1a9fbe 	.word	0x2f1a9fbe
    4be0:	402a24dd 	.word	0x402a24dd
    4be4:	4189374c 	.word	0x4189374c
    4be8:	402a2560 	.word	0x402a2560
    4bec:	53f7ced9 	.word	0x53f7ced9
    4bf0:	402a25e3 	.word	0x402a25e3
    4bf4:	66666666 	.word	0x66666666
    4bf8:	402a2666 	.word	0x402a2666
    4bfc:	78d4fdf4 	.word	0x78d4fdf4
    4c00:	402a26e9 	.word	0x402a26e9
    4c04:	8b439581 	.word	0x8b439581
    4c08:	402a276c 	.word	0x402a276c
    4c0c:	9db22d0e 	.word	0x9db22d0e
    4c10:	402a27ef 	.word	0x402a27ef
    4c14:	b020c49c 	.word	0xb020c49c
    4c18:	402a2872 	.word	0x402a2872
    4c1c:	c28f5c29 	.word	0xc28f5c29
    4c20:	402a28f5 	.word	0x402a28f5
    4c24:	d4fdf3b6 	.word	0xd4fdf3b6
    4c28:	402a2978 	.word	0x402a2978
    4c2c:	e76c8b44 	.word	0xe76c8b44
    4c30:	402a29fb 	.word	0x402a29fb
    4c34:	f9db22d1 	.word	0xf9db22d1
    4c38:	402a2a7e 	.word	0x402a2a7e
    4c3c:	0c49ba5e 	.word	0x0c49ba5e
    4c40:	402a2b02 	.word	0x402a2b02
    4c44:	1eb851ec 	.word	0x1eb851ec
    4c48:	402a2b85 	.word	0x402a2b85
    4c4c:	3126e979 	.word	0x3126e979
    4c50:	402a2c08 	.word	0x402a2c08
    4c54:	43958106 	.word	0x43958106
    4c58:	402a2c8b 	.word	0x402a2c8b
    4c5c:	56041893 	.word	0x56041893
    4c60:	402a2d0e 	.word	0x402a2d0e
    4c64:	6872b021 	.word	0x6872b021
    4c68:	402a2d91 	.word	0x402a2d91
    4c6c:	7ae147ae 	.word	0x7ae147ae
    4c70:	402a2e14 	.word	0x402a2e14
    4c74:	8d4fdf3b 	.word	0x8d4fdf3b
    4c78:	402a2e97 	.word	0x402a2e97
    4c7c:	9fbe76c9 	.word	0x9fbe76c9
    4c80:	402a2f1a 	.word	0x402a2f1a
    4c84:	b22d0e56 	.word	0xb22d0e56
    4c88:	402a2f9d 	.word	0x402a2f9d
    4c8c:	c49ba5e3 	.word	0xc49ba5e3
    4c90:	402a3020 	.word	0x402a3020
    4c94:	d70a3d71 	.word	0xd70a3d71
    4c98:	402a30a3 	.word	0x402a30a3
    4c9c:	e978d4fe 	.word	0xe978d4fe
    4ca0:	402a3126 	.word	0x402a3126
    4ca4:	fbe76c8b 	.word	0xfbe76c8b
    4ca8:	402a31a9 	.word	0x402a31a9
    4cac:	0e560419 	.word	0x0e560419
    4cb0:	402a322d 	.word	0x402a322d
    4cb4:	20c49ba6 	.word	0x20c49ba6
    4cb8:	402a32b0 	.word	0x402a32b0
    4cbc:	33333333 	.word	0x33333333
    4cc0:	402a3333 	.word	0x402a3333
    4cc4:	45a1cac1 	.word	0x45a1cac1
    4cc8:	402a33b6 	.word	0x402a33b6
    4ccc:	5810624e 	.word	0x5810624e
    4cd0:	402a3439 	.word	0x402a3439
    4cd4:	6a7ef9db 	.word	0x6a7ef9db
    4cd8:	402a34bc 	.word	0x402a34bc
    4cdc:	7ced9168 	.word	0x7ced9168
    4ce0:	402a353f 	.word	0x402a353f
    4ce4:	8f5c28f6 	.word	0x8f5c28f6
    4ce8:	402a35c2 	.word	0x402a35c2
    4cec:	a1cac083 	.word	0xa1cac083
    4cf0:	402a3645 	.word	0x402a3645
    4cf4:	b4395810 	.word	0xb4395810
    4cf8:	402a36c8 	.word	0x402a36c8
    4cfc:	c6a7ef9e 	.word	0xc6a7ef9e
    4d00:	402a374b 	.word	0x402a374b
    4d04:	d916872b 	.word	0xd916872b
    4d08:	402a37ce 	.word	0x402a37ce
    4d0c:	eb851eb8 	.word	0xeb851eb8
    4d10:	402a3851 	.word	0x402a3851
    4d14:	fdf3b646 	.word	0xfdf3b646
    4d18:	402a38d4 	.word	0x402a38d4
    4d1c:	10624dd3 	.word	0x10624dd3
    4d20:	402a3958 	.word	0x402a3958
    4d24:	22d0e560 	.word	0x22d0e560
    4d28:	402a39db 	.word	0x402a39db
    4d2c:	353f7cee 	.word	0x353f7cee
    4d30:	402a3a5e 	.word	0x402a3a5e
    4d34:	47ae147b 	.word	0x47ae147b
    4d38:	402a3ae1 	.word	0x402a3ae1
    4d3c:	5a1cac08 	.word	0x5a1cac08
    4d40:	402a3b64 	.word	0x402a3b64
    4d44:	6c8b4396 	.word	0x6c8b4396
    4d48:	402a3be7 	.word	0x402a3be7
    4d4c:	7ef9db23 	.word	0x7ef9db23
    4d50:	402a3c6a 	.word	0x402a3c6a
    4d54:	916872b0 	.word	0x916872b0
    4d58:	402a3ced 	.word	0x402a3ced
    4d5c:	a3d70a3d 	.word	0xa3d70a3d
    4d60:	402a3d70 	.word	0x402a3d70
    4d64:	b645a1cb 	.word	0xb645a1cb
    4d68:	402a3df3 	.word	0x402a3df3
    4d6c:	c8b43958 	.word	0xc8b43958
    4d70:	402a3e76 	.word	0x402a3e76
    4d74:	db22d0e5 	.word	0xdb22d0e5
    4d78:	402a3ef9 	.word	0x402a3ef9
    4d7c:	ed916873 	.word	0xed916873
    4d80:	402a3f7c 	.word	0x402a3f7c
    4d84:	00000000 	.word	0x00000000
    4d88:	402a4000 	.word	0x402a4000
    4d8c:	126e978d 	.word	0x126e978d
    4d90:	402a4083 	.word	0x402a4083
    4d94:	24dd2f1b 	.word	0x24dd2f1b
    4d98:	402a4106 	.word	0x402a4106
    4d9c:	374bc6a8 	.word	0x374bc6a8
    4da0:	402a4189 	.word	0x402a4189
    4da4:	126e978d 	.word	0x126e978d
    4da8:	402c0083 	.word	0x402c0083
    4dac:	24dd2f1b 	.word	0x24dd2f1b
    4db0:	402c0106 	.word	0x402c0106
    4db4:	374bc6a8 	.word	0x374bc6a8
    4db8:	402c0189 	.word	0x402c0189
    4dbc:	49ba5e35 	.word	0x49ba5e35
    4dc0:	402c020c 	.word	0x402c020c
    4dc4:	5c28f5c3 	.word	0x5c28f5c3
    4dc8:	402c028f 	.word	0x402c028f
    4dcc:	6e978d50 	.word	0x6e978d50
    4dd0:	402c0312 	.word	0x402c0312
    4dd4:	810624dd 	.word	0x810624dd
    4dd8:	402c0395 	.word	0x402c0395
    4ddc:	9374bc6a 	.word	0x9374bc6a
    4de0:	402c0418 	.word	0x402c0418
    4de4:	a5e353f8 	.word	0xa5e353f8
    4de8:	402c049b 	.word	0x402c049b
    4dec:	b851eb85 	.word	0xb851eb85
    4df0:	402c051e 	.word	0x402c051e
    4df4:	cac08312 	.word	0xcac08312
    4df8:	402c05a1 	.word	0x402c05a1
    4dfc:	dd2f1aa0 	.word	0xdd2f1aa0
    4e00:	402c0624 	.word	0x402c0624
    4e04:	ef9db22d 	.word	0xef9db22d
    4e08:	402c06a7 	.word	0x402c06a7
    4e0c:	020c49ba 	.word	0x020c49ba
    4e10:	402c072b 	.word	0x402c072b
    4e14:	147ae148 	.word	0x147ae148
    4e18:	402c07ae 	.word	0x402c07ae
    4e1c:	26e978d5 	.word	0x26e978d5
    4e20:	402c0831 	.word	0x402c0831
    4e24:	39581062 	.word	0x39581062
    4e28:	402c08b4 	.word	0x402c08b4
    4e2c:	4bc6a7f0 	.word	0x4bc6a7f0
    4e30:	402c0937 	.word	0x402c0937
    4e34:	5e353f7d 	.word	0x5e353f7d
    4e38:	402c09ba 	.word	0x402c09ba
    4e3c:	70a3d70a 	.word	0x70a3d70a
    4e40:	402c0a3d 	.word	0x402c0a3d
    4e44:	83126e98 	.word	0x83126e98
    4e48:	402c0ac0 	.word	0x402c0ac0
    4e4c:	95810625 	.word	0x95810625
    4e50:	402c0b43 	.word	0x402c0b43
    4e54:	a7ef9db2 	.word	0xa7ef9db2
    4e58:	402c0bc6 	.word	0x402c0bc6
    4e5c:	ba5e353f 	.word	0xba5e353f
    4e60:	402c0c49 	.word	0x402c0c49
    4e64:	cccccccd 	.word	0xcccccccd
    4e68:	402c0ccc 	.word	0x402c0ccc
    4e6c:	df3b645a 	.word	0xdf3b645a
    4e70:	402c0d4f 	.word	0x402c0d4f
    4e74:	f1a9fbe7 	.word	0xf1a9fbe7
    4e78:	402c0dd2 	.word	0x402c0dd2
    4e7c:	04189375 	.word	0x04189375
    4e80:	402c0e56 	.word	0x402c0e56
    4e84:	16872b02 	.word	0x16872b02
    4e88:	402c0ed9 	.word	0x402c0ed9
    4e8c:	28f5c28f 	.word	0x28f5c28f
    4e90:	402c0f5c 	.word	0x402c0f5c
    4e94:	3b645a1d 	.word	0x3b645a1d
    4e98:	402c0fdf 	.word	0x402c0fdf
    4e9c:	4dd2f1aa 	.word	0x4dd2f1aa
    4ea0:	402c1062 	.word	0x402c1062
    4ea4:	60418937 	.word	0x60418937
    4ea8:	402c10e5 	.word	0x402c10e5
    4eac:	72b020c5 	.word	0x72b020c5
    4eb0:	402c1168 	.word	0x402c1168
    4eb4:	851eb852 	.word	0x851eb852
    4eb8:	402c11eb 	.word	0x402c11eb
    4ebc:	978d4fdf 	.word	0x978d4fdf
    4ec0:	402c126e 	.word	0x402c126e
    4ec4:	a9fbe76d 	.word	0xa9fbe76d
    4ec8:	402c12f1 	.word	0x402c12f1
    4ecc:	bc6a7efa 	.word	0xbc6a7efa
    4ed0:	402c1374 	.word	0x402c1374
    4ed4:	ced91687 	.word	0xced91687
    4ed8:	402c13f7 	.word	0x402c13f7
    4edc:	e147ae14 	.word	0xe147ae14
    4ee0:	402c147a 	.word	0x402c147a
    4ee4:	f3b645a2 	.word	0xf3b645a2
    4ee8:	402c14fd 	.word	0x402c14fd
    4eec:	0624dd2f 	.word	0x0624dd2f
    4ef0:	402c1581 	.word	0x402c1581
    4ef4:	189374bc 	.word	0x189374bc
    4ef8:	402c1604 	.word	0x402c1604
    4efc:	2b020c4a 	.word	0x2b020c4a
    4f00:	402c1687 	.word	0x402c1687
    4f04:	3d70a3d7 	.word	0x3d70a3d7
    4f08:	402c170a 	.word	0x402c170a
    4f0c:	4fdf3b64 	.word	0x4fdf3b64
    4f10:	402c178d 	.word	0x402c178d
    4f14:	624dd2f2 	.word	0x624dd2f2
    4f18:	402c1810 	.word	0x402c1810
    4f1c:	74bc6a7f 	.word	0x74bc6a7f
    4f20:	402c1893 	.word	0x402c1893
    4f24:	872b020c 	.word	0x872b020c
    4f28:	402c1916 	.word	0x402c1916
    4f2c:	9999999a 	.word	0x9999999a
    4f30:	402c1999 	.word	0x402c1999
    4f34:	ac083127 	.word	0xac083127
    4f38:	402c1a1c 	.word	0x402c1a1c
    4f3c:	be76c8b4 	.word	0xbe76c8b4
    4f40:	402c1a9f 	.word	0x402c1a9f
    4f44:	d0e56042 	.word	0xd0e56042
    4f48:	402c1b22 	.word	0x402c1b22
    4f4c:	e353f7cf 	.word	0xe353f7cf
    4f50:	402c1ba5 	.word	0x402c1ba5
    4f54:	f5c28f5c 	.word	0xf5c28f5c
    4f58:	402c1c28 	.word	0x402c1c28
    4f5c:	083126e9 	.word	0x083126e9
    4f60:	402c1cac 	.word	0x402c1cac
    4f64:	1a9fbe77 	.word	0x1a9fbe77
    4f68:	402c1d2f 	.word	0x402c1d2f
    4f6c:	2d0e5604 	.word	0x2d0e5604
    4f70:	402c1db2 	.word	0x402c1db2
    4f74:	3f7ced91 	.word	0x3f7ced91
    4f78:	402c1e35 	.word	0x402c1e35
    4f7c:	51eb851f 	.word	0x51eb851f
    4f80:	402c1eb8 	.word	0x402c1eb8
    4f84:	645a1cac 	.word	0x645a1cac
    4f88:	402c1f3b 	.word	0x402c1f3b
    4f8c:	76c8b439 	.word	0x76c8b439
    4f90:	402c1fbe 	.word	0x402c1fbe
    4f94:	89374bc7 	.word	0x89374bc7
    4f98:	402c2041 	.word	0x402c2041
    4f9c:	9ba5e354 	.word	0x9ba5e354
    4fa0:	402c20c4 	.word	0x402c20c4
    4fa4:	ae147ae1 	.word	0xae147ae1
    4fa8:	402c2147 	.word	0x402c2147
    4fac:	c083126f 	.word	0xc083126f
    4fb0:	402c21ca 	.word	0x402c21ca
    4fb4:	d2f1a9fc 	.word	0xd2f1a9fc
    4fb8:	402c224d 	.word	0x402c224d
    4fbc:	e5604189 	.word	0xe5604189
    4fc0:	402c22d0 	.word	0x402c22d0
    4fc4:	f7ced917 	.word	0xf7ced917
    4fc8:	402c2353 	.word	0x402c2353
    4fcc:	0a3d70a4 	.word	0x0a3d70a4
    4fd0:	402c23d7 	.word	0x402c23d7
    4fd4:	1cac0831 	.word	0x1cac0831
    4fd8:	402c245a 	.word	0x402c245a
    4fdc:	2f1a9fbe 	.word	0x2f1a9fbe
    4fe0:	402c24dd 	.word	0x402c24dd
    4fe4:	4189374c 	.word	0x4189374c
    4fe8:	402c2560 	.word	0x402c2560
    4fec:	53f7ced9 	.word	0x53f7ced9
    4ff0:	402c25e3 	.word	0x402c25e3
    4ff4:	66666666 	.word	0x66666666
    4ff8:	402c2666 	.word	0x402c2666
    4ffc:	78d4fdf4 	.word	0x78d4fdf4
    5000:	402c26e9 	.word	0x402c26e9
    5004:	8b439581 	.word	0x8b439581
    5008:	402c276c 	.word	0x402c276c
    500c:	9db22d0e 	.word	0x9db22d0e
    5010:	402c27ef 	.word	0x402c27ef
    5014:	b020c49c 	.word	0xb020c49c
    5018:	402c2872 	.word	0x402c2872
    501c:	c28f5c29 	.word	0xc28f5c29
    5020:	402c28f5 	.word	0x402c28f5
    5024:	d4fdf3b6 	.word	0xd4fdf3b6
    5028:	402c2978 	.word	0x402c2978
    502c:	e76c8b44 	.word	0xe76c8b44
    5030:	402c29fb 	.word	0x402c29fb
    5034:	f9db22d1 	.word	0xf9db22d1
    5038:	402c2a7e 	.word	0x402c2a7e
    503c:	0c49ba5e 	.word	0x0c49ba5e
    5040:	402c2b02 	.word	0x402c2b02
    5044:	1eb851ec 	.word	0x1eb851ec
    5048:	402c2b85 	.word	0x402c2b85
    504c:	3126e979 	.word	0x3126e979
    5050:	402c2c08 	.word	0x402c2c08
    5054:	43958106 	.word	0x43958106
    5058:	402c2c8b 	.word	0x402c2c8b
    505c:	56041893 	.word	0x56041893
    5060:	402c2d0e 	.word	0x402c2d0e
    5064:	6872b021 	.word	0x6872b021
    5068:	402c2d91 	.word	0x402c2d91
    506c:	7ae147ae 	.word	0x7ae147ae
    5070:	402c2e14 	.word	0x402c2e14
    5074:	8d4fdf3b 	.word	0x8d4fdf3b
    5078:	402c2e97 	.word	0x402c2e97
    507c:	9fbe76c9 	.word	0x9fbe76c9
    5080:	402c2f1a 	.word	0x402c2f1a
    5084:	b22d0e56 	.word	0xb22d0e56
    5088:	402c2f9d 	.word	0x402c2f9d
    508c:	c49ba5e3 	.word	0xc49ba5e3
    5090:	402c3020 	.word	0x402c3020
    5094:	d70a3d71 	.word	0xd70a3d71
    5098:	402c30a3 	.word	0x402c30a3
    509c:	e978d4fe 	.word	0xe978d4fe
    50a0:	402c3126 	.word	0x402c3126
    50a4:	fbe76c8b 	.word	0xfbe76c8b
    50a8:	402c31a9 	.word	0x402c31a9
    50ac:	0e560419 	.word	0x0e560419
    50b0:	402c322d 	.word	0x402c322d
    50b4:	20c49ba6 	.word	0x20c49ba6
    50b8:	402c32b0 	.word	0x402c32b0
    50bc:	33333333 	.word	0x33333333
    50c0:	402c3333 	.word	0x402c3333
    50c4:	45a1cac1 	.word	0x45a1cac1
    50c8:	402c33b6 	.word	0x402c33b6
    50cc:	5810624e 	.word	0x5810624e
    50d0:	402c3439 	.word	0x402c3439
    50d4:	6a7ef9db 	.word	0x6a7ef9db
    50d8:	402c34bc 	.word	0x402c34bc
    50dc:	7ced9168 	.word	0x7ced9168
    50e0:	402c353f 	.word	0x402c353f
    50e4:	8f5c28f6 	.word	0x8f5c28f6
    50e8:	402c35c2 	.word	0x402c35c2
    50ec:	a1cac083 	.word	0xa1cac083
    50f0:	402c3645 	.word	0x402c3645
    50f4:	b4395810 	.word	0xb4395810
    50f8:	402c36c8 	.word	0x402c36c8
    50fc:	c6a7ef9e 	.word	0xc6a7ef9e
    5100:	402c374b 	.word	0x402c374b
    5104:	d916872b 	.word	0xd916872b
    5108:	402c37ce 	.word	0x402c37ce
    510c:	eb851eb8 	.word	0xeb851eb8
    5110:	402c3851 	.word	0x402c3851
    5114:	fdf3b646 	.word	0xfdf3b646
    5118:	402c38d4 	.word	0x402c38d4
    511c:	10624dd3 	.word	0x10624dd3
    5120:	402c3958 	.word	0x402c3958
    5124:	22d0e560 	.word	0x22d0e560
    5128:	402c39db 	.word	0x402c39db
    512c:	353f7cee 	.word	0x353f7cee
    5130:	402c3a5e 	.word	0x402c3a5e
    5134:	47ae147b 	.word	0x47ae147b
    5138:	402c3ae1 	.word	0x402c3ae1
    513c:	5a1cac08 	.word	0x5a1cac08
    5140:	402c3b64 	.word	0x402c3b64
    5144:	6c8b4396 	.word	0x6c8b4396
    5148:	402c3be7 	.word	0x402c3be7
    514c:	7ef9db23 	.word	0x7ef9db23
    5150:	402c3c6a 	.word	0x402c3c6a
    5154:	916872b0 	.word	0x916872b0
    5158:	402c3ced 	.word	0x402c3ced
    515c:	a3d70a3d 	.word	0xa3d70a3d
    5160:	402c3d70 	.word	0x402c3d70
    5164:	b645a1cb 	.word	0xb645a1cb
    5168:	402c3df3 	.word	0x402c3df3
    516c:	c8b43958 	.word	0xc8b43958
    5170:	402c3e76 	.word	0x402c3e76
    5174:	db22d0e5 	.word	0xdb22d0e5
    5178:	402c3ef9 	.word	0x402c3ef9
    517c:	ed916873 	.word	0xed916873
    5180:	402c3f7c 	.word	0x402c3f7c
    5184:	00000000 	.word	0x00000000
    5188:	402c4000 	.word	0x402c4000
    518c:	126e978d 	.word	0x126e978d
    5190:	402c4083 	.word	0x402c4083
    5194:	24dd2f1b 	.word	0x24dd2f1b
    5198:	402c4106 	.word	0x402c4106
    519c:	374bc6a8 	.word	0x374bc6a8
    51a0:	402c4189 	.word	0x402c4189
    51a4:	126e978d 	.word	0x126e978d
    51a8:	402e0083 	.word	0x402e0083
    51ac:	24dd2f1b 	.word	0x24dd2f1b
    51b0:	402e0106 	.word	0x402e0106
    51b4:	374bc6a8 	.word	0x374bc6a8
    51b8:	402e0189 	.word	0x402e0189
    51bc:	49ba5e35 	.word	0x49ba5e35
    51c0:	402e020c 	.word	0x402e020c
    51c4:	5c28f5c3 	.word	0x5c28f5c3
    51c8:	402e028f 	.word	0x402e028f
    51cc:	6e978d50 	.word	0x6e978d50
    51d0:	402e0312 	.word	0x402e0312
    51d4:	810624dd 	.word	0x810624dd
    51d8:	402e0395 	.word	0x402e0395
    51dc:	9374bc6a 	.word	0x9374bc6a
    51e0:	402e0418 	.word	0x402e0418
    51e4:	a5e353f8 	.word	0xa5e353f8
    51e8:	402e049b 	.word	0x402e049b
    51ec:	b851eb85 	.word	0xb851eb85
    51f0:	402e051e 	.word	0x402e051e
    51f4:	cac08312 	.word	0xcac08312
    51f8:	402e05a1 	.word	0x402e05a1
    51fc:	dd2f1aa0 	.word	0xdd2f1aa0
    5200:	402e0624 	.word	0x402e0624
    5204:	ef9db22d 	.word	0xef9db22d
    5208:	402e06a7 	.word	0x402e06a7
    520c:	020c49ba 	.word	0x020c49ba
    5210:	402e072b 	.word	0x402e072b
    5214:	147ae148 	.word	0x147ae148
    5218:	402e07ae 	.word	0x402e07ae
    521c:	26e978d5 	.word	0x26e978d5
    5220:	402e0831 	.word	0x402e0831
    5224:	39581062 	.word	0x39581062
    5228:	402e08b4 	.word	0x402e08b4
    522c:	4bc6a7f0 	.word	0x4bc6a7f0
    5230:	402e0937 	.word	0x402e0937
    5234:	5e353f7d 	.word	0x5e353f7d
    5238:	402e09ba 	.word	0x402e09ba
    523c:	70a3d70a 	.word	0x70a3d70a
    5240:	402e0a3d 	.word	0x402e0a3d
    5244:	83126e98 	.word	0x83126e98
    5248:	402e0ac0 	.word	0x402e0ac0
    524c:	95810625 	.word	0x95810625
    5250:	402e0b43 	.word	0x402e0b43
    5254:	a7ef9db2 	.word	0xa7ef9db2
    5258:	402e0bc6 	.word	0x402e0bc6
    525c:	ba5e353f 	.word	0xba5e353f
    5260:	402e0c49 	.word	0x402e0c49
    5264:	cccccccd 	.word	0xcccccccd
    5268:	402e0ccc 	.word	0x402e0ccc
    526c:	df3b645a 	.word	0xdf3b645a
    5270:	402e0d4f 	.word	0x402e0d4f
    5274:	f1a9fbe7 	.word	0xf1a9fbe7
    5278:	402e0dd2 	.word	0x402e0dd2
    527c:	04189375 	.word	0x04189375
    5280:	402e0e56 	.word	0x402e0e56
    5284:	16872b02 	.word	0x16872b02
    5288:	402e0ed9 	.word	0x402e0ed9
    528c:	28f5c28f 	.word	0x28f5c28f
    5290:	402e0f5c 	.word	0x402e0f5c
    5294:	3b645a1d 	.word	0x3b645a1d
    5298:	402e0fdf 	.word	0x402e0fdf
    529c:	4dd2f1aa 	.word	0x4dd2f1aa
    52a0:	402e1062 	.word	0x402e1062
    52a4:	60418937 	.word	0x60418937
    52a8:	402e10e5 	.word	0x402e10e5
    52ac:	72b020c5 	.word	0x72b020c5
    52b0:	402e1168 	.word	0x402e1168
    52b4:	851eb852 	.word	0x851eb852
    52b8:	402e11eb 	.word	0x402e11eb
    52bc:	978d4fdf 	.word	0x978d4fdf
    52c0:	402e126e 	.word	0x402e126e
    52c4:	a9fbe76d 	.word	0xa9fbe76d
    52c8:	402e12f1 	.word	0x402e12f1
    52cc:	bc6a7efa 	.word	0xbc6a7efa
    52d0:	402e1374 	.word	0x402e1374
    52d4:	ced91687 	.word	0xced91687
    52d8:	402e13f7 	.word	0x402e13f7
    52dc:	e147ae14 	.word	0xe147ae14
    52e0:	402e147a 	.word	0x402e147a
    52e4:	f3b645a2 	.word	0xf3b645a2
    52e8:	402e14fd 	.word	0x402e14fd
    52ec:	0624dd2f 	.word	0x0624dd2f
    52f0:	402e1581 	.word	0x402e1581
    52f4:	189374bc 	.word	0x189374bc
    52f8:	402e1604 	.word	0x402e1604
    52fc:	2b020c4a 	.word	0x2b020c4a
    5300:	402e1687 	.word	0x402e1687
    5304:	3d70a3d7 	.word	0x3d70a3d7
    5308:	402e170a 	.word	0x402e170a
    530c:	4fdf3b64 	.word	0x4fdf3b64
    5310:	402e178d 	.word	0x402e178d
    5314:	624dd2f2 	.word	0x624dd2f2
    5318:	402e1810 	.word	0x402e1810
    531c:	74bc6a7f 	.word	0x74bc6a7f
    5320:	402e1893 	.word	0x402e1893
    5324:	872b020c 	.word	0x872b020c
    5328:	402e1916 	.word	0x402e1916
    532c:	9999999a 	.word	0x9999999a
    5330:	402e1999 	.word	0x402e1999
    5334:	ac083127 	.word	0xac083127
    5338:	402e1a1c 	.word	0x402e1a1c
    533c:	be76c8b4 	.word	0xbe76c8b4
    5340:	402e1a9f 	.word	0x402e1a9f
    5344:	d0e56042 	.word	0xd0e56042
    5348:	402e1b22 	.word	0x402e1b22
    534c:	e353f7cf 	.word	0xe353f7cf
    5350:	402e1ba5 	.word	0x402e1ba5
    5354:	f5c28f5c 	.word	0xf5c28f5c
    5358:	402e1c28 	.word	0x402e1c28
    535c:	083126e9 	.word	0x083126e9
    5360:	402e1cac 	.word	0x402e1cac
    5364:	1a9fbe77 	.word	0x1a9fbe77
    5368:	402e1d2f 	.word	0x402e1d2f
    536c:	2d0e5604 	.word	0x2d0e5604
    5370:	402e1db2 	.word	0x402e1db2
    5374:	3f7ced91 	.word	0x3f7ced91
    5378:	402e1e35 	.word	0x402e1e35
    537c:	51eb851f 	.word	0x51eb851f
    5380:	402e1eb8 	.word	0x402e1eb8
    5384:	645a1cac 	.word	0x645a1cac
    5388:	402e1f3b 	.word	0x402e1f3b
    538c:	76c8b439 	.word	0x76c8b439
    5390:	402e1fbe 	.word	0x402e1fbe
    5394:	89374bc7 	.word	0x89374bc7
    5398:	402e2041 	.word	0x402e2041
    539c:	9ba5e354 	.word	0x9ba5e354
    53a0:	402e20c4 	.word	0x402e20c4
    53a4:	ae147ae1 	.word	0xae147ae1
    53a8:	402e2147 	.word	0x402e2147
    53ac:	c083126f 	.word	0xc083126f
    53b0:	402e21ca 	.word	0x402e21ca
    53b4:	d2f1a9fc 	.word	0xd2f1a9fc
    53b8:	402e224d 	.word	0x402e224d
    53bc:	e5604189 	.word	0xe5604189
    53c0:	402e22d0 	.word	0x402e22d0
    53c4:	f7ced917 	.word	0xf7ced917
    53c8:	402e2353 	.word	0x402e2353
    53cc:	0a3d70a4 	.word	0x0a3d70a4
    53d0:	402e23d7 	.word	0x402e23d7
    53d4:	1cac0831 	.word	0x1cac0831
    53d8:	402e245a 	.word	0x402e245a
    53dc:	2f1a9fbe 	.word	0x2f1a9fbe
    53e0:	402e24dd 	.word	0x402e24dd
    53e4:	4189374c 	.word	0x4189374c
    53e8:	402e2560 	.word	0x402e2560
    53ec:	53f7ced9 	.word	0x53f7ced9
    53f0:	402e25e3 	.word	0x402e25e3
    53f4:	66666666 	.word	0x66666666
    53f8:	402e2666 	.word	0x402e2666
    53fc:	78d4fdf4 	.word	0x78d4fdf4
    5400:	402e26e9 	.word	0x402e26e9
    5404:	8b439581 	.word	0x8b439581
    5408:	402e276c 	.word	0x402e276c
    540c:	9db22d0e 	.word	0x9db22d0e
    5410:	402e27ef 	.word	0x402e27ef
    5414:	b020c49c 	.word	0xb020c49c
    5418:	402e2872 	.word	0x402e2872
    541c:	c28f5c29 	.word	0xc28f5c29
    5420:	402e28f5 	.word	0x402e28f5
    5424:	d4fdf3b6 	.word	0xd4fdf3b6
    5428:	402e2978 	.word	0x402e2978
    542c:	e76c8b44 	.word	0xe76c8b44
    5430:	402e29fb 	.word	0x402e29fb
    5434:	f9db22d1 	.word	0xf9db22d1
    5438:	402e2a7e 	.word	0x402e2a7e
    543c:	0c49ba5e 	.word	0x0c49ba5e
    5440:	402e2b02 	.word	0x402e2b02
    5444:	1eb851ec 	.word	0x1eb851ec
    5448:	402e2b85 	.word	0x402e2b85
    544c:	3126e979 	.word	0x3126e979
    5450:	402e2c08 	.word	0x402e2c08
    5454:	43958106 	.word	0x43958106
    5458:	402e2c8b 	.word	0x402e2c8b
    545c:	56041893 	.word	0x56041893
    5460:	402e2d0e 	.word	0x402e2d0e
    5464:	6872b021 	.word	0x6872b021
    5468:	402e2d91 	.word	0x402e2d91
    546c:	7ae147ae 	.word	0x7ae147ae
    5470:	402e2e14 	.word	0x402e2e14
    5474:	8d4fdf3b 	.word	0x8d4fdf3b
    5478:	402e2e97 	.word	0x402e2e97
    547c:	9fbe76c9 	.word	0x9fbe76c9
    5480:	402e2f1a 	.word	0x402e2f1a
    5484:	b22d0e56 	.word	0xb22d0e56
    5488:	402e2f9d 	.word	0x402e2f9d
    548c:	c49ba5e3 	.word	0xc49ba5e3
    5490:	402e3020 	.word	0x402e3020
    5494:	d70a3d71 	.word	0xd70a3d71
    5498:	402e30a3 	.word	0x402e30a3
    549c:	e978d4fe 	.word	0xe978d4fe
    54a0:	402e3126 	.word	0x402e3126
    54a4:	fbe76c8b 	.word	0xfbe76c8b
    54a8:	402e31a9 	.word	0x402e31a9
    54ac:	0e560419 	.word	0x0e560419
    54b0:	402e322d 	.word	0x402e322d
    54b4:	20c49ba6 	.word	0x20c49ba6
    54b8:	402e32b0 	.word	0x402e32b0
    54bc:	33333333 	.word	0x33333333
    54c0:	402e3333 	.word	0x402e3333
    54c4:	45a1cac1 	.word	0x45a1cac1
    54c8:	402e33b6 	.word	0x402e33b6
    54cc:	5810624e 	.word	0x5810624e
    54d0:	402e3439 	.word	0x402e3439
    54d4:	6a7ef9db 	.word	0x6a7ef9db
    54d8:	402e34bc 	.word	0x402e34bc
    54dc:	7ced9168 	.word	0x7ced9168
    54e0:	402e353f 	.word	0x402e353f
    54e4:	8f5c28f6 	.word	0x8f5c28f6
    54e8:	402e35c2 	.word	0x402e35c2
    54ec:	a1cac083 	.word	0xa1cac083
    54f0:	402e3645 	.word	0x402e3645
    54f4:	b4395810 	.word	0xb4395810
    54f8:	402e36c8 	.word	0x402e36c8
    54fc:	c6a7ef9e 	.word	0xc6a7ef9e
    5500:	402e374b 	.word	0x402e374b
    5504:	d916872b 	.word	0xd916872b
    5508:	402e37ce 	.word	0x402e37ce
    550c:	eb851eb8 	.word	0xeb851eb8
    5510:	402e3851 	.word	0x402e3851
    5514:	fdf3b646 	.word	0xfdf3b646
    5518:	402e38d4 	.word	0x402e38d4
    551c:	10624dd3 	.word	0x10624dd3
    5520:	402e3958 	.word	0x402e3958
    5524:	22d0e560 	.word	0x22d0e560
    5528:	402e39db 	.word	0x402e39db
    552c:	353f7cee 	.word	0x353f7cee
    5530:	402e3a5e 	.word	0x402e3a5e
    5534:	47ae147b 	.word	0x47ae147b
    5538:	402e3ae1 	.word	0x402e3ae1
    553c:	5a1cac08 	.word	0x5a1cac08
    5540:	402e3b64 	.word	0x402e3b64
    5544:	6c8b4396 	.word	0x6c8b4396
    5548:	402e3be7 	.word	0x402e3be7
    554c:	7ef9db23 	.word	0x7ef9db23
    5550:	402e3c6a 	.word	0x402e3c6a
    5554:	916872b0 	.word	0x916872b0
    5558:	402e3ced 	.word	0x402e3ced
    555c:	a3d70a3d 	.word	0xa3d70a3d
    5560:	402e3d70 	.word	0x402e3d70
    5564:	b645a1cb 	.word	0xb645a1cb
    5568:	402e3df3 	.word	0x402e3df3
    556c:	c8b43958 	.word	0xc8b43958
    5570:	402e3e76 	.word	0x402e3e76
    5574:	db22d0e5 	.word	0xdb22d0e5
    5578:	402e3ef9 	.word	0x402e3ef9
    557c:	ed916873 	.word	0xed916873
    5580:	402e3f7c 	.word	0x402e3f7c
    5584:	00000000 	.word	0x00000000
    5588:	402e4000 	.word	0x402e4000
    558c:	126e978d 	.word	0x126e978d
    5590:	402e4083 	.word	0x402e4083
    5594:	24dd2f1b 	.word	0x24dd2f1b
    5598:	402e4106 	.word	0x402e4106
    559c:	374bc6a8 	.word	0x374bc6a8
    55a0:	402e4189 	.word	0x402e4189
    55a4:	89374bc7 	.word	0x89374bc7
    55a8:	40300041 	.word	0x40300041
    55ac:	126e978d 	.word	0x126e978d
    55b0:	40300083 	.word	0x40300083
    55b4:	9ba5e354 	.word	0x9ba5e354
    55b8:	403000c4 	.word	0x403000c4
    55bc:	24dd2f1b 	.word	0x24dd2f1b
    55c0:	40300106 	.word	0x40300106
    55c4:	ae147ae1 	.word	0xae147ae1
    55c8:	40300147 	.word	0x40300147
    55cc:	374bc6a8 	.word	0x374bc6a8
    55d0:	40300189 	.word	0x40300189
    55d4:	c083126f 	.word	0xc083126f
    55d8:	403001ca 	.word	0x403001ca
    55dc:	49ba5e35 	.word	0x49ba5e35
    55e0:	4030020c 	.word	0x4030020c
    55e4:	d2f1a9fc 	.word	0xd2f1a9fc
    55e8:	4030024d 	.word	0x4030024d
    55ec:	5c28f5c3 	.word	0x5c28f5c3
    55f0:	4030028f 	.word	0x4030028f
    55f4:	e5604189 	.word	0xe5604189
    55f8:	403002d0 	.word	0x403002d0
    55fc:	6e978d50 	.word	0x6e978d50
    5600:	40300312 	.word	0x40300312
    5604:	f7ced917 	.word	0xf7ced917
    5608:	40300353 	.word	0x40300353
    560c:	810624dd 	.word	0x810624dd
    5610:	40300395 	.word	0x40300395
    5614:	0a3d70a4 	.word	0x0a3d70a4
    5618:	403003d7 	.word	0x403003d7
    561c:	9374bc6a 	.word	0x9374bc6a
    5620:	40300418 	.word	0x40300418
    5624:	1cac0831 	.word	0x1cac0831
    5628:	4030045a 	.word	0x4030045a
    562c:	a5e353f8 	.word	0xa5e353f8
    5630:	4030049b 	.word	0x4030049b
    5634:	2f1a9fbe 	.word	0x2f1a9fbe
    5638:	403004dd 	.word	0x403004dd
    563c:	b851eb85 	.word	0xb851eb85
    5640:	4030051e 	.word	0x4030051e
    5644:	4189374c 	.word	0x4189374c
    5648:	40300560 	.word	0x40300560
    564c:	cac08312 	.word	0xcac08312
    5650:	403005a1 	.word	0x403005a1
    5654:	53f7ced9 	.word	0x53f7ced9
    5658:	403005e3 	.word	0x403005e3
    565c:	dd2f1aa0 	.word	0xdd2f1aa0
    5660:	40300624 	.word	0x40300624
    5664:	66666666 	.word	0x66666666
    5668:	40300666 	.word	0x40300666
    566c:	ef9db22d 	.word	0xef9db22d
    5670:	403006a7 	.word	0x403006a7
    5674:	78d4fdf4 	.word	0x78d4fdf4
    5678:	403006e9 	.word	0x403006e9
    567c:	020c49ba 	.word	0x020c49ba
    5680:	4030072b 	.word	0x4030072b
    5684:	8b439581 	.word	0x8b439581
    5688:	4030076c 	.word	0x4030076c
    568c:	147ae148 	.word	0x147ae148
    5690:	403007ae 	.word	0x403007ae
    5694:	9db22d0e 	.word	0x9db22d0e
    5698:	403007ef 	.word	0x403007ef
    569c:	26e978d5 	.word	0x26e978d5
    56a0:	40300831 	.word	0x40300831
    56a4:	b020c49c 	.word	0xb020c49c
    56a8:	40300872 	.word	0x40300872
    56ac:	39581062 	.word	0x39581062
    56b0:	403008b4 	.word	0x403008b4
    56b4:	c28f5c29 	.word	0xc28f5c29
    56b8:	403008f5 	.word	0x403008f5
    56bc:	4bc6a7f0 	.word	0x4bc6a7f0
    56c0:	40300937 	.word	0x40300937
    56c4:	d4fdf3b6 	.word	0xd4fdf3b6
    56c8:	40300978 	.word	0x40300978
    56cc:	5e353f7d 	.word	0x5e353f7d
    56d0:	403009ba 	.word	0x403009ba
    56d4:	e76c8b44 	.word	0xe76c8b44
    56d8:	403009fb 	.word	0x403009fb
    56dc:	70a3d70a 	.word	0x70a3d70a
    56e0:	40300a3d 	.word	0x40300a3d
    56e4:	f9db22d1 	.word	0xf9db22d1
    56e8:	40300a7e 	.word	0x40300a7e
    56ec:	83126e98 	.word	0x83126e98
    56f0:	40300ac0 	.word	0x40300ac0
    56f4:	0c49ba5e 	.word	0x0c49ba5e
    56f8:	40300b02 	.word	0x40300b02
    56fc:	95810625 	.word	0x95810625
    5700:	40300b43 	.word	0x40300b43
    5704:	1eb851ec 	.word	0x1eb851ec
    5708:	40300b85 	.word	0x40300b85
    570c:	a7ef9db2 	.word	0xa7ef9db2
    5710:	40300bc6 	.word	0x40300bc6
    5714:	3126e979 	.word	0x3126e979
    5718:	40300c08 	.word	0x40300c08
    571c:	ba5e353f 	.word	0xba5e353f
    5720:	40300c49 	.word	0x40300c49
    5724:	43958106 	.word	0x43958106
    5728:	40300c8b 	.word	0x40300c8b
    572c:	cccccccd 	.word	0xcccccccd
    5730:	40300ccc 	.word	0x40300ccc
    5734:	56041893 	.word	0x56041893
    5738:	40300d0e 	.word	0x40300d0e
    573c:	df3b645a 	.word	0xdf3b645a
    5740:	40300d4f 	.word	0x40300d4f
    5744:	6872b021 	.word	0x6872b021
    5748:	40300d91 	.word	0x40300d91
    574c:	f1a9fbe7 	.word	0xf1a9fbe7
    5750:	40300dd2 	.word	0x40300dd2
    5754:	7ae147ae 	.word	0x7ae147ae
    5758:	40300e14 	.word	0x40300e14
    575c:	04189375 	.word	0x04189375
    5760:	40300e56 	.word	0x40300e56
    5764:	8d4fdf3b 	.word	0x8d4fdf3b
    5768:	40300e97 	.word	0x40300e97
    576c:	16872b02 	.word	0x16872b02
    5770:	40300ed9 	.word	0x40300ed9
    5774:	9fbe76c9 	.word	0x9fbe76c9
    5778:	40300f1a 	.word	0x40300f1a
    577c:	28f5c28f 	.word	0x28f5c28f
    5780:	40300f5c 	.word	0x40300f5c
    5784:	b22d0e56 	.word	0xb22d0e56
    5788:	40300f9d 	.word	0x40300f9d
    578c:	3b645a1d 	.word	0x3b645a1d
    5790:	40300fdf 	.word	0x40300fdf
    5794:	c49ba5e3 	.word	0xc49ba5e3
    5798:	40301020 	.word	0x40301020
    579c:	4dd2f1aa 	.word	0x4dd2f1aa
    57a0:	40301062 	.word	0x40301062
    57a4:	d70a3d71 	.word	0xd70a3d71
    57a8:	403010a3 	.word	0x403010a3
    57ac:	60418937 	.word	0x60418937
    57b0:	403010e5 	.word	0x403010e5
    57b4:	e978d4fe 	.word	0xe978d4fe
    57b8:	40301126 	.word	0x40301126
    57bc:	72b020c5 	.word	0x72b020c5
    57c0:	40301168 	.word	0x40301168
    57c4:	fbe76c8b 	.word	0xfbe76c8b
    57c8:	403011a9 	.word	0x403011a9
    57cc:	851eb852 	.word	0x851eb852
    57d0:	403011eb 	.word	0x403011eb
    57d4:	0e560419 	.word	0x0e560419
    57d8:	4030122d 	.word	0x4030122d
    57dc:	978d4fdf 	.word	0x978d4fdf
    57e0:	4030126e 	.word	0x4030126e
    57e4:	20c49ba6 	.word	0x20c49ba6
    57e8:	403012b0 	.word	0x403012b0
    57ec:	a9fbe76d 	.word	0xa9fbe76d
    57f0:	403012f1 	.word	0x403012f1
    57f4:	33333333 	.word	0x33333333
    57f8:	40301333 	.word	0x40301333
    57fc:	bc6a7efa 	.word	0xbc6a7efa
    5800:	40301374 	.word	0x40301374
    5804:	45a1cac1 	.word	0x45a1cac1
    5808:	403013b6 	.word	0x403013b6
    580c:	ced91687 	.word	0xced91687
    5810:	403013f7 	.word	0x403013f7
    5814:	5810624e 	.word	0x5810624e
    5818:	40301439 	.word	0x40301439
    581c:	e147ae14 	.word	0xe147ae14
    5820:	4030147a 	.word	0x4030147a
    5824:	6a7ef9db 	.word	0x6a7ef9db
    5828:	403014bc 	.word	0x403014bc
    582c:	f3b645a2 	.word	0xf3b645a2
    5830:	403014fd 	.word	0x403014fd
    5834:	7ced9168 	.word	0x7ced9168
    5838:	4030153f 	.word	0x4030153f
    583c:	0624dd2f 	.word	0x0624dd2f
    5840:	40301581 	.word	0x40301581
    5844:	8f5c28f6 	.word	0x8f5c28f6
    5848:	403015c2 	.word	0x403015c2
    584c:	189374bc 	.word	0x189374bc
    5850:	40301604 	.word	0x40301604
    5854:	a1cac083 	.word	0xa1cac083
    5858:	40301645 	.word	0x40301645
    585c:	2b020c4a 	.word	0x2b020c4a
    5860:	40301687 	.word	0x40301687
    5864:	b4395810 	.word	0xb4395810
    5868:	403016c8 	.word	0x403016c8
    586c:	3d70a3d7 	.word	0x3d70a3d7
    5870:	4030170a 	.word	0x4030170a
    5874:	c6a7ef9e 	.word	0xc6a7ef9e
    5878:	4030174b 	.word	0x4030174b
    587c:	4fdf3b64 	.word	0x4fdf3b64
    5880:	4030178d 	.word	0x4030178d
    5884:	d916872b 	.word	0xd916872b
    5888:	403017ce 	.word	0x403017ce
    588c:	624dd2f2 	.word	0x624dd2f2
    5890:	40301810 	.word	0x40301810
    5894:	eb851eb8 	.word	0xeb851eb8
    5898:	40301851 	.word	0x40301851
    589c:	74bc6a7f 	.word	0x74bc6a7f
    58a0:	40301893 	.word	0x40301893
    58a4:	fdf3b646 	.word	0xfdf3b646
    58a8:	403018d4 	.word	0x403018d4
    58ac:	872b020c 	.word	0x872b020c
    58b0:	40301916 	.word	0x40301916
    58b4:	10624dd3 	.word	0x10624dd3
    58b8:	40301958 	.word	0x40301958
    58bc:	9999999a 	.word	0x9999999a
    58c0:	40301999 	.word	0x40301999
    58c4:	22d0e560 	.word	0x22d0e560
    58c8:	403019db 	.word	0x403019db
    58cc:	ac083127 	.word	0xac083127
    58d0:	40301a1c 	.word	0x40301a1c
    58d4:	353f7cee 	.word	0x353f7cee
    58d8:	40301a5e 	.word	0x40301a5e
    58dc:	be76c8b4 	.word	0xbe76c8b4
    58e0:	40301a9f 	.word	0x40301a9f
    58e4:	47ae147b 	.word	0x47ae147b
    58e8:	40301ae1 	.word	0x40301ae1
    58ec:	d0e56042 	.word	0xd0e56042
    58f0:	40301b22 	.word	0x40301b22
    58f4:	5a1cac08 	.word	0x5a1cac08
    58f8:	40301b64 	.word	0x40301b64
    58fc:	e353f7cf 	.word	0xe353f7cf
    5900:	40301ba5 	.word	0x40301ba5
    5904:	6c8b4396 	.word	0x6c8b4396
    5908:	40301be7 	.word	0x40301be7
    590c:	f5c28f5c 	.word	0xf5c28f5c
    5910:	40301c28 	.word	0x40301c28
    5914:	7ef9db23 	.word	0x7ef9db23
    5918:	40301c6a 	.word	0x40301c6a
    591c:	083126e9 	.word	0x083126e9
    5920:	40301cac 	.word	0x40301cac
    5924:	916872b0 	.word	0x916872b0
    5928:	40301ced 	.word	0x40301ced
    592c:	1a9fbe77 	.word	0x1a9fbe77
    5930:	40301d2f 	.word	0x40301d2f
    5934:	a3d70a3d 	.word	0xa3d70a3d
    5938:	40301d70 	.word	0x40301d70
    593c:	2d0e5604 	.word	0x2d0e5604
    5940:	40301db2 	.word	0x40301db2
    5944:	b645a1cb 	.word	0xb645a1cb
    5948:	40301df3 	.word	0x40301df3
    594c:	3f7ced91 	.word	0x3f7ced91
    5950:	40301e35 	.word	0x40301e35
    5954:	c8b43958 	.word	0xc8b43958
    5958:	40301e76 	.word	0x40301e76
    595c:	51eb851f 	.word	0x51eb851f
    5960:	40301eb8 	.word	0x40301eb8
    5964:	db22d0e5 	.word	0xdb22d0e5
    5968:	40301ef9 	.word	0x40301ef9
    596c:	645a1cac 	.word	0x645a1cac
    5970:	40301f3b 	.word	0x40301f3b
    5974:	ed916873 	.word	0xed916873
    5978:	40301f7c 	.word	0x40301f7c
    597c:	76c8b439 	.word	0x76c8b439
    5980:	40301fbe 	.word	0x40301fbe
    5984:	00000000 	.word	0x00000000
    5988:	40302000 	.word	0x40302000
    598c:	89374bc7 	.word	0x89374bc7
    5990:	40302041 	.word	0x40302041
    5994:	126e978d 	.word	0x126e978d
    5998:	40302083 	.word	0x40302083
    599c:	9ba5e354 	.word	0x9ba5e354
    59a0:	403020c4 	.word	0x403020c4
    59a4:	89374bc7 	.word	0x89374bc7
    59a8:	40310041 	.word	0x40310041
    59ac:	126e978d 	.word	0x126e978d
    59b0:	40310083 	.word	0x40310083
    59b4:	9ba5e354 	.word	0x9ba5e354
    59b8:	403100c4 	.word	0x403100c4
    59bc:	24dd2f1b 	.word	0x24dd2f1b
    59c0:	40310106 	.word	0x40310106
    59c4:	ae147ae1 	.word	0xae147ae1
    59c8:	40310147 	.word	0x40310147
    59cc:	374bc6a8 	.word	0x374bc6a8
    59d0:	40310189 	.word	0x40310189
    59d4:	c083126f 	.word	0xc083126f
    59d8:	403101ca 	.word	0x403101ca
    59dc:	49ba5e35 	.word	0x49ba5e35
    59e0:	4031020c 	.word	0x4031020c
    59e4:	d2f1a9fc 	.word	0xd2f1a9fc
    59e8:	4031024d 	.word	0x4031024d
    59ec:	5c28f5c3 	.word	0x5c28f5c3
    59f0:	4031028f 	.word	0x4031028f
    59f4:	e5604189 	.word	0xe5604189
    59f8:	403102d0 	.word	0x403102d0
    59fc:	6e978d50 	.word	0x6e978d50
    5a00:	40310312 	.word	0x40310312
    5a04:	f7ced917 	.word	0xf7ced917
    5a08:	40310353 	.word	0x40310353
    5a0c:	810624dd 	.word	0x810624dd
    5a10:	40310395 	.word	0x40310395
    5a14:	0a3d70a4 	.word	0x0a3d70a4
    5a18:	403103d7 	.word	0x403103d7
    5a1c:	9374bc6a 	.word	0x9374bc6a
    5a20:	40310418 	.word	0x40310418
    5a24:	1cac0831 	.word	0x1cac0831
    5a28:	4031045a 	.word	0x4031045a
    5a2c:	a5e353f8 	.word	0xa5e353f8
    5a30:	4031049b 	.word	0x4031049b
    5a34:	2f1a9fbe 	.word	0x2f1a9fbe
    5a38:	403104dd 	.word	0x403104dd
    5a3c:	b851eb85 	.word	0xb851eb85
    5a40:	4031051e 	.word	0x4031051e
    5a44:	4189374c 	.word	0x4189374c
    5a48:	40310560 	.word	0x40310560
    5a4c:	cac08312 	.word	0xcac08312
    5a50:	403105a1 	.word	0x403105a1
    5a54:	53f7ced9 	.word	0x53f7ced9
    5a58:	403105e3 	.word	0x403105e3
    5a5c:	dd2f1aa0 	.word	0xdd2f1aa0
    5a60:	40310624 	.word	0x40310624
    5a64:	66666666 	.word	0x66666666
    5a68:	40310666 	.word	0x40310666
    5a6c:	ef9db22d 	.word	0xef9db22d
    5a70:	403106a7 	.word	0x403106a7
    5a74:	78d4fdf4 	.word	0x78d4fdf4
    5a78:	403106e9 	.word	0x403106e9
    5a7c:	020c49ba 	.word	0x020c49ba
    5a80:	4031072b 	.word	0x4031072b
    5a84:	8b439581 	.word	0x8b439581
    5a88:	4031076c 	.word	0x4031076c
    5a8c:	147ae148 	.word	0x147ae148
    5a90:	403107ae 	.word	0x403107ae
    5a94:	9db22d0e 	.word	0x9db22d0e
    5a98:	403107ef 	.word	0x403107ef
    5a9c:	26e978d5 	.word	0x26e978d5
    5aa0:	40310831 	.word	0x40310831
    5aa4:	b020c49c 	.word	0xb020c49c
    5aa8:	40310872 	.word	0x40310872
    5aac:	39581062 	.word	0x39581062
    5ab0:	403108b4 	.word	0x403108b4
    5ab4:	c28f5c29 	.word	0xc28f5c29
    5ab8:	403108f5 	.word	0x403108f5
    5abc:	4bc6a7f0 	.word	0x4bc6a7f0
    5ac0:	40310937 	.word	0x40310937
    5ac4:	d4fdf3b6 	.word	0xd4fdf3b6
    5ac8:	40310978 	.word	0x40310978
    5acc:	5e353f7d 	.word	0x5e353f7d
    5ad0:	403109ba 	.word	0x403109ba
    5ad4:	e76c8b44 	.word	0xe76c8b44
    5ad8:	403109fb 	.word	0x403109fb
    5adc:	70a3d70a 	.word	0x70a3d70a
    5ae0:	40310a3d 	.word	0x40310a3d
    5ae4:	f9db22d1 	.word	0xf9db22d1
    5ae8:	40310a7e 	.word	0x40310a7e
    5aec:	83126e98 	.word	0x83126e98
    5af0:	40310ac0 	.word	0x40310ac0
    5af4:	0c49ba5e 	.word	0x0c49ba5e
    5af8:	40310b02 	.word	0x40310b02
    5afc:	95810625 	.word	0x95810625
    5b00:	40310b43 	.word	0x40310b43
    5b04:	1eb851ec 	.word	0x1eb851ec
    5b08:	40310b85 	.word	0x40310b85
    5b0c:	a7ef9db2 	.word	0xa7ef9db2
    5b10:	40310bc6 	.word	0x40310bc6
    5b14:	3126e979 	.word	0x3126e979
    5b18:	40310c08 	.word	0x40310c08
    5b1c:	ba5e353f 	.word	0xba5e353f
    5b20:	40310c49 	.word	0x40310c49
    5b24:	43958106 	.word	0x43958106
    5b28:	40310c8b 	.word	0x40310c8b
    5b2c:	cccccccd 	.word	0xcccccccd
    5b30:	40310ccc 	.word	0x40310ccc
    5b34:	56041893 	.word	0x56041893
    5b38:	40310d0e 	.word	0x40310d0e
    5b3c:	df3b645a 	.word	0xdf3b645a
    5b40:	40310d4f 	.word	0x40310d4f
    5b44:	6872b021 	.word	0x6872b021
    5b48:	40310d91 	.word	0x40310d91
    5b4c:	f1a9fbe7 	.word	0xf1a9fbe7
    5b50:	40310dd2 	.word	0x40310dd2
    5b54:	7ae147ae 	.word	0x7ae147ae
    5b58:	40310e14 	.word	0x40310e14
    5b5c:	04189375 	.word	0x04189375
    5b60:	40310e56 	.word	0x40310e56
    5b64:	8d4fdf3b 	.word	0x8d4fdf3b
    5b68:	40310e97 	.word	0x40310e97
    5b6c:	16872b02 	.word	0x16872b02
    5b70:	40310ed9 	.word	0x40310ed9
    5b74:	9fbe76c9 	.word	0x9fbe76c9
    5b78:	40310f1a 	.word	0x40310f1a
    5b7c:	28f5c28f 	.word	0x28f5c28f
    5b80:	40310f5c 	.word	0x40310f5c
    5b84:	b22d0e56 	.word	0xb22d0e56
    5b88:	40310f9d 	.word	0x40310f9d
    5b8c:	3b645a1d 	.word	0x3b645a1d
    5b90:	40310fdf 	.word	0x40310fdf
    5b94:	c49ba5e3 	.word	0xc49ba5e3
    5b98:	40311020 	.word	0x40311020
    5b9c:	4dd2f1aa 	.word	0x4dd2f1aa
    5ba0:	40311062 	.word	0x40311062
    5ba4:	d70a3d71 	.word	0xd70a3d71
    5ba8:	403110a3 	.word	0x403110a3
    5bac:	60418937 	.word	0x60418937
    5bb0:	403110e5 	.word	0x403110e5
    5bb4:	e978d4fe 	.word	0xe978d4fe
    5bb8:	40311126 	.word	0x40311126
    5bbc:	72b020c5 	.word	0x72b020c5
    5bc0:	40311168 	.word	0x40311168
    5bc4:	fbe76c8b 	.word	0xfbe76c8b
    5bc8:	403111a9 	.word	0x403111a9
    5bcc:	851eb852 	.word	0x851eb852
    5bd0:	403111eb 	.word	0x403111eb
    5bd4:	0e560419 	.word	0x0e560419
    5bd8:	4031122d 	.word	0x4031122d
    5bdc:	978d4fdf 	.word	0x978d4fdf
    5be0:	4031126e 	.word	0x4031126e
    5be4:	20c49ba6 	.word	0x20c49ba6
    5be8:	403112b0 	.word	0x403112b0
    5bec:	a9fbe76d 	.word	0xa9fbe76d
    5bf0:	403112f1 	.word	0x403112f1
    5bf4:	33333333 	.word	0x33333333
    5bf8:	40311333 	.word	0x40311333
    5bfc:	bc6a7efa 	.word	0xbc6a7efa
    5c00:	40311374 	.word	0x40311374
    5c04:	45a1cac1 	.word	0x45a1cac1
    5c08:	403113b6 	.word	0x403113b6
    5c0c:	ced91687 	.word	0xced91687
    5c10:	403113f7 	.word	0x403113f7
    5c14:	5810624e 	.word	0x5810624e
    5c18:	40311439 	.word	0x40311439
    5c1c:	e147ae14 	.word	0xe147ae14
    5c20:	4031147a 	.word	0x4031147a
    5c24:	6a7ef9db 	.word	0x6a7ef9db
    5c28:	403114bc 	.word	0x403114bc
    5c2c:	f3b645a2 	.word	0xf3b645a2
    5c30:	403114fd 	.word	0x403114fd
    5c34:	7ced9168 	.word	0x7ced9168
    5c38:	4031153f 	.word	0x4031153f
    5c3c:	0624dd2f 	.word	0x0624dd2f
    5c40:	40311581 	.word	0x40311581
    5c44:	8f5c28f6 	.word	0x8f5c28f6
    5c48:	403115c2 	.word	0x403115c2
    5c4c:	189374bc 	.word	0x189374bc
    5c50:	40311604 	.word	0x40311604
    5c54:	a1cac083 	.word	0xa1cac083
    5c58:	40311645 	.word	0x40311645
    5c5c:	2b020c4a 	.word	0x2b020c4a
    5c60:	40311687 	.word	0x40311687
    5c64:	b4395810 	.word	0xb4395810
    5c68:	403116c8 	.word	0x403116c8
    5c6c:	3d70a3d7 	.word	0x3d70a3d7
    5c70:	4031170a 	.word	0x4031170a
    5c74:	c6a7ef9e 	.word	0xc6a7ef9e
    5c78:	4031174b 	.word	0x4031174b
    5c7c:	4fdf3b64 	.word	0x4fdf3b64
    5c80:	4031178d 	.word	0x4031178d
    5c84:	d916872b 	.word	0xd916872b
    5c88:	403117ce 	.word	0x403117ce
    5c8c:	624dd2f2 	.word	0x624dd2f2
    5c90:	40311810 	.word	0x40311810
    5c94:	eb851eb8 	.word	0xeb851eb8
    5c98:	40311851 	.word	0x40311851
    5c9c:	74bc6a7f 	.word	0x74bc6a7f
    5ca0:	40311893 	.word	0x40311893
    5ca4:	fdf3b646 	.word	0xfdf3b646
    5ca8:	403118d4 	.word	0x403118d4
    5cac:	872b020c 	.word	0x872b020c
    5cb0:	40311916 	.word	0x40311916
    5cb4:	10624dd3 	.word	0x10624dd3
    5cb8:	40311958 	.word	0x40311958
    5cbc:	9999999a 	.word	0x9999999a
    5cc0:	40311999 	.word	0x40311999
    5cc4:	22d0e560 	.word	0x22d0e560
    5cc8:	403119db 	.word	0x403119db
    5ccc:	ac083127 	.word	0xac083127
    5cd0:	40311a1c 	.word	0x40311a1c
    5cd4:	353f7cee 	.word	0x353f7cee
    5cd8:	40311a5e 	.word	0x40311a5e
    5cdc:	be76c8b4 	.word	0xbe76c8b4
    5ce0:	40311a9f 	.word	0x40311a9f
    5ce4:	47ae147b 	.word	0x47ae147b
    5ce8:	40311ae1 	.word	0x40311ae1
    5cec:	d0e56042 	.word	0xd0e56042
    5cf0:	40311b22 	.word	0x40311b22
    5cf4:	5a1cac08 	.word	0x5a1cac08
    5cf8:	40311b64 	.word	0x40311b64
    5cfc:	e353f7cf 	.word	0xe353f7cf
    5d00:	40311ba5 	.word	0x40311ba5
    5d04:	6c8b4396 	.word	0x6c8b4396
    5d08:	40311be7 	.word	0x40311be7
    5d0c:	f5c28f5c 	.word	0xf5c28f5c
    5d10:	40311c28 	.word	0x40311c28
    5d14:	7ef9db23 	.word	0x7ef9db23
    5d18:	40311c6a 	.word	0x40311c6a
    5d1c:	083126e9 	.word	0x083126e9
    5d20:	40311cac 	.word	0x40311cac
    5d24:	916872b0 	.word	0x916872b0
    5d28:	40311ced 	.word	0x40311ced
    5d2c:	1a9fbe77 	.word	0x1a9fbe77
    5d30:	40311d2f 	.word	0x40311d2f
    5d34:	a3d70a3d 	.word	0xa3d70a3d
    5d38:	40311d70 	.word	0x40311d70
    5d3c:	2d0e5604 	.word	0x2d0e5604
    5d40:	40311db2 	.word	0x40311db2
    5d44:	b645a1cb 	.word	0xb645a1cb
    5d48:	40311df3 	.word	0x40311df3
    5d4c:	3f7ced91 	.word	0x3f7ced91
    5d50:	40311e35 	.word	0x40311e35
    5d54:	c8b43958 	.word	0xc8b43958
    5d58:	40311e76 	.word	0x40311e76
    5d5c:	51eb851f 	.word	0x51eb851f
    5d60:	40311eb8 	.word	0x40311eb8
    5d64:	db22d0e5 	.word	0xdb22d0e5
    5d68:	40311ef9 	.word	0x40311ef9
    5d6c:	645a1cac 	.word	0x645a1cac
    5d70:	40311f3b 	.word	0x40311f3b
    5d74:	ed916873 	.word	0xed916873
    5d78:	40311f7c 	.word	0x40311f7c
    5d7c:	76c8b439 	.word	0x76c8b439
    5d80:	40311fbe 	.word	0x40311fbe
    5d84:	00000000 	.word	0x00000000
    5d88:	40312000 	.word	0x40312000
    5d8c:	89374bc7 	.word	0x89374bc7
    5d90:	40312041 	.word	0x40312041
    5d94:	126e978d 	.word	0x126e978d
    5d98:	40312083 	.word	0x40312083
    5d9c:	9ba5e354 	.word	0x9ba5e354
    5da0:	403120c4 	.word	0x403120c4
    5da4:	89374bc7 	.word	0x89374bc7
    5da8:	40320041 	.word	0x40320041
    5dac:	126e978d 	.word	0x126e978d
    5db0:	40320083 	.word	0x40320083
    5db4:	9ba5e354 	.word	0x9ba5e354
    5db8:	403200c4 	.word	0x403200c4
    5dbc:	24dd2f1b 	.word	0x24dd2f1b
    5dc0:	40320106 	.word	0x40320106
    5dc4:	ae147ae1 	.word	0xae147ae1
    5dc8:	40320147 	.word	0x40320147
    5dcc:	374bc6a8 	.word	0x374bc6a8
    5dd0:	40320189 	.word	0x40320189
    5dd4:	c083126f 	.word	0xc083126f
    5dd8:	403201ca 	.word	0x403201ca
    5ddc:	49ba5e35 	.word	0x49ba5e35
    5de0:	4032020c 	.word	0x4032020c
    5de4:	d2f1a9fc 	.word	0xd2f1a9fc
    5de8:	4032024d 	.word	0x4032024d
    5dec:	5c28f5c3 	.word	0x5c28f5c3
    5df0:	4032028f 	.word	0x4032028f
    5df4:	e5604189 	.word	0xe5604189
    5df8:	403202d0 	.word	0x403202d0
    5dfc:	6e978d50 	.word	0x6e978d50
    5e00:	40320312 	.word	0x40320312
    5e04:	f7ced917 	.word	0xf7ced917
    5e08:	40320353 	.word	0x40320353
    5e0c:	810624dd 	.word	0x810624dd
    5e10:	40320395 	.word	0x40320395
    5e14:	0a3d70a4 	.word	0x0a3d70a4
    5e18:	403203d7 	.word	0x403203d7
    5e1c:	9374bc6a 	.word	0x9374bc6a
    5e20:	40320418 	.word	0x40320418
    5e24:	1cac0831 	.word	0x1cac0831
    5e28:	4032045a 	.word	0x4032045a
    5e2c:	a5e353f8 	.word	0xa5e353f8
    5e30:	4032049b 	.word	0x4032049b
    5e34:	2f1a9fbe 	.word	0x2f1a9fbe
    5e38:	403204dd 	.word	0x403204dd
    5e3c:	b851eb85 	.word	0xb851eb85
    5e40:	4032051e 	.word	0x4032051e
    5e44:	4189374c 	.word	0x4189374c
    5e48:	40320560 	.word	0x40320560
    5e4c:	cac08312 	.word	0xcac08312
    5e50:	403205a1 	.word	0x403205a1
    5e54:	53f7ced9 	.word	0x53f7ced9
    5e58:	403205e3 	.word	0x403205e3
    5e5c:	dd2f1aa0 	.word	0xdd2f1aa0
    5e60:	40320624 	.word	0x40320624
    5e64:	66666666 	.word	0x66666666
    5e68:	40320666 	.word	0x40320666
    5e6c:	ef9db22d 	.word	0xef9db22d
    5e70:	403206a7 	.word	0x403206a7
    5e74:	78d4fdf4 	.word	0x78d4fdf4
    5e78:	403206e9 	.word	0x403206e9
    5e7c:	020c49ba 	.word	0x020c49ba
    5e80:	4032072b 	.word	0x4032072b
    5e84:	8b439581 	.word	0x8b439581
    5e88:	4032076c 	.word	0x4032076c
    5e8c:	147ae148 	.word	0x147ae148
    5e90:	403207ae 	.word	0x403207ae
    5e94:	9db22d0e 	.word	0x9db22d0e
    5e98:	403207ef 	.word	0x403207ef
    5e9c:	26e978d5 	.word	0x26e978d5
    5ea0:	40320831 	.word	0x40320831
    5ea4:	b020c49c 	.word	0xb020c49c
    5ea8:	40320872 	.word	0x40320872
    5eac:	39581062 	.word	0x39581062
    5eb0:	403208b4 	.word	0x403208b4
    5eb4:	c28f5c29 	.word	0xc28f5c29
    5eb8:	403208f5 	.word	0x403208f5
    5ebc:	4bc6a7f0 	.word	0x4bc6a7f0
    5ec0:	40320937 	.word	0x40320937
    5ec4:	d4fdf3b6 	.word	0xd4fdf3b6
    5ec8:	40320978 	.word	0x40320978
    5ecc:	5e353f7d 	.word	0x5e353f7d
    5ed0:	403209ba 	.word	0x403209ba
    5ed4:	e76c8b44 	.word	0xe76c8b44
    5ed8:	403209fb 	.word	0x403209fb
    5edc:	70a3d70a 	.word	0x70a3d70a
    5ee0:	40320a3d 	.word	0x40320a3d
    5ee4:	f9db22d1 	.word	0xf9db22d1
    5ee8:	40320a7e 	.word	0x40320a7e
    5eec:	83126e98 	.word	0x83126e98
    5ef0:	40320ac0 	.word	0x40320ac0
    5ef4:	0c49ba5e 	.word	0x0c49ba5e
    5ef8:	40320b02 	.word	0x40320b02
    5efc:	95810625 	.word	0x95810625
    5f00:	40320b43 	.word	0x40320b43
    5f04:	1eb851ec 	.word	0x1eb851ec
    5f08:	40320b85 	.word	0x40320b85
    5f0c:	a7ef9db2 	.word	0xa7ef9db2
    5f10:	40320bc6 	.word	0x40320bc6
    5f14:	3126e979 	.word	0x3126e979
    5f18:	40320c08 	.word	0x40320c08
    5f1c:	ba5e353f 	.word	0xba5e353f
    5f20:	40320c49 	.word	0x40320c49
    5f24:	43958106 	.word	0x43958106
    5f28:	40320c8b 	.word	0x40320c8b
    5f2c:	cccccccd 	.word	0xcccccccd
    5f30:	40320ccc 	.word	0x40320ccc
    5f34:	56041893 	.word	0x56041893
    5f38:	40320d0e 	.word	0x40320d0e
    5f3c:	df3b645a 	.word	0xdf3b645a
    5f40:	40320d4f 	.word	0x40320d4f
    5f44:	6872b021 	.word	0x6872b021
    5f48:	40320d91 	.word	0x40320d91
    5f4c:	f1a9fbe7 	.word	0xf1a9fbe7
    5f50:	40320dd2 	.word	0x40320dd2
    5f54:	7ae147ae 	.word	0x7ae147ae
    5f58:	40320e14 	.word	0x40320e14
    5f5c:	04189375 	.word	0x04189375
    5f60:	40320e56 	.word	0x40320e56
    5f64:	8d4fdf3b 	.word	0x8d4fdf3b
    5f68:	40320e97 	.word	0x40320e97
    5f6c:	16872b02 	.word	0x16872b02
    5f70:	40320ed9 	.word	0x40320ed9
    5f74:	9fbe76c9 	.word	0x9fbe76c9
    5f78:	40320f1a 	.word	0x40320f1a
    5f7c:	28f5c28f 	.word	0x28f5c28f
    5f80:	40320f5c 	.word	0x40320f5c
    5f84:	b22d0e56 	.word	0xb22d0e56
    5f88:	40320f9d 	.word	0x40320f9d
    5f8c:	3b645a1d 	.word	0x3b645a1d
    5f90:	40320fdf 	.word	0x40320fdf
    5f94:	c49ba5e3 	.word	0xc49ba5e3
    5f98:	40321020 	.word	0x40321020
    5f9c:	4dd2f1aa 	.word	0x4dd2f1aa
    5fa0:	40321062 	.word	0x40321062
    5fa4:	d70a3d71 	.word	0xd70a3d71
    5fa8:	403210a3 	.word	0x403210a3
    5fac:	60418937 	.word	0x60418937
    5fb0:	403210e5 	.word	0x403210e5
    5fb4:	e978d4fe 	.word	0xe978d4fe
    5fb8:	40321126 	.word	0x40321126
    5fbc:	72b020c5 	.word	0x72b020c5
    5fc0:	40321168 	.word	0x40321168
    5fc4:	fbe76c8b 	.word	0xfbe76c8b
    5fc8:	403211a9 	.word	0x403211a9
    5fcc:	851eb852 	.word	0x851eb852
    5fd0:	403211eb 	.word	0x403211eb
    5fd4:	0e560419 	.word	0x0e560419
    5fd8:	4032122d 	.word	0x4032122d
    5fdc:	978d4fdf 	.word	0x978d4fdf
    5fe0:	4032126e 	.word	0x4032126e
    5fe4:	20c49ba6 	.word	0x20c49ba6
    5fe8:	403212b0 	.word	0x403212b0
    5fec:	a9fbe76d 	.word	0xa9fbe76d
    5ff0:	403212f1 	.word	0x403212f1
    5ff4:	33333333 	.word	0x33333333
    5ff8:	40321333 	.word	0x40321333
    5ffc:	bc6a7efa 	.word	0xbc6a7efa
    6000:	40321374 	.word	0x40321374
    6004:	45a1cac1 	.word	0x45a1cac1
    6008:	403213b6 	.word	0x403213b6
    600c:	ced91687 	.word	0xced91687
    6010:	403213f7 	.word	0x403213f7
    6014:	5810624e 	.word	0x5810624e
    6018:	40321439 	.word	0x40321439
    601c:	e147ae14 	.word	0xe147ae14
    6020:	4032147a 	.word	0x4032147a
    6024:	6a7ef9db 	.word	0x6a7ef9db
    6028:	403214bc 	.word	0x403214bc
    602c:	f3b645a2 	.word	0xf3b645a2
    6030:	403214fd 	.word	0x403214fd
    6034:	7ced9168 	.word	0x7ced9168
    6038:	4032153f 	.word	0x4032153f
    603c:	0624dd2f 	.word	0x0624dd2f
    6040:	40321581 	.word	0x40321581
    6044:	8f5c28f6 	.word	0x8f5c28f6
    6048:	403215c2 	.word	0x403215c2
    604c:	189374bc 	.word	0x189374bc
    6050:	40321604 	.word	0x40321604
    6054:	a1cac083 	.word	0xa1cac083
    6058:	40321645 	.word	0x40321645
    605c:	2b020c4a 	.word	0x2b020c4a
    6060:	40321687 	.word	0x40321687
    6064:	b4395810 	.word	0xb4395810
    6068:	403216c8 	.word	0x403216c8
    606c:	3d70a3d7 	.word	0x3d70a3d7
    6070:	4032170a 	.word	0x4032170a
    6074:	c6a7ef9e 	.word	0xc6a7ef9e
    6078:	4032174b 	.word	0x4032174b
    607c:	4fdf3b64 	.word	0x4fdf3b64
    6080:	4032178d 	.word	0x4032178d
    6084:	d916872b 	.word	0xd916872b
    6088:	403217ce 	.word	0x403217ce
    608c:	624dd2f2 	.word	0x624dd2f2
    6090:	40321810 	.word	0x40321810
    6094:	eb851eb8 	.word	0xeb851eb8
    6098:	40321851 	.word	0x40321851
    609c:	74bc6a7f 	.word	0x74bc6a7f
    60a0:	40321893 	.word	0x40321893
    60a4:	fdf3b646 	.word	0xfdf3b646
    60a8:	403218d4 	.word	0x403218d4
    60ac:	872b020c 	.word	0x872b020c
    60b0:	40321916 	.word	0x40321916
    60b4:	10624dd3 	.word	0x10624dd3
    60b8:	40321958 	.word	0x40321958
    60bc:	9999999a 	.word	0x9999999a
    60c0:	40321999 	.word	0x40321999
    60c4:	22d0e560 	.word	0x22d0e560
    60c8:	403219db 	.word	0x403219db
    60cc:	ac083127 	.word	0xac083127
    60d0:	40321a1c 	.word	0x40321a1c
    60d4:	353f7cee 	.word	0x353f7cee
    60d8:	40321a5e 	.word	0x40321a5e
    60dc:	be76c8b4 	.word	0xbe76c8b4
    60e0:	40321a9f 	.word	0x40321a9f
    60e4:	47ae147b 	.word	0x47ae147b
    60e8:	40321ae1 	.word	0x40321ae1
    60ec:	d0e56042 	.word	0xd0e56042
    60f0:	40321b22 	.word	0x40321b22
    60f4:	5a1cac08 	.word	0x5a1cac08
    60f8:	40321b64 	.word	0x40321b64
    60fc:	e353f7cf 	.word	0xe353f7cf
    6100:	40321ba5 	.word	0x40321ba5
    6104:	6c8b4396 	.word	0x6c8b4396
    6108:	40321be7 	.word	0x40321be7
    610c:	f5c28f5c 	.word	0xf5c28f5c
    6110:	40321c28 	.word	0x40321c28
    6114:	7ef9db23 	.word	0x7ef9db23
    6118:	40321c6a 	.word	0x40321c6a
    611c:	083126e9 	.word	0x083126e9
    6120:	40321cac 	.word	0x40321cac
    6124:	916872b0 	.word	0x916872b0
    6128:	40321ced 	.word	0x40321ced
    612c:	1a9fbe77 	.word	0x1a9fbe77
    6130:	40321d2f 	.word	0x40321d2f
    6134:	a3d70a3d 	.word	0xa3d70a3d
    6138:	40321d70 	.word	0x40321d70
    613c:	2d0e5604 	.word	0x2d0e5604
    6140:	40321db2 	.word	0x40321db2
    6144:	b645a1cb 	.word	0xb645a1cb
    6148:	40321df3 	.word	0x40321df3
    614c:	3f7ced91 	.word	0x3f7ced91
    6150:	40321e35 	.word	0x40321e35
    6154:	c8b43958 	.word	0xc8b43958
    6158:	40321e76 	.word	0x40321e76
    615c:	51eb851f 	.word	0x51eb851f
    6160:	40321eb8 	.word	0x40321eb8
    6164:	db22d0e5 	.word	0xdb22d0e5
    6168:	40321ef9 	.word	0x40321ef9
    616c:	645a1cac 	.word	0x645a1cac
    6170:	40321f3b 	.word	0x40321f3b
    6174:	ed916873 	.word	0xed916873
    6178:	40321f7c 	.word	0x40321f7c
    617c:	76c8b439 	.word	0x76c8b439
    6180:	40321fbe 	.word	0x40321fbe
    6184:	00000000 	.word	0x00000000
    6188:	40322000 	.word	0x40322000
    618c:	89374bc7 	.word	0x89374bc7
    6190:	40322041 	.word	0x40322041
    6194:	126e978d 	.word	0x126e978d
    6198:	40322083 	.word	0x40322083
    619c:	9ba5e354 	.word	0x9ba5e354
    61a0:	403220c4 	.word	0x403220c4
    61a4:	89374bc7 	.word	0x89374bc7
    61a8:	40330041 	.word	0x40330041
    61ac:	126e978d 	.word	0x126e978d
    61b0:	40330083 	.word	0x40330083
    61b4:	9ba5e354 	.word	0x9ba5e354
    61b8:	403300c4 	.word	0x403300c4
    61bc:	24dd2f1b 	.word	0x24dd2f1b
    61c0:	40330106 	.word	0x40330106
    61c4:	ae147ae1 	.word	0xae147ae1
    61c8:	40330147 	.word	0x40330147
    61cc:	374bc6a8 	.word	0x374bc6a8
    61d0:	40330189 	.word	0x40330189
    61d4:	c083126f 	.word	0xc083126f
    61d8:	403301ca 	.word	0x403301ca
    61dc:	49ba5e35 	.word	0x49ba5e35
    61e0:	4033020c 	.word	0x4033020c
    61e4:	d2f1a9fc 	.word	0xd2f1a9fc
    61e8:	4033024d 	.word	0x4033024d
    61ec:	5c28f5c3 	.word	0x5c28f5c3
    61f0:	4033028f 	.word	0x4033028f
    61f4:	e5604189 	.word	0xe5604189
    61f8:	403302d0 	.word	0x403302d0
    61fc:	6e978d50 	.word	0x6e978d50
    6200:	40330312 	.word	0x40330312
    6204:	f7ced917 	.word	0xf7ced917
    6208:	40330353 	.word	0x40330353
    620c:	810624dd 	.word	0x810624dd
    6210:	40330395 	.word	0x40330395
    6214:	0a3d70a4 	.word	0x0a3d70a4
    6218:	403303d7 	.word	0x403303d7
    621c:	9374bc6a 	.word	0x9374bc6a
    6220:	40330418 	.word	0x40330418
    6224:	1cac0831 	.word	0x1cac0831
    6228:	4033045a 	.word	0x4033045a
    622c:	a5e353f8 	.word	0xa5e353f8
    6230:	4033049b 	.word	0x4033049b
    6234:	2f1a9fbe 	.word	0x2f1a9fbe
    6238:	403304dd 	.word	0x403304dd
    623c:	b851eb85 	.word	0xb851eb85
    6240:	4033051e 	.word	0x4033051e
    6244:	4189374c 	.word	0x4189374c
    6248:	40330560 	.word	0x40330560
    624c:	cac08312 	.word	0xcac08312
    6250:	403305a1 	.word	0x403305a1
    6254:	53f7ced9 	.word	0x53f7ced9
    6258:	403305e3 	.word	0x403305e3
    625c:	dd2f1aa0 	.word	0xdd2f1aa0
    6260:	40330624 	.word	0x40330624
    6264:	66666666 	.word	0x66666666
    6268:	40330666 	.word	0x40330666
    626c:	ef9db22d 	.word	0xef9db22d
    6270:	403306a7 	.word	0x403306a7
    6274:	78d4fdf4 	.word	0x78d4fdf4
    6278:	403306e9 	.word	0x403306e9
    627c:	020c49ba 	.word	0x020c49ba
    6280:	4033072b 	.word	0x4033072b
    6284:	8b439581 	.word	0x8b439581
    6288:	4033076c 	.word	0x4033076c
    628c:	147ae148 	.word	0x147ae148
    6290:	403307ae 	.word	0x403307ae
    6294:	9db22d0e 	.word	0x9db22d0e
    6298:	403307ef 	.word	0x403307ef
    629c:	26e978d5 	.word	0x26e978d5
    62a0:	40330831 	.word	0x40330831
    62a4:	b020c49c 	.word	0xb020c49c
    62a8:	40330872 	.word	0x40330872
    62ac:	39581062 	.word	0x39581062
    62b0:	403308b4 	.word	0x403308b4
    62b4:	c28f5c29 	.word	0xc28f5c29
    62b8:	403308f5 	.word	0x403308f5
    62bc:	4bc6a7f0 	.word	0x4bc6a7f0
    62c0:	40330937 	.word	0x40330937
    62c4:	d4fdf3b6 	.word	0xd4fdf3b6
    62c8:	40330978 	.word	0x40330978
    62cc:	5e353f7d 	.word	0x5e353f7d
    62d0:	403309ba 	.word	0x403309ba
    62d4:	e76c8b44 	.word	0xe76c8b44
    62d8:	403309fb 	.word	0x403309fb
    62dc:	70a3d70a 	.word	0x70a3d70a
    62e0:	40330a3d 	.word	0x40330a3d
    62e4:	f9db22d1 	.word	0xf9db22d1
    62e8:	40330a7e 	.word	0x40330a7e
    62ec:	83126e98 	.word	0x83126e98
    62f0:	40330ac0 	.word	0x40330ac0
    62f4:	0c49ba5e 	.word	0x0c49ba5e
    62f8:	40330b02 	.word	0x40330b02
    62fc:	95810625 	.word	0x95810625
    6300:	40330b43 	.word	0x40330b43
    6304:	1eb851ec 	.word	0x1eb851ec
    6308:	40330b85 	.word	0x40330b85
    630c:	a7ef9db2 	.word	0xa7ef9db2
    6310:	40330bc6 	.word	0x40330bc6
    6314:	3126e979 	.word	0x3126e979
    6318:	40330c08 	.word	0x40330c08
    631c:	ba5e353f 	.word	0xba5e353f
    6320:	40330c49 	.word	0x40330c49
    6324:	43958106 	.word	0x43958106
    6328:	40330c8b 	.word	0x40330c8b
    632c:	cccccccd 	.word	0xcccccccd
    6330:	40330ccc 	.word	0x40330ccc
    6334:	56041893 	.word	0x56041893
    6338:	40330d0e 	.word	0x40330d0e
    633c:	df3b645a 	.word	0xdf3b645a
    6340:	40330d4f 	.word	0x40330d4f
    6344:	6872b021 	.word	0x6872b021
    6348:	40330d91 	.word	0x40330d91
    634c:	f1a9fbe7 	.word	0xf1a9fbe7
    6350:	40330dd2 	.word	0x40330dd2
    6354:	7ae147ae 	.word	0x7ae147ae
    6358:	40330e14 	.word	0x40330e14
    635c:	04189375 	.word	0x04189375
    6360:	40330e56 	.word	0x40330e56
    6364:	8d4fdf3b 	.word	0x8d4fdf3b
    6368:	40330e97 	.word	0x40330e97
    636c:	16872b02 	.word	0x16872b02
    6370:	40330ed9 	.word	0x40330ed9
    6374:	9fbe76c9 	.word	0x9fbe76c9
    6378:	40330f1a 	.word	0x40330f1a
    637c:	28f5c28f 	.word	0x28f5c28f
    6380:	40330f5c 	.word	0x40330f5c
    6384:	b22d0e56 	.word	0xb22d0e56
    6388:	40330f9d 	.word	0x40330f9d
    638c:	3b645a1d 	.word	0x3b645a1d
    6390:	40330fdf 	.word	0x40330fdf
    6394:	c49ba5e3 	.word	0xc49ba5e3
    6398:	40331020 	.word	0x40331020
    639c:	4dd2f1aa 	.word	0x4dd2f1aa
    63a0:	40331062 	.word	0x40331062
    63a4:	d70a3d71 	.word	0xd70a3d71
    63a8:	403310a3 	.word	0x403310a3
    63ac:	60418937 	.word	0x60418937
    63b0:	403310e5 	.word	0x403310e5
    63b4:	e978d4fe 	.word	0xe978d4fe
    63b8:	40331126 	.word	0x40331126
    63bc:	72b020c5 	.word	0x72b020c5
    63c0:	40331168 	.word	0x40331168
    63c4:	fbe76c8b 	.word	0xfbe76c8b
    63c8:	403311a9 	.word	0x403311a9
    63cc:	851eb852 	.word	0x851eb852
    63d0:	403311eb 	.word	0x403311eb
    63d4:	0e560419 	.word	0x0e560419
    63d8:	4033122d 	.word	0x4033122d
    63dc:	978d4fdf 	.word	0x978d4fdf
    63e0:	4033126e 	.word	0x4033126e
    63e4:	20c49ba6 	.word	0x20c49ba6
    63e8:	403312b0 	.word	0x403312b0
    63ec:	a9fbe76d 	.word	0xa9fbe76d
    63f0:	403312f1 	.word	0x403312f1
    63f4:	33333333 	.word	0x33333333
    63f8:	40331333 	.word	0x40331333
    63fc:	bc6a7efa 	.word	0xbc6a7efa
    6400:	40331374 	.word	0x40331374
    6404:	45a1cac1 	.word	0x45a1cac1
    6408:	403313b6 	.word	0x403313b6
    640c:	ced91687 	.word	0xced91687
    6410:	403313f7 	.word	0x403313f7
    6414:	5810624e 	.word	0x5810624e
    6418:	40331439 	.word	0x40331439
    641c:	e147ae14 	.word	0xe147ae14
    6420:	4033147a 	.word	0x4033147a
    6424:	6a7ef9db 	.word	0x6a7ef9db
    6428:	403314bc 	.word	0x403314bc
    642c:	f3b645a2 	.word	0xf3b645a2
    6430:	403314fd 	.word	0x403314fd
    6434:	7ced9168 	.word	0x7ced9168
    6438:	4033153f 	.word	0x4033153f
    643c:	0624dd2f 	.word	0x0624dd2f
    6440:	40331581 	.word	0x40331581
    6444:	8f5c28f6 	.word	0x8f5c28f6
    6448:	403315c2 	.word	0x403315c2
    644c:	189374bc 	.word	0x189374bc
    6450:	40331604 	.word	0x40331604
    6454:	a1cac083 	.word	0xa1cac083
    6458:	40331645 	.word	0x40331645
    645c:	2b020c4a 	.word	0x2b020c4a
    6460:	40331687 	.word	0x40331687
    6464:	b4395810 	.word	0xb4395810
    6468:	403316c8 	.word	0x403316c8
    646c:	3d70a3d7 	.word	0x3d70a3d7
    6470:	4033170a 	.word	0x4033170a
    6474:	c6a7ef9e 	.word	0xc6a7ef9e
    6478:	4033174b 	.word	0x4033174b
    647c:	4fdf3b64 	.word	0x4fdf3b64
    6480:	4033178d 	.word	0x4033178d
    6484:	d916872b 	.word	0xd916872b
    6488:	403317ce 	.word	0x403317ce
    648c:	624dd2f2 	.word	0x624dd2f2
    6490:	40331810 	.word	0x40331810
    6494:	eb851eb8 	.word	0xeb851eb8
    6498:	40331851 	.word	0x40331851
    649c:	74bc6a7f 	.word	0x74bc6a7f
    64a0:	40331893 	.word	0x40331893
    64a4:	fdf3b646 	.word	0xfdf3b646
    64a8:	403318d4 	.word	0x403318d4
    64ac:	872b020c 	.word	0x872b020c
    64b0:	40331916 	.word	0x40331916
    64b4:	10624dd3 	.word	0x10624dd3
    64b8:	40331958 	.word	0x40331958
    64bc:	9999999a 	.word	0x9999999a
    64c0:	40331999 	.word	0x40331999
    64c4:	22d0e560 	.word	0x22d0e560
    64c8:	403319db 	.word	0x403319db
    64cc:	ac083127 	.word	0xac083127
    64d0:	40331a1c 	.word	0x40331a1c
    64d4:	353f7cee 	.word	0x353f7cee
    64d8:	40331a5e 	.word	0x40331a5e
    64dc:	be76c8b4 	.word	0xbe76c8b4
    64e0:	40331a9f 	.word	0x40331a9f
    64e4:	47ae147b 	.word	0x47ae147b
    64e8:	40331ae1 	.word	0x40331ae1
    64ec:	d0e56042 	.word	0xd0e56042
    64f0:	40331b22 	.word	0x40331b22
    64f4:	5a1cac08 	.word	0x5a1cac08
    64f8:	40331b64 	.word	0x40331b64
    64fc:	e353f7cf 	.word	0xe353f7cf
    6500:	40331ba5 	.word	0x40331ba5
    6504:	6c8b4396 	.word	0x6c8b4396
    6508:	40331be7 	.word	0x40331be7
    650c:	f5c28f5c 	.word	0xf5c28f5c
    6510:	40331c28 	.word	0x40331c28
    6514:	7ef9db23 	.word	0x7ef9db23
    6518:	40331c6a 	.word	0x40331c6a
    651c:	083126e9 	.word	0x083126e9
    6520:	40331cac 	.word	0x40331cac
    6524:	916872b0 	.word	0x916872b0
    6528:	40331ced 	.word	0x40331ced
    652c:	1a9fbe77 	.word	0x1a9fbe77
    6530:	40331d2f 	.word	0x40331d2f
    6534:	a3d70a3d 	.word	0xa3d70a3d
    6538:	40331d70 	.word	0x40331d70
    653c:	2d0e5604 	.word	0x2d0e5604
    6540:	40331db2 	.word	0x40331db2
    6544:	b645a1cb 	.word	0xb645a1cb
    6548:	40331df3 	.word	0x40331df3
    654c:	3f7ced91 	.word	0x3f7ced91
    6550:	40331e35 	.word	0x40331e35
    6554:	c8b43958 	.word	0xc8b43958
    6558:	40331e76 	.word	0x40331e76
    655c:	51eb851f 	.word	0x51eb851f
    6560:	40331eb8 	.word	0x40331eb8
    6564:	db22d0e5 	.word	0xdb22d0e5
    6568:	40331ef9 	.word	0x40331ef9
    656c:	645a1cac 	.word	0x645a1cac
    6570:	40331f3b 	.word	0x40331f3b
    6574:	ed916873 	.word	0xed916873
    6578:	40331f7c 	.word	0x40331f7c
    657c:	76c8b439 	.word	0x76c8b439
    6580:	40331fbe 	.word	0x40331fbe
    6584:	00000000 	.word	0x00000000
    6588:	40332000 	.word	0x40332000
    658c:	89374bc7 	.word	0x89374bc7
    6590:	40332041 	.word	0x40332041
    6594:	126e978d 	.word	0x126e978d
    6598:	40332083 	.word	0x40332083
    659c:	9ba5e354 	.word	0x9ba5e354
    65a0:	403320c4 	.word	0x403320c4
    65a4:	89374bc7 	.word	0x89374bc7
    65a8:	40340041 	.word	0x40340041
    65ac:	126e978d 	.word	0x126e978d
    65b0:	40340083 	.word	0x40340083
    65b4:	9ba5e354 	.word	0x9ba5e354
    65b8:	403400c4 	.word	0x403400c4
    65bc:	24dd2f1b 	.word	0x24dd2f1b
    65c0:	40340106 	.word	0x40340106
    65c4:	ae147ae1 	.word	0xae147ae1
    65c8:	40340147 	.word	0x40340147
    65cc:	374bc6a8 	.word	0x374bc6a8
    65d0:	40340189 	.word	0x40340189
    65d4:	c083126f 	.word	0xc083126f
    65d8:	403401ca 	.word	0x403401ca
    65dc:	49ba5e35 	.word	0x49ba5e35
    65e0:	4034020c 	.word	0x4034020c
    65e4:	d2f1a9fc 	.word	0xd2f1a9fc
    65e8:	4034024d 	.word	0x4034024d
    65ec:	5c28f5c3 	.word	0x5c28f5c3
    65f0:	4034028f 	.word	0x4034028f
    65f4:	e5604189 	.word	0xe5604189
    65f8:	403402d0 	.word	0x403402d0
    65fc:	6e978d50 	.word	0x6e978d50
    6600:	40340312 	.word	0x40340312
    6604:	f7ced917 	.word	0xf7ced917
    6608:	40340353 	.word	0x40340353
    660c:	810624dd 	.word	0x810624dd
    6610:	40340395 	.word	0x40340395
    6614:	0a3d70a4 	.word	0x0a3d70a4
    6618:	403403d7 	.word	0x403403d7
    661c:	9374bc6a 	.word	0x9374bc6a
    6620:	40340418 	.word	0x40340418
    6624:	1cac0831 	.word	0x1cac0831
    6628:	4034045a 	.word	0x4034045a
    662c:	a5e353f8 	.word	0xa5e353f8
    6630:	4034049b 	.word	0x4034049b
    6634:	2f1a9fbe 	.word	0x2f1a9fbe
    6638:	403404dd 	.word	0x403404dd
    663c:	b851eb85 	.word	0xb851eb85
    6640:	4034051e 	.word	0x4034051e
    6644:	4189374c 	.word	0x4189374c
    6648:	40340560 	.word	0x40340560
    664c:	cac08312 	.word	0xcac08312
    6650:	403405a1 	.word	0x403405a1
    6654:	53f7ced9 	.word	0x53f7ced9
    6658:	403405e3 	.word	0x403405e3
    665c:	dd2f1aa0 	.word	0xdd2f1aa0
    6660:	40340624 	.word	0x40340624
    6664:	66666666 	.word	0x66666666
    6668:	40340666 	.word	0x40340666
    666c:	ef9db22d 	.word	0xef9db22d
    6670:	403406a7 	.word	0x403406a7
    6674:	78d4fdf4 	.word	0x78d4fdf4
    6678:	403406e9 	.word	0x403406e9
    667c:	020c49ba 	.word	0x020c49ba
    6680:	4034072b 	.word	0x4034072b
    6684:	8b439581 	.word	0x8b439581
    6688:	4034076c 	.word	0x4034076c
    668c:	147ae148 	.word	0x147ae148
    6690:	403407ae 	.word	0x403407ae
    6694:	9db22d0e 	.word	0x9db22d0e
    6698:	403407ef 	.word	0x403407ef
    669c:	26e978d5 	.word	0x26e978d5
    66a0:	40340831 	.word	0x40340831
    66a4:	b020c49c 	.word	0xb020c49c
    66a8:	40340872 	.word	0x40340872
    66ac:	39581062 	.word	0x39581062
    66b0:	403408b4 	.word	0x403408b4
    66b4:	c28f5c29 	.word	0xc28f5c29
    66b8:	403408f5 	.word	0x403408f5
    66bc:	4bc6a7f0 	.word	0x4bc6a7f0
    66c0:	40340937 	.word	0x40340937
    66c4:	d4fdf3b6 	.word	0xd4fdf3b6
    66c8:	40340978 	.word	0x40340978
    66cc:	5e353f7d 	.word	0x5e353f7d
    66d0:	403409ba 	.word	0x403409ba
    66d4:	e76c8b44 	.word	0xe76c8b44
    66d8:	403409fb 	.word	0x403409fb
    66dc:	70a3d70a 	.word	0x70a3d70a
    66e0:	40340a3d 	.word	0x40340a3d
    66e4:	f9db22d1 	.word	0xf9db22d1
    66e8:	40340a7e 	.word	0x40340a7e
    66ec:	83126e98 	.word	0x83126e98
    66f0:	40340ac0 	.word	0x40340ac0
    66f4:	0c49ba5e 	.word	0x0c49ba5e
    66f8:	40340b02 	.word	0x40340b02
    66fc:	95810625 	.word	0x95810625
    6700:	40340b43 	.word	0x40340b43
    6704:	1eb851ec 	.word	0x1eb851ec
    6708:	40340b85 	.word	0x40340b85
    670c:	a7ef9db2 	.word	0xa7ef9db2
    6710:	40340bc6 	.word	0x40340bc6
    6714:	3126e979 	.word	0x3126e979
    6718:	40340c08 	.word	0x40340c08
    671c:	ba5e353f 	.word	0xba5e353f
    6720:	40340c49 	.word	0x40340c49
    6724:	43958106 	.word	0x43958106
    6728:	40340c8b 	.word	0x40340c8b
    672c:	cccccccd 	.word	0xcccccccd
    6730:	40340ccc 	.word	0x40340ccc
    6734:	56041893 	.word	0x56041893
    6738:	40340d0e 	.word	0x40340d0e
    673c:	df3b645a 	.word	0xdf3b645a
    6740:	40340d4f 	.word	0x40340d4f
    6744:	6872b021 	.word	0x6872b021
    6748:	40340d91 	.word	0x40340d91
    674c:	f1a9fbe7 	.word	0xf1a9fbe7
    6750:	40340dd2 	.word	0x40340dd2
    6754:	7ae147ae 	.word	0x7ae147ae
    6758:	40340e14 	.word	0x40340e14
    675c:	04189375 	.word	0x04189375
    6760:	40340e56 	.word	0x40340e56
    6764:	8d4fdf3b 	.word	0x8d4fdf3b
    6768:	40340e97 	.word	0x40340e97
    676c:	16872b02 	.word	0x16872b02
    6770:	40340ed9 	.word	0x40340ed9
    6774:	9fbe76c9 	.word	0x9fbe76c9
    6778:	40340f1a 	.word	0x40340f1a
    677c:	28f5c28f 	.word	0x28f5c28f
    6780:	40340f5c 	.word	0x40340f5c
    6784:	b22d0e56 	.word	0xb22d0e56
    6788:	40340f9d 	.word	0x40340f9d
    678c:	3b645a1d 	.word	0x3b645a1d
    6790:	40340fdf 	.word	0x40340fdf
    6794:	c49ba5e3 	.word	0xc49ba5e3
    6798:	40341020 	.word	0x40341020
    679c:	4dd2f1aa 	.word	0x4dd2f1aa
    67a0:	40341062 	.word	0x40341062
    67a4:	d70a3d71 	.word	0xd70a3d71
    67a8:	403410a3 	.word	0x403410a3
    67ac:	60418937 	.word	0x60418937
    67b0:	403410e5 	.word	0x403410e5
    67b4:	e978d4fe 	.word	0xe978d4fe
    67b8:	40341126 	.word	0x40341126
    67bc:	72b020c5 	.word	0x72b020c5
    67c0:	40341168 	.word	0x40341168
    67c4:	fbe76c8b 	.word	0xfbe76c8b
    67c8:	403411a9 	.word	0x403411a9
    67cc:	851eb852 	.word	0x851eb852
    67d0:	403411eb 	.word	0x403411eb
    67d4:	0e560419 	.word	0x0e560419
    67d8:	4034122d 	.word	0x4034122d
    67dc:	978d4fdf 	.word	0x978d4fdf
    67e0:	4034126e 	.word	0x4034126e
    67e4:	20c49ba6 	.word	0x20c49ba6
    67e8:	403412b0 	.word	0x403412b0
    67ec:	a9fbe76d 	.word	0xa9fbe76d
    67f0:	403412f1 	.word	0x403412f1
    67f4:	33333333 	.word	0x33333333
    67f8:	40341333 	.word	0x40341333
    67fc:	bc6a7efa 	.word	0xbc6a7efa
    6800:	40341374 	.word	0x40341374
    6804:	45a1cac1 	.word	0x45a1cac1
    6808:	403413b6 	.word	0x403413b6
    680c:	ced91687 	.word	0xced91687
    6810:	403413f7 	.word	0x403413f7
    6814:	5810624e 	.word	0x5810624e
    6818:	40341439 	.word	0x40341439
    681c:	e147ae14 	.word	0xe147ae14
    6820:	4034147a 	.word	0x4034147a
    6824:	6a7ef9db 	.word	0x6a7ef9db
    6828:	403414bc 	.word	0x403414bc
    682c:	f3b645a2 	.word	0xf3b645a2
    6830:	403414fd 	.word	0x403414fd
    6834:	7ced9168 	.word	0x7ced9168
    6838:	4034153f 	.word	0x4034153f
    683c:	0624dd2f 	.word	0x0624dd2f
    6840:	40341581 	.word	0x40341581
    6844:	8f5c28f6 	.word	0x8f5c28f6
    6848:	403415c2 	.word	0x403415c2
    684c:	189374bc 	.word	0x189374bc
    6850:	40341604 	.word	0x40341604
    6854:	a1cac083 	.word	0xa1cac083
    6858:	40341645 	.word	0x40341645
    685c:	2b020c4a 	.word	0x2b020c4a
    6860:	40341687 	.word	0x40341687
    6864:	b4395810 	.word	0xb4395810
    6868:	403416c8 	.word	0x403416c8
    686c:	3d70a3d7 	.word	0x3d70a3d7
    6870:	4034170a 	.word	0x4034170a
    6874:	c6a7ef9e 	.word	0xc6a7ef9e
    6878:	4034174b 	.word	0x4034174b
    687c:	4fdf3b64 	.word	0x4fdf3b64
    6880:	4034178d 	.word	0x4034178d
    6884:	d916872b 	.word	0xd916872b
    6888:	403417ce 	.word	0x403417ce
    688c:	624dd2f2 	.word	0x624dd2f2
    6890:	40341810 	.word	0x40341810
    6894:	eb851eb8 	.word	0xeb851eb8
    6898:	40341851 	.word	0x40341851
    689c:	74bc6a7f 	.word	0x74bc6a7f
    68a0:	40341893 	.word	0x40341893
    68a4:	fdf3b646 	.word	0xfdf3b646
    68a8:	403418d4 	.word	0x403418d4
    68ac:	872b020c 	.word	0x872b020c
    68b0:	40341916 	.word	0x40341916
    68b4:	10624dd3 	.word	0x10624dd3
    68b8:	40341958 	.word	0x40341958
    68bc:	9999999a 	.word	0x9999999a
    68c0:	40341999 	.word	0x40341999
    68c4:	22d0e560 	.word	0x22d0e560
    68c8:	403419db 	.word	0x403419db
    68cc:	ac083127 	.word	0xac083127
    68d0:	40341a1c 	.word	0x40341a1c
    68d4:	353f7cee 	.word	0x353f7cee
    68d8:	40341a5e 	.word	0x40341a5e
    68dc:	be76c8b4 	.word	0xbe76c8b4
    68e0:	40341a9f 	.word	0x40341a9f
    68e4:	47ae147b 	.word	0x47ae147b
    68e8:	40341ae1 	.word	0x40341ae1
    68ec:	d0e56042 	.word	0xd0e56042
    68f0:	40341b22 	.word	0x40341b22
    68f4:	5a1cac08 	.word	0x5a1cac08
    68f8:	40341b64 	.word	0x40341b64
    68fc:	e353f7cf 	.word	0xe353f7cf
    6900:	40341ba5 	.word	0x40341ba5
    6904:	6c8b4396 	.word	0x6c8b4396
    6908:	40341be7 	.word	0x40341be7
    690c:	f5c28f5c 	.word	0xf5c28f5c
    6910:	40341c28 	.word	0x40341c28
    6914:	7ef9db23 	.word	0x7ef9db23
    6918:	40341c6a 	.word	0x40341c6a
    691c:	083126e9 	.word	0x083126e9
    6920:	40341cac 	.word	0x40341cac
    6924:	916872b0 	.word	0x916872b0
    6928:	40341ced 	.word	0x40341ced
    692c:	1a9fbe77 	.word	0x1a9fbe77
    6930:	40341d2f 	.word	0x40341d2f
    6934:	a3d70a3d 	.word	0xa3d70a3d
    6938:	40341d70 	.word	0x40341d70
    693c:	2d0e5604 	.word	0x2d0e5604
    6940:	40341db2 	.word	0x40341db2
    6944:	b645a1cb 	.word	0xb645a1cb
    6948:	40341df3 	.word	0x40341df3
    694c:	3f7ced91 	.word	0x3f7ced91
    6950:	40341e35 	.word	0x40341e35
    6954:	c8b43958 	.word	0xc8b43958
    6958:	40341e76 	.word	0x40341e76
    695c:	51eb851f 	.word	0x51eb851f
    6960:	40341eb8 	.word	0x40341eb8
    6964:	db22d0e5 	.word	0xdb22d0e5
    6968:	40341ef9 	.word	0x40341ef9
    696c:	645a1cac 	.word	0x645a1cac
    6970:	40341f3b 	.word	0x40341f3b
    6974:	ed916873 	.word	0xed916873
    6978:	40341f7c 	.word	0x40341f7c
    697c:	76c8b439 	.word	0x76c8b439
    6980:	40341fbe 	.word	0x40341fbe
    6984:	00000000 	.word	0x00000000
    6988:	40342000 	.word	0x40342000
    698c:	89374bc7 	.word	0x89374bc7
    6990:	40342041 	.word	0x40342041
    6994:	126e978d 	.word	0x126e978d
    6998:	40342083 	.word	0x40342083
    699c:	9ba5e354 	.word	0x9ba5e354
    69a0:	403420c4 	.word	0x403420c4
    69a4:	89374bc7 	.word	0x89374bc7
    69a8:	40350041 	.word	0x40350041
    69ac:	126e978d 	.word	0x126e978d
    69b0:	40350083 	.word	0x40350083
    69b4:	9ba5e354 	.word	0x9ba5e354
    69b8:	403500c4 	.word	0x403500c4
    69bc:	24dd2f1b 	.word	0x24dd2f1b
    69c0:	40350106 	.word	0x40350106
    69c4:	ae147ae1 	.word	0xae147ae1
    69c8:	40350147 	.word	0x40350147
    69cc:	374bc6a8 	.word	0x374bc6a8
    69d0:	40350189 	.word	0x40350189
    69d4:	c083126f 	.word	0xc083126f
    69d8:	403501ca 	.word	0x403501ca
    69dc:	49ba5e35 	.word	0x49ba5e35
    69e0:	4035020c 	.word	0x4035020c
    69e4:	d2f1a9fc 	.word	0xd2f1a9fc
    69e8:	4035024d 	.word	0x4035024d
    69ec:	5c28f5c3 	.word	0x5c28f5c3
    69f0:	4035028f 	.word	0x4035028f
    69f4:	e5604189 	.word	0xe5604189
    69f8:	403502d0 	.word	0x403502d0
    69fc:	6e978d50 	.word	0x6e978d50
    6a00:	40350312 	.word	0x40350312
    6a04:	f7ced917 	.word	0xf7ced917
    6a08:	40350353 	.word	0x40350353
    6a0c:	810624dd 	.word	0x810624dd
    6a10:	40350395 	.word	0x40350395
    6a14:	0a3d70a4 	.word	0x0a3d70a4
    6a18:	403503d7 	.word	0x403503d7
    6a1c:	9374bc6a 	.word	0x9374bc6a
    6a20:	40350418 	.word	0x40350418
    6a24:	1cac0831 	.word	0x1cac0831
    6a28:	4035045a 	.word	0x4035045a
    6a2c:	a5e353f8 	.word	0xa5e353f8
    6a30:	4035049b 	.word	0x4035049b
    6a34:	2f1a9fbe 	.word	0x2f1a9fbe
    6a38:	403504dd 	.word	0x403504dd
    6a3c:	b851eb85 	.word	0xb851eb85
    6a40:	4035051e 	.word	0x4035051e
    6a44:	4189374c 	.word	0x4189374c
    6a48:	40350560 	.word	0x40350560
    6a4c:	cac08312 	.word	0xcac08312
    6a50:	403505a1 	.word	0x403505a1
    6a54:	53f7ced9 	.word	0x53f7ced9
    6a58:	403505e3 	.word	0x403505e3
    6a5c:	dd2f1aa0 	.word	0xdd2f1aa0
    6a60:	40350624 	.word	0x40350624
    6a64:	66666666 	.word	0x66666666
    6a68:	40350666 	.word	0x40350666
    6a6c:	ef9db22d 	.word	0xef9db22d
    6a70:	403506a7 	.word	0x403506a7
    6a74:	78d4fdf4 	.word	0x78d4fdf4
    6a78:	403506e9 	.word	0x403506e9
    6a7c:	020c49ba 	.word	0x020c49ba
    6a80:	4035072b 	.word	0x4035072b
    6a84:	8b439581 	.word	0x8b439581
    6a88:	4035076c 	.word	0x4035076c
    6a8c:	147ae148 	.word	0x147ae148
    6a90:	403507ae 	.word	0x403507ae
    6a94:	9db22d0e 	.word	0x9db22d0e
    6a98:	403507ef 	.word	0x403507ef
    6a9c:	26e978d5 	.word	0x26e978d5
    6aa0:	40350831 	.word	0x40350831
    6aa4:	b020c49c 	.word	0xb020c49c
    6aa8:	40350872 	.word	0x40350872
    6aac:	39581062 	.word	0x39581062
    6ab0:	403508b4 	.word	0x403508b4
    6ab4:	c28f5c29 	.word	0xc28f5c29
    6ab8:	403508f5 	.word	0x403508f5
    6abc:	4bc6a7f0 	.word	0x4bc6a7f0
    6ac0:	40350937 	.word	0x40350937
    6ac4:	d4fdf3b6 	.word	0xd4fdf3b6
    6ac8:	40350978 	.word	0x40350978
    6acc:	5e353f7d 	.word	0x5e353f7d
    6ad0:	403509ba 	.word	0x403509ba
    6ad4:	e76c8b44 	.word	0xe76c8b44
    6ad8:	403509fb 	.word	0x403509fb
    6adc:	70a3d70a 	.word	0x70a3d70a
    6ae0:	40350a3d 	.word	0x40350a3d
    6ae4:	f9db22d1 	.word	0xf9db22d1
    6ae8:	40350a7e 	.word	0x40350a7e
    6aec:	83126e98 	.word	0x83126e98
    6af0:	40350ac0 	.word	0x40350ac0
    6af4:	0c49ba5e 	.word	0x0c49ba5e
    6af8:	40350b02 	.word	0x40350b02
    6afc:	95810625 	.word	0x95810625
    6b00:	40350b43 	.word	0x40350b43
    6b04:	1eb851ec 	.word	0x1eb851ec
    6b08:	40350b85 	.word	0x40350b85
    6b0c:	a7ef9db2 	.word	0xa7ef9db2
    6b10:	40350bc6 	.word	0x40350bc6
    6b14:	3126e979 	.word	0x3126e979
    6b18:	40350c08 	.word	0x40350c08
    6b1c:	ba5e353f 	.word	0xba5e353f
    6b20:	40350c49 	.word	0x40350c49
    6b24:	43958106 	.word	0x43958106
    6b28:	40350c8b 	.word	0x40350c8b
    6b2c:	cccccccd 	.word	0xcccccccd
    6b30:	40350ccc 	.word	0x40350ccc
    6b34:	56041893 	.word	0x56041893
    6b38:	40350d0e 	.word	0x40350d0e
    6b3c:	df3b645a 	.word	0xdf3b645a
    6b40:	40350d4f 	.word	0x40350d4f
    6b44:	6872b021 	.word	0x6872b021
    6b48:	40350d91 	.word	0x40350d91
    6b4c:	f1a9fbe7 	.word	0xf1a9fbe7
    6b50:	40350dd2 	.word	0x40350dd2
    6b54:	7ae147ae 	.word	0x7ae147ae
    6b58:	40350e14 	.word	0x40350e14
    6b5c:	04189375 	.word	0x04189375
    6b60:	40350e56 	.word	0x40350e56
    6b64:	8d4fdf3b 	.word	0x8d4fdf3b
    6b68:	40350e97 	.word	0x40350e97
    6b6c:	16872b02 	.word	0x16872b02
    6b70:	40350ed9 	.word	0x40350ed9
    6b74:	9fbe76c9 	.word	0x9fbe76c9
    6b78:	40350f1a 	.word	0x40350f1a
    6b7c:	28f5c28f 	.word	0x28f5c28f
    6b80:	40350f5c 	.word	0x40350f5c
    6b84:	b22d0e56 	.word	0xb22d0e56
    6b88:	40350f9d 	.word	0x40350f9d
    6b8c:	3b645a1d 	.word	0x3b645a1d
    6b90:	40350fdf 	.word	0x40350fdf
    6b94:	c49ba5e3 	.word	0xc49ba5e3
    6b98:	40351020 	.word	0x40351020
    6b9c:	4dd2f1aa 	.word	0x4dd2f1aa
    6ba0:	40351062 	.word	0x40351062
    6ba4:	d70a3d71 	.word	0xd70a3d71
    6ba8:	403510a3 	.word	0x403510a3
    6bac:	60418937 	.word	0x60418937
    6bb0:	403510e5 	.word	0x403510e5
    6bb4:	e978d4fe 	.word	0xe978d4fe
    6bb8:	40351126 	.word	0x40351126
    6bbc:	72b020c5 	.word	0x72b020c5
    6bc0:	40351168 	.word	0x40351168
    6bc4:	fbe76c8b 	.word	0xfbe76c8b
    6bc8:	403511a9 	.word	0x403511a9
    6bcc:	851eb852 	.word	0x851eb852
    6bd0:	403511eb 	.word	0x403511eb
    6bd4:	0e560419 	.word	0x0e560419
    6bd8:	4035122d 	.word	0x4035122d
    6bdc:	978d4fdf 	.word	0x978d4fdf
    6be0:	4035126e 	.word	0x4035126e
    6be4:	20c49ba6 	.word	0x20c49ba6
    6be8:	403512b0 	.word	0x403512b0
    6bec:	a9fbe76d 	.word	0xa9fbe76d
    6bf0:	403512f1 	.word	0x403512f1
    6bf4:	33333333 	.word	0x33333333
    6bf8:	40351333 	.word	0x40351333
    6bfc:	bc6a7efa 	.word	0xbc6a7efa
    6c00:	40351374 	.word	0x40351374
    6c04:	45a1cac1 	.word	0x45a1cac1
    6c08:	403513b6 	.word	0x403513b6
    6c0c:	ced91687 	.word	0xced91687
    6c10:	403513f7 	.word	0x403513f7
    6c14:	5810624e 	.word	0x5810624e
    6c18:	40351439 	.word	0x40351439
    6c1c:	e147ae14 	.word	0xe147ae14
    6c20:	4035147a 	.word	0x4035147a
    6c24:	6a7ef9db 	.word	0x6a7ef9db
    6c28:	403514bc 	.word	0x403514bc
    6c2c:	f3b645a2 	.word	0xf3b645a2
    6c30:	403514fd 	.word	0x403514fd
    6c34:	7ced9168 	.word	0x7ced9168
    6c38:	4035153f 	.word	0x4035153f
    6c3c:	0624dd2f 	.word	0x0624dd2f
    6c40:	40351581 	.word	0x40351581
    6c44:	8f5c28f6 	.word	0x8f5c28f6
    6c48:	403515c2 	.word	0x403515c2
    6c4c:	189374bc 	.word	0x189374bc
    6c50:	40351604 	.word	0x40351604
    6c54:	a1cac083 	.word	0xa1cac083
    6c58:	40351645 	.word	0x40351645
    6c5c:	2b020c4a 	.word	0x2b020c4a
    6c60:	40351687 	.word	0x40351687
    6c64:	b4395810 	.word	0xb4395810
    6c68:	403516c8 	.word	0x403516c8
    6c6c:	3d70a3d7 	.word	0x3d70a3d7
    6c70:	4035170a 	.word	0x4035170a
    6c74:	c6a7ef9e 	.word	0xc6a7ef9e
    6c78:	4035174b 	.word	0x4035174b
    6c7c:	4fdf3b64 	.word	0x4fdf3b64
    6c80:	4035178d 	.word	0x4035178d
    6c84:	d916872b 	.word	0xd916872b
    6c88:	403517ce 	.word	0x403517ce
    6c8c:	624dd2f2 	.word	0x624dd2f2
    6c90:	40351810 	.word	0x40351810
    6c94:	eb851eb8 	.word	0xeb851eb8
    6c98:	40351851 	.word	0x40351851
    6c9c:	74bc6a7f 	.word	0x74bc6a7f
    6ca0:	40351893 	.word	0x40351893
    6ca4:	fdf3b646 	.word	0xfdf3b646
    6ca8:	403518d4 	.word	0x403518d4
    6cac:	872b020c 	.word	0x872b020c
    6cb0:	40351916 	.word	0x40351916
    6cb4:	10624dd3 	.word	0x10624dd3
    6cb8:	40351958 	.word	0x40351958
    6cbc:	9999999a 	.word	0x9999999a
    6cc0:	40351999 	.word	0x40351999
    6cc4:	22d0e560 	.word	0x22d0e560
    6cc8:	403519db 	.word	0x403519db
    6ccc:	ac083127 	.word	0xac083127
    6cd0:	40351a1c 	.word	0x40351a1c
    6cd4:	353f7cee 	.word	0x353f7cee
    6cd8:	40351a5e 	.word	0x40351a5e
    6cdc:	be76c8b4 	.word	0xbe76c8b4
    6ce0:	40351a9f 	.word	0x40351a9f
    6ce4:	47ae147b 	.word	0x47ae147b
    6ce8:	40351ae1 	.word	0x40351ae1
    6cec:	d0e56042 	.word	0xd0e56042
    6cf0:	40351b22 	.word	0x40351b22
    6cf4:	5a1cac08 	.word	0x5a1cac08
    6cf8:	40351b64 	.word	0x40351b64
    6cfc:	e353f7cf 	.word	0xe353f7cf
    6d00:	40351ba5 	.word	0x40351ba5
    6d04:	6c8b4396 	.word	0x6c8b4396
    6d08:	40351be7 	.word	0x40351be7
    6d0c:	f5c28f5c 	.word	0xf5c28f5c
    6d10:	40351c28 	.word	0x40351c28
    6d14:	7ef9db23 	.word	0x7ef9db23
    6d18:	40351c6a 	.word	0x40351c6a
    6d1c:	083126e9 	.word	0x083126e9
    6d20:	40351cac 	.word	0x40351cac
    6d24:	916872b0 	.word	0x916872b0
    6d28:	40351ced 	.word	0x40351ced
    6d2c:	1a9fbe77 	.word	0x1a9fbe77
    6d30:	40351d2f 	.word	0x40351d2f
    6d34:	a3d70a3d 	.word	0xa3d70a3d
    6d38:	40351d70 	.word	0x40351d70
    6d3c:	2d0e5604 	.word	0x2d0e5604
    6d40:	40351db2 	.word	0x40351db2
    6d44:	b645a1cb 	.word	0xb645a1cb
    6d48:	40351df3 	.word	0x40351df3
    6d4c:	3f7ced91 	.word	0x3f7ced91
    6d50:	40351e35 	.word	0x40351e35
    6d54:	c8b43958 	.word	0xc8b43958
    6d58:	40351e76 	.word	0x40351e76
    6d5c:	51eb851f 	.word	0x51eb851f
    6d60:	40351eb8 	.word	0x40351eb8
    6d64:	db22d0e5 	.word	0xdb22d0e5
    6d68:	40351ef9 	.word	0x40351ef9
    6d6c:	645a1cac 	.word	0x645a1cac
    6d70:	40351f3b 	.word	0x40351f3b
    6d74:	ed916873 	.word	0xed916873
    6d78:	40351f7c 	.word	0x40351f7c
    6d7c:	76c8b439 	.word	0x76c8b439
    6d80:	40351fbe 	.word	0x40351fbe
    6d84:	00000000 	.word	0x00000000
    6d88:	40352000 	.word	0x40352000
    6d8c:	89374bc7 	.word	0x89374bc7
    6d90:	40352041 	.word	0x40352041
    6d94:	126e978d 	.word	0x126e978d
    6d98:	40352083 	.word	0x40352083
    6d9c:	9ba5e354 	.word	0x9ba5e354
    6da0:	403520c4 	.word	0x403520c4
    6da4:	89374bc7 	.word	0x89374bc7
    6da8:	40360041 	.word	0x40360041
    6dac:	126e978d 	.word	0x126e978d
    6db0:	40360083 	.word	0x40360083
    6db4:	9ba5e354 	.word	0x9ba5e354
    6db8:	403600c4 	.word	0x403600c4
    6dbc:	24dd2f1b 	.word	0x24dd2f1b
    6dc0:	40360106 	.word	0x40360106
    6dc4:	ae147ae1 	.word	0xae147ae1
    6dc8:	40360147 	.word	0x40360147
    6dcc:	374bc6a8 	.word	0x374bc6a8
    6dd0:	40360189 	.word	0x40360189
    6dd4:	c083126f 	.word	0xc083126f
    6dd8:	403601ca 	.word	0x403601ca
    6ddc:	49ba5e35 	.word	0x49ba5e35
    6de0:	4036020c 	.word	0x4036020c
    6de4:	d2f1a9fc 	.word	0xd2f1a9fc
    6de8:	4036024d 	.word	0x4036024d
    6dec:	5c28f5c3 	.word	0x5c28f5c3
    6df0:	4036028f 	.word	0x4036028f
    6df4:	e5604189 	.word	0xe5604189
    6df8:	403602d0 	.word	0x403602d0
    6dfc:	6e978d50 	.word	0x6e978d50
    6e00:	40360312 	.word	0x40360312
    6e04:	f7ced917 	.word	0xf7ced917
    6e08:	40360353 	.word	0x40360353
    6e0c:	810624dd 	.word	0x810624dd
    6e10:	40360395 	.word	0x40360395
    6e14:	0a3d70a4 	.word	0x0a3d70a4
    6e18:	403603d7 	.word	0x403603d7
    6e1c:	9374bc6a 	.word	0x9374bc6a
    6e20:	40360418 	.word	0x40360418
    6e24:	1cac0831 	.word	0x1cac0831
    6e28:	4036045a 	.word	0x4036045a
    6e2c:	a5e353f8 	.word	0xa5e353f8
    6e30:	4036049b 	.word	0x4036049b
    6e34:	2f1a9fbe 	.word	0x2f1a9fbe
    6e38:	403604dd 	.word	0x403604dd
    6e3c:	b851eb85 	.word	0xb851eb85
    6e40:	4036051e 	.word	0x4036051e
    6e44:	4189374c 	.word	0x4189374c
    6e48:	40360560 	.word	0x40360560
    6e4c:	cac08312 	.word	0xcac08312
    6e50:	403605a1 	.word	0x403605a1
    6e54:	53f7ced9 	.word	0x53f7ced9
    6e58:	403605e3 	.word	0x403605e3
    6e5c:	dd2f1aa0 	.word	0xdd2f1aa0
    6e60:	40360624 	.word	0x40360624
    6e64:	66666666 	.word	0x66666666
    6e68:	40360666 	.word	0x40360666
    6e6c:	ef9db22d 	.word	0xef9db22d
    6e70:	403606a7 	.word	0x403606a7
    6e74:	78d4fdf4 	.word	0x78d4fdf4
    6e78:	403606e9 	.word	0x403606e9
    6e7c:	020c49ba 	.word	0x020c49ba
    6e80:	4036072b 	.word	0x4036072b
    6e84:	8b439581 	.word	0x8b439581
    6e88:	4036076c 	.word	0x4036076c
    6e8c:	147ae148 	.word	0x147ae148
    6e90:	403607ae 	.word	0x403607ae
    6e94:	9db22d0e 	.word	0x9db22d0e
    6e98:	403607ef 	.word	0x403607ef
    6e9c:	26e978d5 	.word	0x26e978d5
    6ea0:	40360831 	.word	0x40360831
    6ea4:	b020c49c 	.word	0xb020c49c
    6ea8:	40360872 	.word	0x40360872
    6eac:	39581062 	.word	0x39581062
    6eb0:	403608b4 	.word	0x403608b4
    6eb4:	c28f5c29 	.word	0xc28f5c29
    6eb8:	403608f5 	.word	0x403608f5
    6ebc:	4bc6a7f0 	.word	0x4bc6a7f0
    6ec0:	40360937 	.word	0x40360937
    6ec4:	d4fdf3b6 	.word	0xd4fdf3b6
    6ec8:	40360978 	.word	0x40360978
    6ecc:	5e353f7d 	.word	0x5e353f7d
    6ed0:	403609ba 	.word	0x403609ba
    6ed4:	e76c8b44 	.word	0xe76c8b44
    6ed8:	403609fb 	.word	0x403609fb
    6edc:	70a3d70a 	.word	0x70a3d70a
    6ee0:	40360a3d 	.word	0x40360a3d
    6ee4:	f9db22d1 	.word	0xf9db22d1
    6ee8:	40360a7e 	.word	0x40360a7e
    6eec:	83126e98 	.word	0x83126e98
    6ef0:	40360ac0 	.word	0x40360ac0
    6ef4:	0c49ba5e 	.word	0x0c49ba5e
    6ef8:	40360b02 	.word	0x40360b02
    6efc:	95810625 	.word	0x95810625
    6f00:	40360b43 	.word	0x40360b43
    6f04:	1eb851ec 	.word	0x1eb851ec
    6f08:	40360b85 	.word	0x40360b85
    6f0c:	a7ef9db2 	.word	0xa7ef9db2
    6f10:	40360bc6 	.word	0x40360bc6
    6f14:	3126e979 	.word	0x3126e979
    6f18:	40360c08 	.word	0x40360c08
    6f1c:	ba5e353f 	.word	0xba5e353f
    6f20:	40360c49 	.word	0x40360c49
    6f24:	43958106 	.word	0x43958106
    6f28:	40360c8b 	.word	0x40360c8b
    6f2c:	cccccccd 	.word	0xcccccccd
    6f30:	40360ccc 	.word	0x40360ccc
    6f34:	56041893 	.word	0x56041893
    6f38:	40360d0e 	.word	0x40360d0e
    6f3c:	df3b645a 	.word	0xdf3b645a
    6f40:	40360d4f 	.word	0x40360d4f
    6f44:	6872b021 	.word	0x6872b021
    6f48:	40360d91 	.word	0x40360d91
    6f4c:	f1a9fbe7 	.word	0xf1a9fbe7
    6f50:	40360dd2 	.word	0x40360dd2
    6f54:	7ae147ae 	.word	0x7ae147ae
    6f58:	40360e14 	.word	0x40360e14
    6f5c:	04189375 	.word	0x04189375
    6f60:	40360e56 	.word	0x40360e56
    6f64:	8d4fdf3b 	.word	0x8d4fdf3b
    6f68:	40360e97 	.word	0x40360e97
    6f6c:	16872b02 	.word	0x16872b02
    6f70:	40360ed9 	.word	0x40360ed9
    6f74:	9fbe76c9 	.word	0x9fbe76c9
    6f78:	40360f1a 	.word	0x40360f1a
    6f7c:	28f5c28f 	.word	0x28f5c28f
    6f80:	40360f5c 	.word	0x40360f5c
    6f84:	b22d0e56 	.word	0xb22d0e56
    6f88:	40360f9d 	.word	0x40360f9d
    6f8c:	3b645a1d 	.word	0x3b645a1d
    6f90:	40360fdf 	.word	0x40360fdf
    6f94:	c49ba5e3 	.word	0xc49ba5e3
    6f98:	40361020 	.word	0x40361020
    6f9c:	4dd2f1aa 	.word	0x4dd2f1aa
    6fa0:	40361062 	.word	0x40361062
    6fa4:	d70a3d71 	.word	0xd70a3d71
    6fa8:	403610a3 	.word	0x403610a3
    6fac:	60418937 	.word	0x60418937
    6fb0:	403610e5 	.word	0x403610e5
    6fb4:	e978d4fe 	.word	0xe978d4fe
    6fb8:	40361126 	.word	0x40361126
    6fbc:	72b020c5 	.word	0x72b020c5
    6fc0:	40361168 	.word	0x40361168
    6fc4:	fbe76c8b 	.word	0xfbe76c8b
    6fc8:	403611a9 	.word	0x403611a9
    6fcc:	851eb852 	.word	0x851eb852
    6fd0:	403611eb 	.word	0x403611eb
    6fd4:	0e560419 	.word	0x0e560419
    6fd8:	4036122d 	.word	0x4036122d
    6fdc:	978d4fdf 	.word	0x978d4fdf
    6fe0:	4036126e 	.word	0x4036126e
    6fe4:	20c49ba6 	.word	0x20c49ba6
    6fe8:	403612b0 	.word	0x403612b0
    6fec:	a9fbe76d 	.word	0xa9fbe76d
    6ff0:	403612f1 	.word	0x403612f1
    6ff4:	33333333 	.word	0x33333333
    6ff8:	40361333 	.word	0x40361333
    6ffc:	bc6a7efa 	.word	0xbc6a7efa
    7000:	40361374 	.word	0x40361374
    7004:	45a1cac1 	.word	0x45a1cac1
    7008:	403613b6 	.word	0x403613b6
    700c:	ced91687 	.word	0xced91687
    7010:	403613f7 	.word	0x403613f7
    7014:	5810624e 	.word	0x5810624e
    7018:	40361439 	.word	0x40361439
    701c:	e147ae14 	.word	0xe147ae14
    7020:	4036147a 	.word	0x4036147a
    7024:	6a7ef9db 	.word	0x6a7ef9db
    7028:	403614bc 	.word	0x403614bc
    702c:	f3b645a2 	.word	0xf3b645a2
    7030:	403614fd 	.word	0x403614fd
    7034:	7ced9168 	.word	0x7ced9168
    7038:	4036153f 	.word	0x4036153f
    703c:	0624dd2f 	.word	0x0624dd2f
    7040:	40361581 	.word	0x40361581
    7044:	8f5c28f6 	.word	0x8f5c28f6
    7048:	403615c2 	.word	0x403615c2
    704c:	189374bc 	.word	0x189374bc
    7050:	40361604 	.word	0x40361604
    7054:	a1cac083 	.word	0xa1cac083
    7058:	40361645 	.word	0x40361645
    705c:	2b020c4a 	.word	0x2b020c4a
    7060:	40361687 	.word	0x40361687
    7064:	b4395810 	.word	0xb4395810
    7068:	403616c8 	.word	0x403616c8
    706c:	3d70a3d7 	.word	0x3d70a3d7
    7070:	4036170a 	.word	0x4036170a
    7074:	c6a7ef9e 	.word	0xc6a7ef9e
    7078:	4036174b 	.word	0x4036174b
    707c:	4fdf3b64 	.word	0x4fdf3b64
    7080:	4036178d 	.word	0x4036178d
    7084:	d916872b 	.word	0xd916872b
    7088:	403617ce 	.word	0x403617ce
    708c:	624dd2f2 	.word	0x624dd2f2
    7090:	40361810 	.word	0x40361810
    7094:	eb851eb8 	.word	0xeb851eb8
    7098:	40361851 	.word	0x40361851
    709c:	74bc6a7f 	.word	0x74bc6a7f
    70a0:	40361893 	.word	0x40361893
    70a4:	fdf3b646 	.word	0xfdf3b646
    70a8:	403618d4 	.word	0x403618d4
    70ac:	872b020c 	.word	0x872b020c
    70b0:	40361916 	.word	0x40361916
    70b4:	10624dd3 	.word	0x10624dd3
    70b8:	40361958 	.word	0x40361958
    70bc:	9999999a 	.word	0x9999999a
    70c0:	40361999 	.word	0x40361999
    70c4:	22d0e560 	.word	0x22d0e560
    70c8:	403619db 	.word	0x403619db
    70cc:	ac083127 	.word	0xac083127
    70d0:	40361a1c 	.word	0x40361a1c
    70d4:	353f7cee 	.word	0x353f7cee
    70d8:	40361a5e 	.word	0x40361a5e
    70dc:	be76c8b4 	.word	0xbe76c8b4
    70e0:	40361a9f 	.word	0x40361a9f
    70e4:	47ae147b 	.word	0x47ae147b
    70e8:	40361ae1 	.word	0x40361ae1
    70ec:	d0e56042 	.word	0xd0e56042
    70f0:	40361b22 	.word	0x40361b22
    70f4:	5a1cac08 	.word	0x5a1cac08
