
C:/Users/User/Desktop/Lab11part2/pagetable.axf:     file format elf32-littlearm


Disassembly of section .text:

00000000 <CONFIG_VIRTUAL_MEMORY>:
      .equ  TRANS_TABLE_N, 0
      .equ  SECTION_SIZE, 0x100000

      .global CONFIG_VIRTUAL_MEMORY
CONFIG_VIRTUAL_MEMORY:
      PUSH {R4-R9}
       0:	e92d03f0 	push	{r4, r5, r6, r7, r8, r9}

      /* Verify System Control Register contents */
      MRC p15, 0, R0, c1, c0, 0 /* Read SCTLR into Rt */
       4:	ee110f10 	mrc	15, 0, r0, cr1, cr0, {0}
      LDR R1, =0x00C5187A
       8:	e59f10a8 	ldr	r1, [pc, #168]	; b8 <CPT_RETURN+0x8>
      CMP R0, R1
       c:	e1500001 	cmp	r0, r1
      BNE CPT_ERROR
      10:	1a000025 	bne	ac <CPT_ERROR>

      LDR R6, =0x100000 /* address to try to read after MMU configured */
      14:	e3a06601 	mov	r6, #1048576	; 0x100000
      LDR R7, [R6]      /* R7 is contents of word at physical address 0x100000 */
      18:	e5967000 	ldr	r7, [r6]
      LDR R8, =0x200000 /* address to try to read after MMU configured */
      1c:	e3a08602 	mov	r8, #2097152	; 0x200000
      LDR R9, [R8]      /* R9 has contents of word at physical address 0x200000 */
      20:	e5989000 	ldr	r9, [r8]

      /* initialize level 1 translation table */
               /*1111111111          */
               /*98765432109876543210*/
      LDR R1, =0b10000001110000001110    /* lower 20 bits of section descriptor for cacheable sections */
      24:	e59f1090 	ldr	r1, [pc, #144]	; bc <CPT_RETURN+0xc>
      LDR R2, =0b10000000110000000010    /* lower 20 bits of section descriptor for device sections */
      28:	e59f2090 	ldr	r2, [pc, #144]	; c0 <CPT_RETURN+0x10>
      LDR R3, =SECTION_SIZE
      2c:	e3a03601 	mov	r3, #1048576	; 0x100000
      LDR R4, =TRANS_TABLE_0_BASE
      30:	e3a04201 	mov	r4, #268435456	; 0x10000000
      MOV R0, #0  /* loop counter */
      34:	e3a00000 	mov	r0, #0

00000038 <CPT_L1>:
CPT_L1: 
      MUL   R5, R0, R3                     /* physical address of section */
      38:	e0050390 	mul	r5, r0, r3
      CMP   R0, #UNCACHABLE_START 
      3c:	e3500b01 	cmp	r0, #1024	; 0x400
      ORRLT R5, R5, R1
      40:	b1855001 	orrlt	r5, r5, r1
      ORRGE R5, R5, R2
      44:	a1855002 	orrge	r5, r5, r2
      STR   R5, [R4, R0, LSL #2]
      48:	e7845100 	str	r5, [r4, r0, lsl #2]
      ADD   R0, R0, #1
      4c:	e2800001 	add	r0, r0, #1
      CMP   R0, #0x1000
      50:	e3500a01 	cmp	r0, #4096	; 0x1000
      BLT   CPT_L1
      54:	bafffff7 	blt	38 <CPT_L1>

      /* for testing address translation: remap second two pages */
      ADD R5, R1, R3
      58:	e0815003 	add	r5, r1, r3
      STR R5, [R4, #8]  /* virtual page 2 => physical page 1 */
      5c:	e5845008 	str	r5, [r4, #8]
      ADD R5, R1, R3, LSL #1
      60:	e0815083 	add	r5, r1, r3, lsl #1
      STR R5, [R4, #4]  /* virtual page 1 => physical page 2 */
      64:	e5845004 	str	r5, [r4, #4]

      /* set Translation Table Base Control Register */
      MOV R0, #TRANS_TABLE_N
      68:	e3a00000 	mov	r0, #0
      MCR p15, 0, R0, c2, c0, 2 /* TTBCR.N = 0 */
      6c:	ee020f50 	mcr	15, 0, r0, cr2, cr0, {2}

      /* set Translation Table Base Register 0 */
      LDR R0,=TRANS_TABLE_0_BASE 
      70:	e3a00201 	mov	r0, #268435456	; 0x10000000
      MCR p15, 0, R0, c2, c0, 0 /* TTBR0 = TRANS_TABLE_0_BASE */
      74:	ee020f10 	mcr	15, 0, r0, cr2, cr0, {0}

      /* set Domain Access Control Register */
      MOV R0, #1
      78:	e3a00001 	mov	r0, #1
      MCR p15, 0, R0, c3, c0, 0 /* Domain 0 is client */
      7c:	ee030f10 	mcr	15, 0, r0, cr3, cr0, {0}

      /* set Context ID Register */
      MOV R0, #0
      80:	e3a00000 	mov	r0, #0
      MCR p15, 0, R0, c13, c0, 1 /* PROCID = 0, ACID = 0 */
      84:	ee0d0f30 	mcr	15, 0, r0, cr13, cr0, {1}

      /* enable data cache and MMU */
      MRC p15, 0, R0, c1, c0, 0 /* Read SCTLR into Rt */
      88:	ee110f10 	mrc	15, 0, r0, cr1, cr0, {0}
      ORR R0, R0, #0b101
      8c:	e3800005 	orr	r0, r0, #5
      MCR p15, 0, R0, c1, c0, 0 /* Write Rt to SCTLR */ 
      90:	ee010f10 	mcr	15, 0, r0, cr1, cr0, {0}

      ISB
      94:	f57ff06f 	isb	sy

      LDR   R1, [R6] /* R1 has contents of memory at virtual address 0x100000 
      98:	e5961000 	ldr	r1, [r6]
                        which should be physical address 0x200000 */

      CMP   R1, R9   /* R1 should match R9 if address translation worked */
      9c:	e1510009 	cmp	r1, r9
      BNE   CPT_ERROR 
      a0:	1a000001 	bne	ac <CPT_ERROR>

      MOV   R0, #0
      a4:	e3a00000 	mov	r0, #0
      B     CPT_RETURN
      a8:	ea000000 	b	b0 <CPT_RETURN>

000000ac <CPT_ERROR>:
CPT_ERROR:
      MOV   R0, #1
      ac:	e3a00001 	mov	r0, #1

000000b0 <CPT_RETURN>:
CPT_RETURN:
      POP   {R4-R9}
      b0:	e8bd03f0 	pop	{r4, r5, r6, r7, r8, r9}
      BX    LR
      b4:	e12fff1e 	bx	lr
      b8:	00c5187a 	.word	0x00c5187a
      bc:	00081c0e 	.word	0x00081c0e
      c0:	00080c02 	.word	0x00080c02

000000c4 <_start>:

.text
.globl _start
_start:

	BL CONFIG_VIRTUAL_MEMORY
      c4:	ebffffcd 	bl	0 <CONFIG_VIRTUAL_MEMORY>

	// Step 1-3: 
	//configure PMN0 to count cycles
	MOV R0, #0 // Write 0 into R0 then PMSELR
      c8:	e3a00000 	mov	r0, #0
	MCR p15, 0, R0, c9, c12, 5 // Write 0 into PMSELR selects PMN0
      cc:	ee090fbc 	mcr	15, 0, r0, cr9, cr12, {5}
	MOV R1, #0x11 // Event 0x11 is CPU cycles
      d0:	e3a01011 	mov	r1, #17
	MCR p15, 0, R1, c9, c13, 1 // Write 0x11 into PMXEVTYPER (PMN0 measure CPU cycles)
      d4:	ee091f3d 	mcr	15, 0, r1, cr9, cr13, {1}

	//configure PMN1 to calculate Cache misses
	MOV R0, #1
      d8:	e3a00001 	mov	r0, #1
	MCR p15, 0, R0, c9, c12, 5 // Write 1 into PMSELR selects PMN1
      dc:	ee090fbc 	mcr	15, 0, r0, cr9, cr12, {5}
	MOV R1, #0x3 // Event 0x3 is Level 1 data cache misses
      e0:	e3a01003 	mov	r1, #3
	MCR p15, 0, R1, c9, c13, 1 // Write 0x3 into PMXEVTYPER (PMN1 measure Level 1 data cache misses)
      e4:	ee091f3d 	mcr	15, 0, r1, cr9, cr13, {1}


	//configure PMN2 to calculate Number of load instructions executed
	MOV R0,  #2
      e8:	e3a00002 	mov	r0, #2
	MCR p15, 0, R0, c9, c12, 5 // Write 2 into PMSELR selects PMN2
      ec:	ee090fbc 	mcr	15, 0, r0, cr9, cr12, {5}
	MOV R1, #0x6 // Event 0x6 is Number of load instructions executed
      f0:	e3a01006 	mov	r1, #6
	MCR p15, 0, R1, c9, c13, 1 // Write 0x6 into PMXEVTYPER (PMN2 measure Number of load instructions executed)
      f4:	ee091f3d 	mcr	15, 0, r1, cr9, cr13, {1}


// Step 4: 
	//enable PMN0-PMN2
	mov R0, #0b111 // PMN0-2 is bit 0 of PMCNTENSET
      f8:	e3a00007 	mov	r0, #7
	MCR p15, 0, R0, c9, c12, 1 // Setting bit 0-2 of PMCNTENSET enables PMN0-2
      fc:	ee090f3c 	mcr	15, 0, r0, cr9, cr12, {1}

	// Step 5: 
	//clear all counters and start counters
	mov r0, #3 // bits 0 (start counters) and 1 (reset counters)
     100:	e3a00003 	mov	r0, #3
	MCR p15, 0, r0, c9, c12, 0 // Setting PMCR to 3
     104:	ee090f1c 	mcr	15, 0, r0, cr9, cr12, {0}

	//Step 6: code we wish to profile using hardware counters


	ldr r0, =Array_C128
     108:	e59f0038 	ldr	r0, [pc, #56]	; 148 <end+0x4>
	ldr r1, =Array_A128
     10c:	e59f1038 	ldr	r1, [pc, #56]	; 14c <end+0x8>
	ldr r2, =Array_B128
     110:	e59f2038 	ldr	r2, [pc, #56]	; 150 <end+0xc>

	bl mm
     114:	eb00000e 	bl	154 <mm>

	// Step 7: stop counters
	mov r0, #0
     118:	e3a00000 	mov	r0, #0
	MCR p15, 0, r0, c9, c12, 0 // Write 0 to PMCR to stop counters
     11c:	ee090f1c 	mcr	15, 0, r0, cr9, cr12, {0}
	// Step 8-10: Select PMN0-PMN2 and read out result into R3-5
	mov r0, #0 // PMN0
     120:	e3a00000 	mov	r0, #0
	MCR p15, 0, R0, c9, c12, 5 // Write 0 to PMSELR
     124:	ee090fbc 	mcr	15, 0, r0, cr9, cr12, {5}
	MRC p15, 0, R3, c9, c13, 2 // Read PMXEVCNTR into R3
     128:	ee193f5d 	mrc	15, 0, r3, cr9, cr13, {2}

	mov r0, #1 // PMN1
     12c:	e3a00001 	mov	r0, #1
	MCR p15, 0, R0, c9, c12, 5 // Write 1 to PMSELR
     130:	ee090fbc 	mcr	15, 0, r0, cr9, cr12, {5}
	MRC p15, 0, R4, c9, c13, 2 // Read PMXEVCNTR into R4
     134:	ee194f5d 	mrc	15, 0, r4, cr9, cr13, {2}

	mov r0, #2 // PMN2
     138:	e3a00002 	mov	r0, #2
	MCR p15, 0, R0, c9, c12, 5 // Write 2 to PMSELR
     13c:	ee090fbc 	mcr	15, 0, r0, cr9, cr12, {5}
	MRC p15, 0, R5, c9, c13, 2 // Read PMXEVCNTR into R5
     140:	ee195f5d 	mrc	15, 0, r5, cr9, cr13, {2}

00000144 <end>:

end: b end // wait here
     144:	eafffffe 	b	144 <end>
     148:	00040204 	.word	0x00040204
     14c:	00000204 	.word	0x00000204
     150:	00020204 	.word	0x00020204

00000154 <mm>:
.global Array_A128
.global Array_B128
.global Array_C128

mm:
    mov r10, #256
     154:	e3a0ac01 	mov	r10, #256	; 0x100
    SUB  sp,sp, #24     //  make room on stack for 3 registers
     158:	e24dd018 	sub	sp, sp, #24
    STR  r4, [sp, #20]  //  save r4 on stack
     15c:	e58d4014 	str	r4, [sp, #20]
    STR  r5, [sp, #16]  //  save r5 on stack
     160:	e58d5010 	str	r5, [sp, #16]
    STR  r6,  [sp, #12] //  save r6 on stack
     164:	e58d600c 	str	r6, [sp, #12]
    str r7, [sp, #8]
     168:	e58d7008 	str	r7, [sp, #8]
    str r8, [sp, #4]
     16c:	e58d8004 	str	r8, [sp, #4]
    str r9, [sp, #0]
     170:	e58d9000 	str	r9, [sp]
    mov r7, #128 // value of N
     174:	e3a07080 	mov	r7, #128	; 0x80
    MOV   r3,  #0   //  i = 0// initialize 1st for loop
     178:	e3a03000 	mov	r3, #0

0000017c <L1>:
L1: 
    MOV   r4,  #0  //  j = 0// restart 2nd for loop
     17c:	e3a04000 	mov	r4, #0

00000180 <L2>:
L2: 
    MOV   r5,  #0  //  k = 0// restart 3rd for loop
     180:	e3a05000 	mov	r5, #0
    mul r9, r3, r7 //multiply i by row size (n)
     184:	e0090793 	mul	r9, r3, r7
    add r6, r4, r9 //add the product and j to get address of xij
     188:	e0846009 	add	r6, r4, r9
    add r6, r0, r6, LSL #3 //convert into bytes
     18c:	e0806186 	add	r6, r0, r6, lsl #3
     190:	ed964b00 	.word	0xed964b00

00000194 <L3>:
    .word 0b11101101100101100100101100000000 //0b = binary
    //FLDD d4, [xijAddr, #0] 
    //.word 0b11101101100010100100101100000000 //store what's in d4 in mem 0xFFF
L3:
    mul r9, r5, r7
     194:	e0090795 	mul	r9, r5, r7
    add r12, r4, r9
     198:	e084c009 	add	r12, r4, r9
    add r12, r2, r12, LSL#3
     19c:	e082c18c 	add	r12, r2, r12, lsl #3
     1a0:	ed9c2b00 	.word	0xed9c2b00
    .word 0b11101101100111000010101100000000
    //FLDD d2, [tempAddr, #0]
    mul r9, r3, r7
     1a4:	e0090793 	mul	r9, r3, r7
    add r12, r5, r9
     1a8:	e085c009 	add	r12, r5, r9
    add r12, r1, r12, LSL #3
     1ac:	e081c18c 	add	r12, r1, r12, lsl #3
     1b0:	ed9c6b00 	.word	0xed9c6b00
     1b4:	ee262b02 	.word	0xee262b02
     1b8:	ee344b02 	.word	0xee344b02
    //FLDD d6, [tempAddr, #0]
    .word 0b11101110001001100010101100000010
    //FMULD d2, d6, d2
    .word 0b11101110001101000100101100000010
    //FADDD d4, d4, d2
    ADD r5, r5, #1
     1bc:	e2855001 	add	r5, r5, #1
    CMP r5, r7
     1c0:	e1550007 	cmp	r5, r7
    blt L3
     1c4:	bafffff2 	blt	194 <L3>
     1c8:	ed864b00 	.word	0xed864b00
    .word 0b11101101100001100100101100000000
    //FSTD d4, [xijAddr, #0]
    add r4,r4, #1
     1cc:	e2844001 	add	r4, r4, #1
    cmp r4, r7
     1d0:	e1540007 	cmp	r4, r7
    blt L2
     1d4:	baffffe9 	blt	180 <L2>
    add r3,r3, #1
     1d8:	e2833001 	add	r3, r3, #1
    cmp r3, r7
     1dc:	e1530007 	cmp	r3, r7
    blt L1
     1e0:	baffffe5 	blt	17c <L1>


     ldr  r4, [sp, #20]  //  save r4 on stack
     1e4:	e59d4014 	ldr	r4, [sp, #20]
    ldr  r5, [sp, #16]  //  save r5 on stack
     1e8:	e59d5010 	ldr	r5, [sp, #16]
    ldr  r6,  [sp, #12] //  save r6 on stack
     1ec:	e59d600c 	ldr	r6, [sp, #12]
    ldr r7, [sp, #8]
     1f0:	e59d7008 	ldr	r7, [sp, #8]
    ldr r8, [sp, #4]
     1f4:	e59d8004 	ldr	r8, [sp, #4]
    ldr r9, [sp, #0]
     1f8:	e59d9000 	ldr	r9, [sp]

    add sp, sp, #24
     1fc:	e28dd018 	add	sp, sp, #24

    mov pc, lr 
     200:	e1a0f00e 	mov	pc, lr

00000204 <Array_A128>:
     204:	9374bc6a 	.word	0x9374bc6a
     208:	3ff00418 	.word	0x3ff00418
     20c:	26e978d5 	.word	0x26e978d5
     210:	3ff00831 	.word	0x3ff00831
     214:	ba5e353f 	.word	0xba5e353f
     218:	3ff00c49 	.word	0x3ff00c49
     21c:	4dd2f1aa 	.word	0x4dd2f1aa
     220:	3ff01062 	.word	0x3ff01062
     224:	e147ae14 	.word	0xe147ae14
     228:	3ff0147a 	.word	0x3ff0147a
     22c:	74bc6a7f 	.word	0x74bc6a7f
     230:	3ff01893 	.word	0x3ff01893
     234:	083126e9 	.word	0x083126e9
     238:	3ff01cac 	.word	0x3ff01cac
     23c:	9ba5e354 	.word	0x9ba5e354
     240:	3ff020c4 	.word	0x3ff020c4
     244:	2f1a9fbe 	.word	0x2f1a9fbe
     248:	3ff024dd 	.word	0x3ff024dd
     24c:	c28f5c29 	.word	0xc28f5c29
     250:	3ff028f5 	.word	0x3ff028f5
     254:	56041893 	.word	0x56041893
     258:	3ff02d0e 	.word	0x3ff02d0e
     25c:	e978d4fe 	.word	0xe978d4fe
     260:	3ff03126 	.word	0x3ff03126
     264:	7ced9168 	.word	0x7ced9168
     268:	3ff0353f 	.word	0x3ff0353f
     26c:	10624dd3 	.word	0x10624dd3
     270:	3ff03958 	.word	0x3ff03958
     274:	a3d70a3d 	.word	0xa3d70a3d
     278:	3ff03d70 	.word	0x3ff03d70
     27c:	374bc6a8 	.word	0x374bc6a8
     280:	3ff04189 	.word	0x3ff04189
     284:	cac08312 	.word	0xcac08312
     288:	3ff045a1 	.word	0x3ff045a1
     28c:	5e353f7d 	.word	0x5e353f7d
     290:	3ff049ba 	.word	0x3ff049ba
     294:	f1a9fbe7 	.word	0xf1a9fbe7
     298:	3ff04dd2 	.word	0x3ff04dd2
     29c:	851eb852 	.word	0x851eb852
     2a0:	3ff051eb 	.word	0x3ff051eb
     2a4:	189374bc 	.word	0x189374bc
     2a8:	3ff05604 	.word	0x3ff05604
     2ac:	ac083127 	.word	0xac083127
     2b0:	3ff05a1c 	.word	0x3ff05a1c
     2b4:	3f7ced91 	.word	0x3f7ced91
     2b8:	3ff05e35 	.word	0x3ff05e35
     2bc:	d2f1a9fc 	.word	0xd2f1a9fc
     2c0:	3ff0624d 	.word	0x3ff0624d
     2c4:	66666666 	.word	0x66666666
     2c8:	3ff06666 	.word	0x3ff06666
     2cc:	f9db22d1 	.word	0xf9db22d1
     2d0:	3ff06a7e 	.word	0x3ff06a7e
     2d4:	8d4fdf3b 	.word	0x8d4fdf3b
     2d8:	3ff06e97 	.word	0x3ff06e97
     2dc:	20c49ba6 	.word	0x20c49ba6
     2e0:	3ff072b0 	.word	0x3ff072b0
     2e4:	b4395810 	.word	0xb4395810
     2e8:	3ff076c8 	.word	0x3ff076c8
     2ec:	47ae147b 	.word	0x47ae147b
     2f0:	3ff07ae1 	.word	0x3ff07ae1
     2f4:	db22d0e5 	.word	0xdb22d0e5
     2f8:	3ff07ef9 	.word	0x3ff07ef9
     2fc:	6e978d50 	.word	0x6e978d50
     300:	3ff08312 	.word	0x3ff08312
     304:	020c49ba 	.word	0x020c49ba
     308:	3ff0872b 	.word	0x3ff0872b
     30c:	95810625 	.word	0x95810625
     310:	3ff08b43 	.word	0x3ff08b43
     314:	28f5c28f 	.word	0x28f5c28f
     318:	3ff08f5c 	.word	0x3ff08f5c
     31c:	bc6a7efa 	.word	0xbc6a7efa
     320:	3ff09374 	.word	0x3ff09374
     324:	4fdf3b64 	.word	0x4fdf3b64
     328:	3ff0978d 	.word	0x3ff0978d
     32c:	e353f7cf 	.word	0xe353f7cf
     330:	3ff09ba5 	.word	0x3ff09ba5
     334:	76c8b439 	.word	0x76c8b439
     338:	3ff09fbe 	.word	0x3ff09fbe
     33c:	0a3d70a4 	.word	0x0a3d70a4
     340:	3ff0a3d7 	.word	0x3ff0a3d7
     344:	9db22d0e 	.word	0x9db22d0e
     348:	3ff0a7ef 	.word	0x3ff0a7ef
     34c:	3126e979 	.word	0x3126e979
     350:	3ff0ac08 	.word	0x3ff0ac08
     354:	c49ba5e3 	.word	0xc49ba5e3
     358:	3ff0b020 	.word	0x3ff0b020
     35c:	5810624e 	.word	0x5810624e
     360:	3ff0b439 	.word	0x3ff0b439
     364:	eb851eb8 	.word	0xeb851eb8
     368:	3ff0b851 	.word	0x3ff0b851
     36c:	7ef9db23 	.word	0x7ef9db23
     370:	3ff0bc6a 	.word	0x3ff0bc6a
     374:	126e978d 	.word	0x126e978d
     378:	3ff0c083 	.word	0x3ff0c083
     37c:	a5e353f8 	.word	0xa5e353f8
     380:	3ff0c49b 	.word	0x3ff0c49b
     384:	39581062 	.word	0x39581062
     388:	3ff0c8b4 	.word	0x3ff0c8b4
     38c:	cccccccd 	.word	0xcccccccd
     390:	3ff0cccc 	.word	0x3ff0cccc
     394:	60418937 	.word	0x60418937
     398:	3ff0d0e5 	.word	0x3ff0d0e5
     39c:	f3b645a2 	.word	0xf3b645a2
     3a0:	3ff0d4fd 	.word	0x3ff0d4fd
     3a4:	872b020c 	.word	0x872b020c
     3a8:	3ff0d916 	.word	0x3ff0d916
     3ac:	1a9fbe77 	.word	0x1a9fbe77
     3b0:	3ff0dd2f 	.word	0x3ff0dd2f
     3b4:	ae147ae1 	.word	0xae147ae1
     3b8:	3ff0e147 	.word	0x3ff0e147
     3bc:	4189374c 	.word	0x4189374c
     3c0:	3ff0e560 	.word	0x3ff0e560
     3c4:	d4fdf3b6 	.word	0xd4fdf3b6
     3c8:	3ff0e978 	.word	0x3ff0e978
     3cc:	6872b021 	.word	0x6872b021
     3d0:	3ff0ed91 	.word	0x3ff0ed91
     3d4:	fbe76c8b 	.word	0xfbe76c8b
     3d8:	3ff0f1a9 	.word	0x3ff0f1a9
     3dc:	8f5c28f6 	.word	0x8f5c28f6
     3e0:	3ff0f5c2 	.word	0x3ff0f5c2
     3e4:	22d0e560 	.word	0x22d0e560
     3e8:	3ff0f9db 	.word	0x3ff0f9db
     3ec:	b645a1cb 	.word	0xb645a1cb
     3f0:	3ff0fdf3 	.word	0x3ff0fdf3
     3f4:	49ba5e35 	.word	0x49ba5e35
     3f8:	3ff1020c 	.word	0x3ff1020c
     3fc:	dd2f1aa0 	.word	0xdd2f1aa0
     400:	3ff10624 	.word	0x3ff10624
     404:	70a3d70a 	.word	0x70a3d70a
     408:	3ff10a3d 	.word	0x3ff10a3d
     40c:	04189375 	.word	0x04189375
     410:	3ff10e56 	.word	0x3ff10e56
     414:	978d4fdf 	.word	0x978d4fdf
     418:	3ff1126e 	.word	0x3ff1126e
     41c:	2b020c4a 	.word	0x2b020c4a
     420:	3ff11687 	.word	0x3ff11687
     424:	be76c8b4 	.word	0xbe76c8b4
     428:	3ff11a9f 	.word	0x3ff11a9f
     42c:	51eb851f 	.word	0x51eb851f
     430:	3ff11eb8 	.word	0x3ff11eb8
     434:	e5604189 	.word	0xe5604189
     438:	3ff122d0 	.word	0x3ff122d0
     43c:	78d4fdf4 	.word	0x78d4fdf4
     440:	3ff126e9 	.word	0x3ff126e9
     444:	0c49ba5e 	.word	0x0c49ba5e
     448:	3ff12b02 	.word	0x3ff12b02
     44c:	9fbe76c9 	.word	0x9fbe76c9
     450:	3ff12f1a 	.word	0x3ff12f1a
     454:	33333333 	.word	0x33333333
     458:	3ff13333 	.word	0x3ff13333
     45c:	c6a7ef9e 	.word	0xc6a7ef9e
     460:	3ff1374b 	.word	0x3ff1374b
     464:	5a1cac08 	.word	0x5a1cac08
     468:	3ff13b64 	.word	0x3ff13b64
     46c:	ed916873 	.word	0xed916873
     470:	3ff13f7c 	.word	0x3ff13f7c
     474:	810624dd 	.word	0x810624dd
     478:	3ff14395 	.word	0x3ff14395
     47c:	147ae148 	.word	0x147ae148
     480:	3ff147ae 	.word	0x3ff147ae
     484:	a7ef9db2 	.word	0xa7ef9db2
     488:	3ff14bc6 	.word	0x3ff14bc6
     48c:	3b645a1d 	.word	0x3b645a1d
     490:	3ff14fdf 	.word	0x3ff14fdf
     494:	ced91687 	.word	0xced91687
     498:	3ff153f7 	.word	0x3ff153f7
     49c:	624dd2f2 	.word	0x624dd2f2
     4a0:	3ff15810 	.word	0x3ff15810
     4a4:	f5c28f5c 	.word	0xf5c28f5c
     4a8:	3ff15c28 	.word	0x3ff15c28
     4ac:	89374bc7 	.word	0x89374bc7
     4b0:	3ff16041 	.word	0x3ff16041
     4b4:	1cac0831 	.word	0x1cac0831
     4b8:	3ff1645a 	.word	0x3ff1645a
     4bc:	b020c49c 	.word	0xb020c49c
     4c0:	3ff16872 	.word	0x3ff16872
     4c4:	43958106 	.word	0x43958106
     4c8:	3ff16c8b 	.word	0x3ff16c8b
     4cc:	d70a3d71 	.word	0xd70a3d71
     4d0:	3ff170a3 	.word	0x3ff170a3
     4d4:	6a7ef9db 	.word	0x6a7ef9db
     4d8:	3ff174bc 	.word	0x3ff174bc
     4dc:	fdf3b646 	.word	0xfdf3b646
     4e0:	3ff178d4 	.word	0x3ff178d4
     4e4:	916872b0 	.word	0x916872b0
     4e8:	3ff17ced 	.word	0x3ff17ced
     4ec:	24dd2f1b 	.word	0x24dd2f1b
     4f0:	3ff18106 	.word	0x3ff18106
     4f4:	b851eb85 	.word	0xb851eb85
     4f8:	3ff1851e 	.word	0x3ff1851e
     4fc:	4bc6a7f0 	.word	0x4bc6a7f0
     500:	3ff18937 	.word	0x3ff18937
     504:	df3b645a 	.word	0xdf3b645a
     508:	3ff18d4f 	.word	0x3ff18d4f
     50c:	72b020c5 	.word	0x72b020c5
     510:	3ff19168 	.word	0x3ff19168
     514:	0624dd2f 	.word	0x0624dd2f
     518:	3ff19581 	.word	0x3ff19581
     51c:	9999999a 	.word	0x9999999a
     520:	3ff19999 	.word	0x3ff19999
     524:	2d0e5604 	.word	0x2d0e5604
     528:	3ff19db2 	.word	0x3ff19db2
     52c:	c083126f 	.word	0xc083126f
     530:	3ff1a1ca 	.word	0x3ff1a1ca
     534:	53f7ced9 	.word	0x53f7ced9
     538:	3ff1a5e3 	.word	0x3ff1a5e3
     53c:	e76c8b44 	.word	0xe76c8b44
     540:	3ff1a9fb 	.word	0x3ff1a9fb
     544:	7ae147ae 	.word	0x7ae147ae
     548:	3ff1ae14 	.word	0x3ff1ae14
     54c:	0e560419 	.word	0x0e560419
     550:	3ff1b22d 	.word	0x3ff1b22d
     554:	a1cac083 	.word	0xa1cac083
     558:	3ff1b645 	.word	0x3ff1b645
     55c:	353f7cee 	.word	0x353f7cee
     560:	3ff1ba5e 	.word	0x3ff1ba5e
     564:	c8b43958 	.word	0xc8b43958
     568:	3ff1be76 	.word	0x3ff1be76
     56c:	5c28f5c3 	.word	0x5c28f5c3
     570:	3ff1c28f 	.word	0x3ff1c28f
     574:	ef9db22d 	.word	0xef9db22d
     578:	3ff1c6a7 	.word	0x3ff1c6a7
     57c:	83126e98 	.word	0x83126e98
     580:	3ff1cac0 	.word	0x3ff1cac0
     584:	16872b02 	.word	0x16872b02
     588:	3ff1ced9 	.word	0x3ff1ced9
     58c:	a9fbe76d 	.word	0xa9fbe76d
     590:	3ff1d2f1 	.word	0x3ff1d2f1
     594:	3d70a3d7 	.word	0x3d70a3d7
     598:	3ff1d70a 	.word	0x3ff1d70a
     59c:	d0e56042 	.word	0xd0e56042
     5a0:	3ff1db22 	.word	0x3ff1db22
     5a4:	645a1cac 	.word	0x645a1cac
     5a8:	3ff1df3b 	.word	0x3ff1df3b
     5ac:	f7ced917 	.word	0xf7ced917
     5b0:	3ff1e353 	.word	0x3ff1e353
     5b4:	8b439581 	.word	0x8b439581
     5b8:	3ff1e76c 	.word	0x3ff1e76c
     5bc:	1eb851ec 	.word	0x1eb851ec
     5c0:	3ff1eb85 	.word	0x3ff1eb85
     5c4:	b22d0e56 	.word	0xb22d0e56
     5c8:	3ff1ef9d 	.word	0x3ff1ef9d
     5cc:	45a1cac1 	.word	0x45a1cac1
     5d0:	3ff1f3b6 	.word	0x3ff1f3b6
     5d4:	d916872b 	.word	0xd916872b
     5d8:	3ff1f7ce 	.word	0x3ff1f7ce
     5dc:	6c8b4396 	.word	0x6c8b4396
     5e0:	3ff1fbe7 	.word	0x3ff1fbe7
     5e4:	00000000 	.word	0x00000000
     5e8:	3ff20000 	.word	0x3ff20000
     5ec:	9374bc6a 	.word	0x9374bc6a
     5f0:	3ff20418 	.word	0x3ff20418
     5f4:	26e978d5 	.word	0x26e978d5
     5f8:	3ff20831 	.word	0x3ff20831
     5fc:	ba5e353f 	.word	0xba5e353f
     600:	3ff20c49 	.word	0x3ff20c49
     604:	49ba5e35 	.word	0x49ba5e35
     608:	4000020c 	.word	0x4000020c
     60c:	9374bc6a 	.word	0x9374bc6a
     610:	40000418 	.word	0x40000418
     614:	dd2f1aa0 	.word	0xdd2f1aa0
     618:	40000624 	.word	0x40000624
     61c:	26e978d5 	.word	0x26e978d5
     620:	40000831 	.word	0x40000831
     624:	70a3d70a 	.word	0x70a3d70a
     628:	40000a3d 	.word	0x40000a3d
     62c:	ba5e353f 	.word	0xba5e353f
     630:	40000c49 	.word	0x40000c49
     634:	04189375 	.word	0x04189375
     638:	40000e56 	.word	0x40000e56
     63c:	4dd2f1aa 	.word	0x4dd2f1aa
     640:	40001062 	.word	0x40001062
     644:	978d4fdf 	.word	0x978d4fdf
     648:	4000126e 	.word	0x4000126e
     64c:	e147ae14 	.word	0xe147ae14
     650:	4000147a 	.word	0x4000147a
     654:	2b020c4a 	.word	0x2b020c4a
     658:	40001687 	.word	0x40001687
     65c:	74bc6a7f 	.word	0x74bc6a7f
     660:	40001893 	.word	0x40001893
     664:	be76c8b4 	.word	0xbe76c8b4
     668:	40001a9f 	.word	0x40001a9f
     66c:	083126e9 	.word	0x083126e9
     670:	40001cac 	.word	0x40001cac
     674:	51eb851f 	.word	0x51eb851f
     678:	40001eb8 	.word	0x40001eb8
     67c:	9ba5e354 	.word	0x9ba5e354
     680:	400020c4 	.word	0x400020c4
     684:	e5604189 	.word	0xe5604189
     688:	400022d0 	.word	0x400022d0
     68c:	2f1a9fbe 	.word	0x2f1a9fbe
     690:	400024dd 	.word	0x400024dd
     694:	78d4fdf4 	.word	0x78d4fdf4
     698:	400026e9 	.word	0x400026e9
     69c:	c28f5c29 	.word	0xc28f5c29
     6a0:	400028f5 	.word	0x400028f5
     6a4:	0c49ba5e 	.word	0x0c49ba5e
     6a8:	40002b02 	.word	0x40002b02
     6ac:	56041893 	.word	0x56041893
     6b0:	40002d0e 	.word	0x40002d0e
     6b4:	9fbe76c9 	.word	0x9fbe76c9
     6b8:	40002f1a 	.word	0x40002f1a
     6bc:	e978d4fe 	.word	0xe978d4fe
     6c0:	40003126 	.word	0x40003126
     6c4:	33333333 	.word	0x33333333
     6c8:	40003333 	.word	0x40003333
     6cc:	7ced9168 	.word	0x7ced9168
     6d0:	4000353f 	.word	0x4000353f
     6d4:	c6a7ef9e 	.word	0xc6a7ef9e
     6d8:	4000374b 	.word	0x4000374b
     6dc:	10624dd3 	.word	0x10624dd3
     6e0:	40003958 	.word	0x40003958
     6e4:	5a1cac08 	.word	0x5a1cac08
     6e8:	40003b64 	.word	0x40003b64
     6ec:	a3d70a3d 	.word	0xa3d70a3d
     6f0:	40003d70 	.word	0x40003d70
     6f4:	ed916873 	.word	0xed916873
     6f8:	40003f7c 	.word	0x40003f7c
     6fc:	374bc6a8 	.word	0x374bc6a8
     700:	40004189 	.word	0x40004189
     704:	810624dd 	.word	0x810624dd
     708:	40004395 	.word	0x40004395
     70c:	cac08312 	.word	0xcac08312
     710:	400045a1 	.word	0x400045a1
     714:	147ae148 	.word	0x147ae148
     718:	400047ae 	.word	0x400047ae
     71c:	5e353f7d 	.word	0x5e353f7d
     720:	400049ba 	.word	0x400049ba
     724:	a7ef9db2 	.word	0xa7ef9db2
     728:	40004bc6 	.word	0x40004bc6
     72c:	f1a9fbe7 	.word	0xf1a9fbe7
     730:	40004dd2 	.word	0x40004dd2
     734:	3b645a1d 	.word	0x3b645a1d
     738:	40004fdf 	.word	0x40004fdf
     73c:	851eb852 	.word	0x851eb852
     740:	400051eb 	.word	0x400051eb
     744:	ced91687 	.word	0xced91687
     748:	400053f7 	.word	0x400053f7
     74c:	189374bc 	.word	0x189374bc
     750:	40005604 	.word	0x40005604
     754:	624dd2f2 	.word	0x624dd2f2
     758:	40005810 	.word	0x40005810
     75c:	ac083127 	.word	0xac083127
     760:	40005a1c 	.word	0x40005a1c
     764:	f5c28f5c 	.word	0xf5c28f5c
     768:	40005c28 	.word	0x40005c28
     76c:	3f7ced91 	.word	0x3f7ced91
     770:	40005e35 	.word	0x40005e35
     774:	89374bc7 	.word	0x89374bc7
     778:	40006041 	.word	0x40006041
     77c:	d2f1a9fc 	.word	0xd2f1a9fc
     780:	4000624d 	.word	0x4000624d
     784:	1cac0831 	.word	0x1cac0831
     788:	4000645a 	.word	0x4000645a
     78c:	66666666 	.word	0x66666666
     790:	40006666 	.word	0x40006666
     794:	b020c49c 	.word	0xb020c49c
     798:	40006872 	.word	0x40006872
     79c:	f9db22d1 	.word	0xf9db22d1
     7a0:	40006a7e 	.word	0x40006a7e
     7a4:	43958106 	.word	0x43958106
     7a8:	40006c8b 	.word	0x40006c8b
     7ac:	8d4fdf3b 	.word	0x8d4fdf3b
     7b0:	40006e97 	.word	0x40006e97
     7b4:	d70a3d71 	.word	0xd70a3d71
     7b8:	400070a3 	.word	0x400070a3
     7bc:	20c49ba6 	.word	0x20c49ba6
     7c0:	400072b0 	.word	0x400072b0
     7c4:	6a7ef9db 	.word	0x6a7ef9db
     7c8:	400074bc 	.word	0x400074bc
     7cc:	b4395810 	.word	0xb4395810
     7d0:	400076c8 	.word	0x400076c8
     7d4:	fdf3b646 	.word	0xfdf3b646
     7d8:	400078d4 	.word	0x400078d4
     7dc:	47ae147b 	.word	0x47ae147b
     7e0:	40007ae1 	.word	0x40007ae1
     7e4:	916872b0 	.word	0x916872b0
     7e8:	40007ced 	.word	0x40007ced
     7ec:	db22d0e5 	.word	0xdb22d0e5
     7f0:	40007ef9 	.word	0x40007ef9
     7f4:	24dd2f1b 	.word	0x24dd2f1b
     7f8:	40008106 	.word	0x40008106
     7fc:	6e978d50 	.word	0x6e978d50
     800:	40008312 	.word	0x40008312
     804:	b851eb85 	.word	0xb851eb85
     808:	4000851e 	.word	0x4000851e
     80c:	020c49ba 	.word	0x020c49ba
     810:	4000872b 	.word	0x4000872b
     814:	4bc6a7f0 	.word	0x4bc6a7f0
     818:	40008937 	.word	0x40008937
     81c:	95810625 	.word	0x95810625
     820:	40008b43 	.word	0x40008b43
     824:	df3b645a 	.word	0xdf3b645a
     828:	40008d4f 	.word	0x40008d4f
     82c:	28f5c28f 	.word	0x28f5c28f
     830:	40008f5c 	.word	0x40008f5c
     834:	72b020c5 	.word	0x72b020c5
     838:	40009168 	.word	0x40009168
     83c:	bc6a7efa 	.word	0xbc6a7efa
     840:	40009374 	.word	0x40009374
     844:	0624dd2f 	.word	0x0624dd2f
     848:	40009581 	.word	0x40009581
     84c:	4fdf3b64 	.word	0x4fdf3b64
     850:	4000978d 	.word	0x4000978d
     854:	9999999a 	.word	0x9999999a
     858:	40009999 	.word	0x40009999
     85c:	e353f7cf 	.word	0xe353f7cf
     860:	40009ba5 	.word	0x40009ba5
     864:	2d0e5604 	.word	0x2d0e5604
     868:	40009db2 	.word	0x40009db2
     86c:	76c8b439 	.word	0x76c8b439
     870:	40009fbe 	.word	0x40009fbe
     874:	c083126f 	.word	0xc083126f
     878:	4000a1ca 	.word	0x4000a1ca
     87c:	0a3d70a4 	.word	0x0a3d70a4
     880:	4000a3d7 	.word	0x4000a3d7
     884:	53f7ced9 	.word	0x53f7ced9
     888:	4000a5e3 	.word	0x4000a5e3
     88c:	9db22d0e 	.word	0x9db22d0e
     890:	4000a7ef 	.word	0x4000a7ef
     894:	e76c8b44 	.word	0xe76c8b44
     898:	4000a9fb 	.word	0x4000a9fb
     89c:	3126e979 	.word	0x3126e979
     8a0:	4000ac08 	.word	0x4000ac08
     8a4:	7ae147ae 	.word	0x7ae147ae
     8a8:	4000ae14 	.word	0x4000ae14
     8ac:	c49ba5e3 	.word	0xc49ba5e3
     8b0:	4000b020 	.word	0x4000b020
     8b4:	0e560419 	.word	0x0e560419
     8b8:	4000b22d 	.word	0x4000b22d
     8bc:	5810624e 	.word	0x5810624e
     8c0:	4000b439 	.word	0x4000b439
     8c4:	a1cac083 	.word	0xa1cac083
     8c8:	4000b645 	.word	0x4000b645
     8cc:	eb851eb8 	.word	0xeb851eb8
     8d0:	4000b851 	.word	0x4000b851
     8d4:	353f7cee 	.word	0x353f7cee
     8d8:	4000ba5e 	.word	0x4000ba5e
     8dc:	7ef9db23 	.word	0x7ef9db23
     8e0:	4000bc6a 	.word	0x4000bc6a
     8e4:	c8b43958 	.word	0xc8b43958
     8e8:	4000be76 	.word	0x4000be76
     8ec:	126e978d 	.word	0x126e978d
     8f0:	4000c083 	.word	0x4000c083
     8f4:	5c28f5c3 	.word	0x5c28f5c3
     8f8:	4000c28f 	.word	0x4000c28f
     8fc:	a5e353f8 	.word	0xa5e353f8
     900:	4000c49b 	.word	0x4000c49b
     904:	ef9db22d 	.word	0xef9db22d
     908:	4000c6a7 	.word	0x4000c6a7
     90c:	39581062 	.word	0x39581062
     910:	4000c8b4 	.word	0x4000c8b4
     914:	83126e98 	.word	0x83126e98
     918:	4000cac0 	.word	0x4000cac0
     91c:	cccccccd 	.word	0xcccccccd
     920:	4000cccc 	.word	0x4000cccc
     924:	16872b02 	.word	0x16872b02
     928:	4000ced9 	.word	0x4000ced9
     92c:	60418937 	.word	0x60418937
     930:	4000d0e5 	.word	0x4000d0e5
     934:	a9fbe76d 	.word	0xa9fbe76d
     938:	4000d2f1 	.word	0x4000d2f1
     93c:	f3b645a2 	.word	0xf3b645a2
     940:	4000d4fd 	.word	0x4000d4fd
     944:	3d70a3d7 	.word	0x3d70a3d7
     948:	4000d70a 	.word	0x4000d70a
     94c:	872b020c 	.word	0x872b020c
     950:	4000d916 	.word	0x4000d916
     954:	d0e56042 	.word	0xd0e56042
     958:	4000db22 	.word	0x4000db22
     95c:	1a9fbe77 	.word	0x1a9fbe77
     960:	4000dd2f 	.word	0x4000dd2f
     964:	645a1cac 	.word	0x645a1cac
     968:	4000df3b 	.word	0x4000df3b
     96c:	ae147ae1 	.word	0xae147ae1
     970:	4000e147 	.word	0x4000e147
     974:	f7ced917 	.word	0xf7ced917
     978:	4000e353 	.word	0x4000e353
     97c:	4189374c 	.word	0x4189374c
     980:	4000e560 	.word	0x4000e560
     984:	8b439581 	.word	0x8b439581
     988:	4000e76c 	.word	0x4000e76c
     98c:	d4fdf3b6 	.word	0xd4fdf3b6
     990:	4000e978 	.word	0x4000e978
     994:	1eb851ec 	.word	0x1eb851ec
     998:	4000eb85 	.word	0x4000eb85
     99c:	6872b021 	.word	0x6872b021
     9a0:	4000ed91 	.word	0x4000ed91
     9a4:	b22d0e56 	.word	0xb22d0e56
     9a8:	4000ef9d 	.word	0x4000ef9d
     9ac:	fbe76c8b 	.word	0xfbe76c8b
     9b0:	4000f1a9 	.word	0x4000f1a9
     9b4:	45a1cac1 	.word	0x45a1cac1
     9b8:	4000f3b6 	.word	0x4000f3b6
     9bc:	8f5c28f6 	.word	0x8f5c28f6
     9c0:	4000f5c2 	.word	0x4000f5c2
     9c4:	d916872b 	.word	0xd916872b
     9c8:	4000f7ce 	.word	0x4000f7ce
     9cc:	22d0e560 	.word	0x22d0e560
     9d0:	4000f9db 	.word	0x4000f9db
     9d4:	6c8b4396 	.word	0x6c8b4396
     9d8:	4000fbe7 	.word	0x4000fbe7
     9dc:	b645a1cb 	.word	0xb645a1cb
     9e0:	4000fdf3 	.word	0x4000fdf3
     9e4:	00000000 	.word	0x00000000
     9e8:	40010000 	.word	0x40010000
     9ec:	49ba5e35 	.word	0x49ba5e35
     9f0:	4001020c 	.word	0x4001020c
     9f4:	9374bc6a 	.word	0x9374bc6a
     9f8:	40010418 	.word	0x40010418
     9fc:	dd2f1aa0 	.word	0xdd2f1aa0
     a00:	40010624 	.word	0x40010624
     a04:	49ba5e35 	.word	0x49ba5e35
     a08:	4008020c 	.word	0x4008020c
     a0c:	9374bc6a 	.word	0x9374bc6a
     a10:	40080418 	.word	0x40080418
     a14:	dd2f1aa0 	.word	0xdd2f1aa0
     a18:	40080624 	.word	0x40080624
     a1c:	26e978d5 	.word	0x26e978d5
     a20:	40080831 	.word	0x40080831
     a24:	70a3d70a 	.word	0x70a3d70a
     a28:	40080a3d 	.word	0x40080a3d
     a2c:	ba5e353f 	.word	0xba5e353f
     a30:	40080c49 	.word	0x40080c49
     a34:	04189375 	.word	0x04189375
     a38:	40080e56 	.word	0x40080e56
     a3c:	4dd2f1aa 	.word	0x4dd2f1aa
     a40:	40081062 	.word	0x40081062
     a44:	978d4fdf 	.word	0x978d4fdf
     a48:	4008126e 	.word	0x4008126e
     a4c:	e147ae14 	.word	0xe147ae14
     a50:	4008147a 	.word	0x4008147a
     a54:	2b020c4a 	.word	0x2b020c4a
     a58:	40081687 	.word	0x40081687
     a5c:	74bc6a7f 	.word	0x74bc6a7f
     a60:	40081893 	.word	0x40081893
     a64:	be76c8b4 	.word	0xbe76c8b4
     a68:	40081a9f 	.word	0x40081a9f
     a6c:	083126e9 	.word	0x083126e9
     a70:	40081cac 	.word	0x40081cac
     a74:	51eb851f 	.word	0x51eb851f
     a78:	40081eb8 	.word	0x40081eb8
     a7c:	9ba5e354 	.word	0x9ba5e354
     a80:	400820c4 	.word	0x400820c4
     a84:	e5604189 	.word	0xe5604189
     a88:	400822d0 	.word	0x400822d0
     a8c:	2f1a9fbe 	.word	0x2f1a9fbe
     a90:	400824dd 	.word	0x400824dd
     a94:	78d4fdf4 	.word	0x78d4fdf4
     a98:	400826e9 	.word	0x400826e9
     a9c:	c28f5c29 	.word	0xc28f5c29
     aa0:	400828f5 	.word	0x400828f5
     aa4:	0c49ba5e 	.word	0x0c49ba5e
     aa8:	40082b02 	.word	0x40082b02
     aac:	56041893 	.word	0x56041893
     ab0:	40082d0e 	.word	0x40082d0e
     ab4:	9fbe76c9 	.word	0x9fbe76c9
     ab8:	40082f1a 	.word	0x40082f1a
     abc:	e978d4fe 	.word	0xe978d4fe
     ac0:	40083126 	.word	0x40083126
     ac4:	33333333 	.word	0x33333333
     ac8:	40083333 	.word	0x40083333
     acc:	7ced9168 	.word	0x7ced9168
     ad0:	4008353f 	.word	0x4008353f
     ad4:	c6a7ef9e 	.word	0xc6a7ef9e
     ad8:	4008374b 	.word	0x4008374b
     adc:	10624dd3 	.word	0x10624dd3
     ae0:	40083958 	.word	0x40083958
     ae4:	5a1cac08 	.word	0x5a1cac08
     ae8:	40083b64 	.word	0x40083b64
     aec:	a3d70a3d 	.word	0xa3d70a3d
     af0:	40083d70 	.word	0x40083d70
     af4:	ed916873 	.word	0xed916873
     af8:	40083f7c 	.word	0x40083f7c
     afc:	374bc6a8 	.word	0x374bc6a8
     b00:	40084189 	.word	0x40084189
     b04:	810624dd 	.word	0x810624dd
     b08:	40084395 	.word	0x40084395
     b0c:	cac08312 	.word	0xcac08312
     b10:	400845a1 	.word	0x400845a1
     b14:	147ae148 	.word	0x147ae148
     b18:	400847ae 	.word	0x400847ae
     b1c:	5e353f7d 	.word	0x5e353f7d
     b20:	400849ba 	.word	0x400849ba
     b24:	a7ef9db2 	.word	0xa7ef9db2
     b28:	40084bc6 	.word	0x40084bc6
     b2c:	f1a9fbe7 	.word	0xf1a9fbe7
     b30:	40084dd2 	.word	0x40084dd2
     b34:	3b645a1d 	.word	0x3b645a1d
     b38:	40084fdf 	.word	0x40084fdf
     b3c:	851eb852 	.word	0x851eb852
     b40:	400851eb 	.word	0x400851eb
     b44:	ced91687 	.word	0xced91687
     b48:	400853f7 	.word	0x400853f7
     b4c:	189374bc 	.word	0x189374bc
     b50:	40085604 	.word	0x40085604
     b54:	624dd2f2 	.word	0x624dd2f2
     b58:	40085810 	.word	0x40085810
     b5c:	ac083127 	.word	0xac083127
     b60:	40085a1c 	.word	0x40085a1c
     b64:	f5c28f5c 	.word	0xf5c28f5c
     b68:	40085c28 	.word	0x40085c28
     b6c:	3f7ced91 	.word	0x3f7ced91
     b70:	40085e35 	.word	0x40085e35
     b74:	89374bc7 	.word	0x89374bc7
     b78:	40086041 	.word	0x40086041
     b7c:	d2f1a9fc 	.word	0xd2f1a9fc
     b80:	4008624d 	.word	0x4008624d
     b84:	1cac0831 	.word	0x1cac0831
     b88:	4008645a 	.word	0x4008645a
     b8c:	66666666 	.word	0x66666666
     b90:	40086666 	.word	0x40086666
     b94:	b020c49c 	.word	0xb020c49c
     b98:	40086872 	.word	0x40086872
     b9c:	f9db22d1 	.word	0xf9db22d1
     ba0:	40086a7e 	.word	0x40086a7e
     ba4:	43958106 	.word	0x43958106
     ba8:	40086c8b 	.word	0x40086c8b
     bac:	8d4fdf3b 	.word	0x8d4fdf3b
     bb0:	40086e97 	.word	0x40086e97
     bb4:	d70a3d71 	.word	0xd70a3d71
     bb8:	400870a3 	.word	0x400870a3
     bbc:	20c49ba6 	.word	0x20c49ba6
     bc0:	400872b0 	.word	0x400872b0
     bc4:	6a7ef9db 	.word	0x6a7ef9db
     bc8:	400874bc 	.word	0x400874bc
     bcc:	b4395810 	.word	0xb4395810
     bd0:	400876c8 	.word	0x400876c8
     bd4:	fdf3b646 	.word	0xfdf3b646
     bd8:	400878d4 	.word	0x400878d4
     bdc:	47ae147b 	.word	0x47ae147b
     be0:	40087ae1 	.word	0x40087ae1
     be4:	916872b0 	.word	0x916872b0
     be8:	40087ced 	.word	0x40087ced
     bec:	db22d0e5 	.word	0xdb22d0e5
     bf0:	40087ef9 	.word	0x40087ef9
     bf4:	24dd2f1b 	.word	0x24dd2f1b
     bf8:	40088106 	.word	0x40088106
     bfc:	6e978d50 	.word	0x6e978d50
     c00:	40088312 	.word	0x40088312
     c04:	b851eb85 	.word	0xb851eb85
     c08:	4008851e 	.word	0x4008851e
     c0c:	020c49ba 	.word	0x020c49ba
     c10:	4008872b 	.word	0x4008872b
     c14:	4bc6a7f0 	.word	0x4bc6a7f0
     c18:	40088937 	.word	0x40088937
     c1c:	95810625 	.word	0x95810625
     c20:	40088b43 	.word	0x40088b43
     c24:	df3b645a 	.word	0xdf3b645a
     c28:	40088d4f 	.word	0x40088d4f
     c2c:	28f5c28f 	.word	0x28f5c28f
     c30:	40088f5c 	.word	0x40088f5c
     c34:	72b020c5 	.word	0x72b020c5
     c38:	40089168 	.word	0x40089168
     c3c:	bc6a7efa 	.word	0xbc6a7efa
     c40:	40089374 	.word	0x40089374
     c44:	0624dd2f 	.word	0x0624dd2f
     c48:	40089581 	.word	0x40089581
     c4c:	4fdf3b64 	.word	0x4fdf3b64
     c50:	4008978d 	.word	0x4008978d
     c54:	9999999a 	.word	0x9999999a
     c58:	40089999 	.word	0x40089999
     c5c:	e353f7cf 	.word	0xe353f7cf
     c60:	40089ba5 	.word	0x40089ba5
     c64:	2d0e5604 	.word	0x2d0e5604
     c68:	40089db2 	.word	0x40089db2
     c6c:	76c8b439 	.word	0x76c8b439
     c70:	40089fbe 	.word	0x40089fbe
     c74:	c083126f 	.word	0xc083126f
     c78:	4008a1ca 	.word	0x4008a1ca
     c7c:	0a3d70a4 	.word	0x0a3d70a4
     c80:	4008a3d7 	.word	0x4008a3d7
     c84:	53f7ced9 	.word	0x53f7ced9
     c88:	4008a5e3 	.word	0x4008a5e3
     c8c:	9db22d0e 	.word	0x9db22d0e
     c90:	4008a7ef 	.word	0x4008a7ef
     c94:	e76c8b44 	.word	0xe76c8b44
     c98:	4008a9fb 	.word	0x4008a9fb
     c9c:	3126e979 	.word	0x3126e979
     ca0:	4008ac08 	.word	0x4008ac08
     ca4:	7ae147ae 	.word	0x7ae147ae
     ca8:	4008ae14 	.word	0x4008ae14
     cac:	c49ba5e3 	.word	0xc49ba5e3
     cb0:	4008b020 	.word	0x4008b020
     cb4:	0e560419 	.word	0x0e560419
     cb8:	4008b22d 	.word	0x4008b22d
     cbc:	5810624e 	.word	0x5810624e
     cc0:	4008b439 	.word	0x4008b439
     cc4:	a1cac083 	.word	0xa1cac083
     cc8:	4008b645 	.word	0x4008b645
     ccc:	eb851eb8 	.word	0xeb851eb8
     cd0:	4008b851 	.word	0x4008b851
     cd4:	353f7cee 	.word	0x353f7cee
     cd8:	4008ba5e 	.word	0x4008ba5e
     cdc:	7ef9db23 	.word	0x7ef9db23
     ce0:	4008bc6a 	.word	0x4008bc6a
     ce4:	c8b43958 	.word	0xc8b43958
     ce8:	4008be76 	.word	0x4008be76
     cec:	126e978d 	.word	0x126e978d
     cf0:	4008c083 	.word	0x4008c083
     cf4:	5c28f5c3 	.word	0x5c28f5c3
     cf8:	4008c28f 	.word	0x4008c28f
     cfc:	a5e353f8 	.word	0xa5e353f8
     d00:	4008c49b 	.word	0x4008c49b
     d04:	ef9db22d 	.word	0xef9db22d
     d08:	4008c6a7 	.word	0x4008c6a7
     d0c:	39581062 	.word	0x39581062
     d10:	4008c8b4 	.word	0x4008c8b4
     d14:	83126e98 	.word	0x83126e98
     d18:	4008cac0 	.word	0x4008cac0
     d1c:	cccccccd 	.word	0xcccccccd
     d20:	4008cccc 	.word	0x4008cccc
     d24:	16872b02 	.word	0x16872b02
     d28:	4008ced9 	.word	0x4008ced9
     d2c:	60418937 	.word	0x60418937
     d30:	4008d0e5 	.word	0x4008d0e5
     d34:	a9fbe76d 	.word	0xa9fbe76d
     d38:	4008d2f1 	.word	0x4008d2f1
     d3c:	f3b645a2 	.word	0xf3b645a2
     d40:	4008d4fd 	.word	0x4008d4fd
     d44:	3d70a3d7 	.word	0x3d70a3d7
     d48:	4008d70a 	.word	0x4008d70a
     d4c:	872b020c 	.word	0x872b020c
     d50:	4008d916 	.word	0x4008d916
     d54:	d0e56042 	.word	0xd0e56042
     d58:	4008db22 	.word	0x4008db22
     d5c:	1a9fbe77 	.word	0x1a9fbe77
     d60:	4008dd2f 	.word	0x4008dd2f
     d64:	645a1cac 	.word	0x645a1cac
     d68:	4008df3b 	.word	0x4008df3b
     d6c:	ae147ae1 	.word	0xae147ae1
     d70:	4008e147 	.word	0x4008e147
     d74:	f7ced917 	.word	0xf7ced917
     d78:	4008e353 	.word	0x4008e353
     d7c:	4189374c 	.word	0x4189374c
     d80:	4008e560 	.word	0x4008e560
     d84:	8b439581 	.word	0x8b439581
     d88:	4008e76c 	.word	0x4008e76c
     d8c:	d4fdf3b6 	.word	0xd4fdf3b6
     d90:	4008e978 	.word	0x4008e978
     d94:	1eb851ec 	.word	0x1eb851ec
     d98:	4008eb85 	.word	0x4008eb85
     d9c:	6872b021 	.word	0x6872b021
     da0:	4008ed91 	.word	0x4008ed91
     da4:	b22d0e56 	.word	0xb22d0e56
     da8:	4008ef9d 	.word	0x4008ef9d
     dac:	fbe76c8b 	.word	0xfbe76c8b
     db0:	4008f1a9 	.word	0x4008f1a9
     db4:	45a1cac1 	.word	0x45a1cac1
     db8:	4008f3b6 	.word	0x4008f3b6
     dbc:	8f5c28f6 	.word	0x8f5c28f6
     dc0:	4008f5c2 	.word	0x4008f5c2
     dc4:	d916872b 	.word	0xd916872b
     dc8:	4008f7ce 	.word	0x4008f7ce
     dcc:	22d0e560 	.word	0x22d0e560
     dd0:	4008f9db 	.word	0x4008f9db
     dd4:	6c8b4396 	.word	0x6c8b4396
     dd8:	4008fbe7 	.word	0x4008fbe7
     ddc:	b645a1cb 	.word	0xb645a1cb
     de0:	4008fdf3 	.word	0x4008fdf3
     de4:	00000000 	.word	0x00000000
     de8:	40090000 	.word	0x40090000
     dec:	49ba5e35 	.word	0x49ba5e35
     df0:	4009020c 	.word	0x4009020c
     df4:	9374bc6a 	.word	0x9374bc6a
     df8:	40090418 	.word	0x40090418
     dfc:	dd2f1aa0 	.word	0xdd2f1aa0
     e00:	40090624 	.word	0x40090624
     e04:	24dd2f1b 	.word	0x24dd2f1b
     e08:	40100106 	.word	0x40100106
     e0c:	49ba5e35 	.word	0x49ba5e35
     e10:	4010020c 	.word	0x4010020c
     e14:	6e978d50 	.word	0x6e978d50
     e18:	40100312 	.word	0x40100312
     e1c:	9374bc6a 	.word	0x9374bc6a
     e20:	40100418 	.word	0x40100418
     e24:	b851eb85 	.word	0xb851eb85
     e28:	4010051e 	.word	0x4010051e
     e2c:	dd2f1aa0 	.word	0xdd2f1aa0
     e30:	40100624 	.word	0x40100624
     e34:	020c49ba 	.word	0x020c49ba
     e38:	4010072b 	.word	0x4010072b
     e3c:	26e978d5 	.word	0x26e978d5
     e40:	40100831 	.word	0x40100831
     e44:	4bc6a7f0 	.word	0x4bc6a7f0
     e48:	40100937 	.word	0x40100937
     e4c:	70a3d70a 	.word	0x70a3d70a
     e50:	40100a3d 	.word	0x40100a3d
     e54:	95810625 	.word	0x95810625
     e58:	40100b43 	.word	0x40100b43
     e5c:	ba5e353f 	.word	0xba5e353f
     e60:	40100c49 	.word	0x40100c49
     e64:	df3b645a 	.word	0xdf3b645a
     e68:	40100d4f 	.word	0x40100d4f
     e6c:	04189375 	.word	0x04189375
     e70:	40100e56 	.word	0x40100e56
     e74:	28f5c28f 	.word	0x28f5c28f
     e78:	40100f5c 	.word	0x40100f5c
     e7c:	4dd2f1aa 	.word	0x4dd2f1aa
     e80:	40101062 	.word	0x40101062
     e84:	72b020c5 	.word	0x72b020c5
     e88:	40101168 	.word	0x40101168
     e8c:	978d4fdf 	.word	0x978d4fdf
     e90:	4010126e 	.word	0x4010126e
     e94:	bc6a7efa 	.word	0xbc6a7efa
     e98:	40101374 	.word	0x40101374
     e9c:	e147ae14 	.word	0xe147ae14
     ea0:	4010147a 	.word	0x4010147a
     ea4:	0624dd2f 	.word	0x0624dd2f
     ea8:	40101581 	.word	0x40101581
     eac:	2b020c4a 	.word	0x2b020c4a
     eb0:	40101687 	.word	0x40101687
     eb4:	4fdf3b64 	.word	0x4fdf3b64
     eb8:	4010178d 	.word	0x4010178d
     ebc:	74bc6a7f 	.word	0x74bc6a7f
     ec0:	40101893 	.word	0x40101893
     ec4:	9999999a 	.word	0x9999999a
     ec8:	40101999 	.word	0x40101999
     ecc:	be76c8b4 	.word	0xbe76c8b4
     ed0:	40101a9f 	.word	0x40101a9f
     ed4:	e353f7cf 	.word	0xe353f7cf
     ed8:	40101ba5 	.word	0x40101ba5
     edc:	083126e9 	.word	0x083126e9
     ee0:	40101cac 	.word	0x40101cac
     ee4:	2d0e5604 	.word	0x2d0e5604
     ee8:	40101db2 	.word	0x40101db2
     eec:	51eb851f 	.word	0x51eb851f
     ef0:	40101eb8 	.word	0x40101eb8
     ef4:	76c8b439 	.word	0x76c8b439
     ef8:	40101fbe 	.word	0x40101fbe
     efc:	9ba5e354 	.word	0x9ba5e354
     f00:	401020c4 	.word	0x401020c4
     f04:	c083126f 	.word	0xc083126f
     f08:	401021ca 	.word	0x401021ca
     f0c:	e5604189 	.word	0xe5604189
     f10:	401022d0 	.word	0x401022d0
     f14:	0a3d70a4 	.word	0x0a3d70a4
     f18:	401023d7 	.word	0x401023d7
     f1c:	2f1a9fbe 	.word	0x2f1a9fbe
     f20:	401024dd 	.word	0x401024dd
     f24:	53f7ced9 	.word	0x53f7ced9
     f28:	401025e3 	.word	0x401025e3
     f2c:	78d4fdf4 	.word	0x78d4fdf4
     f30:	401026e9 	.word	0x401026e9
     f34:	9db22d0e 	.word	0x9db22d0e
     f38:	401027ef 	.word	0x401027ef
     f3c:	c28f5c29 	.word	0xc28f5c29
     f40:	401028f5 	.word	0x401028f5
     f44:	e76c8b44 	.word	0xe76c8b44
     f48:	401029fb 	.word	0x401029fb
     f4c:	0c49ba5e 	.word	0x0c49ba5e
     f50:	40102b02 	.word	0x40102b02
     f54:	3126e979 	.word	0x3126e979
     f58:	40102c08 	.word	0x40102c08
     f5c:	56041893 	.word	0x56041893
     f60:	40102d0e 	.word	0x40102d0e
     f64:	7ae147ae 	.word	0x7ae147ae
     f68:	40102e14 	.word	0x40102e14
     f6c:	9fbe76c9 	.word	0x9fbe76c9
     f70:	40102f1a 	.word	0x40102f1a
     f74:	c49ba5e3 	.word	0xc49ba5e3
     f78:	40103020 	.word	0x40103020
     f7c:	e978d4fe 	.word	0xe978d4fe
     f80:	40103126 	.word	0x40103126
     f84:	0e560419 	.word	0x0e560419
     f88:	4010322d 	.word	0x4010322d
     f8c:	33333333 	.word	0x33333333
     f90:	40103333 	.word	0x40103333
     f94:	5810624e 	.word	0x5810624e
     f98:	40103439 	.word	0x40103439
     f9c:	7ced9168 	.word	0x7ced9168
     fa0:	4010353f 	.word	0x4010353f
     fa4:	a1cac083 	.word	0xa1cac083
     fa8:	40103645 	.word	0x40103645
     fac:	c6a7ef9e 	.word	0xc6a7ef9e
     fb0:	4010374b 	.word	0x4010374b
     fb4:	eb851eb8 	.word	0xeb851eb8
     fb8:	40103851 	.word	0x40103851
     fbc:	10624dd3 	.word	0x10624dd3
     fc0:	40103958 	.word	0x40103958
     fc4:	353f7cee 	.word	0x353f7cee
     fc8:	40103a5e 	.word	0x40103a5e
     fcc:	5a1cac08 	.word	0x5a1cac08
     fd0:	40103b64 	.word	0x40103b64
     fd4:	7ef9db23 	.word	0x7ef9db23
     fd8:	40103c6a 	.word	0x40103c6a
     fdc:	a3d70a3d 	.word	0xa3d70a3d
     fe0:	40103d70 	.word	0x40103d70
     fe4:	c8b43958 	.word	0xc8b43958
     fe8:	40103e76 	.word	0x40103e76
     fec:	ed916873 	.word	0xed916873
     ff0:	40103f7c 	.word	0x40103f7c
     ff4:	126e978d 	.word	0x126e978d
     ff8:	40104083 	.word	0x40104083
     ffc:	374bc6a8 	.word	0x374bc6a8
    1000:	40104189 	.word	0x40104189
    1004:	5c28f5c3 	.word	0x5c28f5c3
    1008:	4010428f 	.word	0x4010428f
    100c:	810624dd 	.word	0x810624dd
    1010:	40104395 	.word	0x40104395
    1014:	a5e353f8 	.word	0xa5e353f8
    1018:	4010449b 	.word	0x4010449b
    101c:	cac08312 	.word	0xcac08312
    1020:	401045a1 	.word	0x401045a1
    1024:	ef9db22d 	.word	0xef9db22d
    1028:	401046a7 	.word	0x401046a7
    102c:	147ae148 	.word	0x147ae148
    1030:	401047ae 	.word	0x401047ae
    1034:	39581062 	.word	0x39581062
    1038:	401048b4 	.word	0x401048b4
    103c:	5e353f7d 	.word	0x5e353f7d
    1040:	401049ba 	.word	0x401049ba
    1044:	83126e98 	.word	0x83126e98
    1048:	40104ac0 	.word	0x40104ac0
    104c:	a7ef9db2 	.word	0xa7ef9db2
    1050:	40104bc6 	.word	0x40104bc6
    1054:	cccccccd 	.word	0xcccccccd
    1058:	40104ccc 	.word	0x40104ccc
    105c:	f1a9fbe7 	.word	0xf1a9fbe7
    1060:	40104dd2 	.word	0x40104dd2
    1064:	16872b02 	.word	0x16872b02
    1068:	40104ed9 	.word	0x40104ed9
    106c:	3b645a1d 	.word	0x3b645a1d
    1070:	40104fdf 	.word	0x40104fdf
    1074:	60418937 	.word	0x60418937
    1078:	401050e5 	.word	0x401050e5
    107c:	851eb852 	.word	0x851eb852
    1080:	401051eb 	.word	0x401051eb
    1084:	a9fbe76d 	.word	0xa9fbe76d
    1088:	401052f1 	.word	0x401052f1
    108c:	ced91687 	.word	0xced91687
    1090:	401053f7 	.word	0x401053f7
    1094:	f3b645a2 	.word	0xf3b645a2
    1098:	401054fd 	.word	0x401054fd
    109c:	189374bc 	.word	0x189374bc
    10a0:	40105604 	.word	0x40105604
    10a4:	3d70a3d7 	.word	0x3d70a3d7
    10a8:	4010570a 	.word	0x4010570a
    10ac:	624dd2f2 	.word	0x624dd2f2
    10b0:	40105810 	.word	0x40105810
    10b4:	872b020c 	.word	0x872b020c
    10b8:	40105916 	.word	0x40105916
    10bc:	ac083127 	.word	0xac083127
    10c0:	40105a1c 	.word	0x40105a1c
    10c4:	d0e56042 	.word	0xd0e56042
    10c8:	40105b22 	.word	0x40105b22
    10cc:	f5c28f5c 	.word	0xf5c28f5c
    10d0:	40105c28 	.word	0x40105c28
    10d4:	1a9fbe77 	.word	0x1a9fbe77
    10d8:	40105d2f 	.word	0x40105d2f
    10dc:	3f7ced91 	.word	0x3f7ced91
    10e0:	40105e35 	.word	0x40105e35
    10e4:	645a1cac 	.word	0x645a1cac
    10e8:	40105f3b 	.word	0x40105f3b
    10ec:	89374bc7 	.word	0x89374bc7
    10f0:	40106041 	.word	0x40106041
    10f4:	ae147ae1 	.word	0xae147ae1
    10f8:	40106147 	.word	0x40106147
    10fc:	d2f1a9fc 	.word	0xd2f1a9fc
    1100:	4010624d 	.word	0x4010624d
    1104:	f7ced917 	.word	0xf7ced917
    1108:	40106353 	.word	0x40106353
    110c:	1cac0831 	.word	0x1cac0831
    1110:	4010645a 	.word	0x4010645a
    1114:	4189374c 	.word	0x4189374c
    1118:	40106560 	.word	0x40106560
    111c:	66666666 	.word	0x66666666
    1120:	40106666 	.word	0x40106666
    1124:	8b439581 	.word	0x8b439581
    1128:	4010676c 	.word	0x4010676c
    112c:	b020c49c 	.word	0xb020c49c
    1130:	40106872 	.word	0x40106872
    1134:	d4fdf3b6 	.word	0xd4fdf3b6
    1138:	40106978 	.word	0x40106978
    113c:	f9db22d1 	.word	0xf9db22d1
    1140:	40106a7e 	.word	0x40106a7e
    1144:	1eb851ec 	.word	0x1eb851ec
    1148:	40106b85 	.word	0x40106b85
    114c:	43958106 	.word	0x43958106
    1150:	40106c8b 	.word	0x40106c8b
    1154:	6872b021 	.word	0x6872b021
    1158:	40106d91 	.word	0x40106d91
    115c:	8d4fdf3b 	.word	0x8d4fdf3b
    1160:	40106e97 	.word	0x40106e97
    1164:	b22d0e56 	.word	0xb22d0e56
    1168:	40106f9d 	.word	0x40106f9d
    116c:	d70a3d71 	.word	0xd70a3d71
    1170:	401070a3 	.word	0x401070a3
    1174:	fbe76c8b 	.word	0xfbe76c8b
    1178:	401071a9 	.word	0x401071a9
    117c:	20c49ba6 	.word	0x20c49ba6
    1180:	401072b0 	.word	0x401072b0
    1184:	45a1cac1 	.word	0x45a1cac1
    1188:	401073b6 	.word	0x401073b6
    118c:	6a7ef9db 	.word	0x6a7ef9db
    1190:	401074bc 	.word	0x401074bc
    1194:	8f5c28f6 	.word	0x8f5c28f6
    1198:	401075c2 	.word	0x401075c2
    119c:	b4395810 	.word	0xb4395810
    11a0:	401076c8 	.word	0x401076c8
    11a4:	d916872b 	.word	0xd916872b
    11a8:	401077ce 	.word	0x401077ce
    11ac:	fdf3b646 	.word	0xfdf3b646
    11b0:	401078d4 	.word	0x401078d4
    11b4:	22d0e560 	.word	0x22d0e560
    11b8:	401079db 	.word	0x401079db
    11bc:	47ae147b 	.word	0x47ae147b
    11c0:	40107ae1 	.word	0x40107ae1
    11c4:	6c8b4396 	.word	0x6c8b4396
    11c8:	40107be7 	.word	0x40107be7
    11cc:	916872b0 	.word	0x916872b0
    11d0:	40107ced 	.word	0x40107ced
    11d4:	b645a1cb 	.word	0xb645a1cb
    11d8:	40107df3 	.word	0x40107df3
    11dc:	db22d0e5 	.word	0xdb22d0e5
    11e0:	40107ef9 	.word	0x40107ef9
    11e4:	00000000 	.word	0x00000000
    11e8:	40108000 	.word	0x40108000
    11ec:	24dd2f1b 	.word	0x24dd2f1b
    11f0:	40108106 	.word	0x40108106
    11f4:	49ba5e35 	.word	0x49ba5e35
    11f8:	4010820c 	.word	0x4010820c
    11fc:	6e978d50 	.word	0x6e978d50
    1200:	40108312 	.word	0x40108312
    1204:	24dd2f1b 	.word	0x24dd2f1b
    1208:	40140106 	.word	0x40140106
    120c:	49ba5e35 	.word	0x49ba5e35
    1210:	4014020c 	.word	0x4014020c
    1214:	6e978d50 	.word	0x6e978d50
    1218:	40140312 	.word	0x40140312
    121c:	9374bc6a 	.word	0x9374bc6a
    1220:	40140418 	.word	0x40140418
    1224:	b851eb85 	.word	0xb851eb85
    1228:	4014051e 	.word	0x4014051e
    122c:	dd2f1aa0 	.word	0xdd2f1aa0
    1230:	40140624 	.word	0x40140624
    1234:	020c49ba 	.word	0x020c49ba
    1238:	4014072b 	.word	0x4014072b
    123c:	26e978d5 	.word	0x26e978d5
    1240:	40140831 	.word	0x40140831
    1244:	4bc6a7f0 	.word	0x4bc6a7f0
    1248:	40140937 	.word	0x40140937
    124c:	70a3d70a 	.word	0x70a3d70a
    1250:	40140a3d 	.word	0x40140a3d
    1254:	95810625 	.word	0x95810625
    1258:	40140b43 	.word	0x40140b43
    125c:	ba5e353f 	.word	0xba5e353f
    1260:	40140c49 	.word	0x40140c49
    1264:	df3b645a 	.word	0xdf3b645a
    1268:	40140d4f 	.word	0x40140d4f
    126c:	04189375 	.word	0x04189375
    1270:	40140e56 	.word	0x40140e56
    1274:	28f5c28f 	.word	0x28f5c28f
    1278:	40140f5c 	.word	0x40140f5c
    127c:	4dd2f1aa 	.word	0x4dd2f1aa
    1280:	40141062 	.word	0x40141062
    1284:	72b020c5 	.word	0x72b020c5
    1288:	40141168 	.word	0x40141168
    128c:	978d4fdf 	.word	0x978d4fdf
    1290:	4014126e 	.word	0x4014126e
    1294:	bc6a7efa 	.word	0xbc6a7efa
    1298:	40141374 	.word	0x40141374
    129c:	e147ae14 	.word	0xe147ae14
    12a0:	4014147a 	.word	0x4014147a
    12a4:	0624dd2f 	.word	0x0624dd2f
    12a8:	40141581 	.word	0x40141581
    12ac:	2b020c4a 	.word	0x2b020c4a
    12b0:	40141687 	.word	0x40141687
    12b4:	4fdf3b64 	.word	0x4fdf3b64
    12b8:	4014178d 	.word	0x4014178d
    12bc:	74bc6a7f 	.word	0x74bc6a7f
    12c0:	40141893 	.word	0x40141893
    12c4:	9999999a 	.word	0x9999999a
    12c8:	40141999 	.word	0x40141999
    12cc:	be76c8b4 	.word	0xbe76c8b4
    12d0:	40141a9f 	.word	0x40141a9f
    12d4:	e353f7cf 	.word	0xe353f7cf
    12d8:	40141ba5 	.word	0x40141ba5
    12dc:	083126e9 	.word	0x083126e9
    12e0:	40141cac 	.word	0x40141cac
    12e4:	2d0e5604 	.word	0x2d0e5604
    12e8:	40141db2 	.word	0x40141db2
    12ec:	51eb851f 	.word	0x51eb851f
    12f0:	40141eb8 	.word	0x40141eb8
    12f4:	76c8b439 	.word	0x76c8b439
    12f8:	40141fbe 	.word	0x40141fbe
    12fc:	9ba5e354 	.word	0x9ba5e354
    1300:	401420c4 	.word	0x401420c4
    1304:	c083126f 	.word	0xc083126f
    1308:	401421ca 	.word	0x401421ca
    130c:	e5604189 	.word	0xe5604189
    1310:	401422d0 	.word	0x401422d0
    1314:	0a3d70a4 	.word	0x0a3d70a4
    1318:	401423d7 	.word	0x401423d7
    131c:	2f1a9fbe 	.word	0x2f1a9fbe
    1320:	401424dd 	.word	0x401424dd
    1324:	53f7ced9 	.word	0x53f7ced9
    1328:	401425e3 	.word	0x401425e3
    132c:	78d4fdf4 	.word	0x78d4fdf4
    1330:	401426e9 	.word	0x401426e9
    1334:	9db22d0e 	.word	0x9db22d0e
    1338:	401427ef 	.word	0x401427ef
    133c:	c28f5c29 	.word	0xc28f5c29
    1340:	401428f5 	.word	0x401428f5
    1344:	e76c8b44 	.word	0xe76c8b44
    1348:	401429fb 	.word	0x401429fb
    134c:	0c49ba5e 	.word	0x0c49ba5e
    1350:	40142b02 	.word	0x40142b02
    1354:	3126e979 	.word	0x3126e979
    1358:	40142c08 	.word	0x40142c08
    135c:	56041893 	.word	0x56041893
    1360:	40142d0e 	.word	0x40142d0e
    1364:	7ae147ae 	.word	0x7ae147ae
    1368:	40142e14 	.word	0x40142e14
    136c:	9fbe76c9 	.word	0x9fbe76c9
    1370:	40142f1a 	.word	0x40142f1a
    1374:	c49ba5e3 	.word	0xc49ba5e3
    1378:	40143020 	.word	0x40143020
    137c:	e978d4fe 	.word	0xe978d4fe
    1380:	40143126 	.word	0x40143126
    1384:	0e560419 	.word	0x0e560419
    1388:	4014322d 	.word	0x4014322d
    138c:	33333333 	.word	0x33333333
    1390:	40143333 	.word	0x40143333
    1394:	5810624e 	.word	0x5810624e
    1398:	40143439 	.word	0x40143439
    139c:	7ced9168 	.word	0x7ced9168
    13a0:	4014353f 	.word	0x4014353f
    13a4:	a1cac083 	.word	0xa1cac083
    13a8:	40143645 	.word	0x40143645
    13ac:	c6a7ef9e 	.word	0xc6a7ef9e
    13b0:	4014374b 	.word	0x4014374b
    13b4:	eb851eb8 	.word	0xeb851eb8
    13b8:	40143851 	.word	0x40143851
    13bc:	10624dd3 	.word	0x10624dd3
    13c0:	40143958 	.word	0x40143958
    13c4:	353f7cee 	.word	0x353f7cee
    13c8:	40143a5e 	.word	0x40143a5e
    13cc:	5a1cac08 	.word	0x5a1cac08
    13d0:	40143b64 	.word	0x40143b64
    13d4:	7ef9db23 	.word	0x7ef9db23
    13d8:	40143c6a 	.word	0x40143c6a
    13dc:	a3d70a3d 	.word	0xa3d70a3d
    13e0:	40143d70 	.word	0x40143d70
    13e4:	c8b43958 	.word	0xc8b43958
    13e8:	40143e76 	.word	0x40143e76
    13ec:	ed916873 	.word	0xed916873
    13f0:	40143f7c 	.word	0x40143f7c
    13f4:	126e978d 	.word	0x126e978d
    13f8:	40144083 	.word	0x40144083
    13fc:	374bc6a8 	.word	0x374bc6a8
    1400:	40144189 	.word	0x40144189
    1404:	5c28f5c3 	.word	0x5c28f5c3
    1408:	4014428f 	.word	0x4014428f
    140c:	810624dd 	.word	0x810624dd
    1410:	40144395 	.word	0x40144395
    1414:	a5e353f8 	.word	0xa5e353f8
    1418:	4014449b 	.word	0x4014449b
    141c:	cac08312 	.word	0xcac08312
    1420:	401445a1 	.word	0x401445a1
    1424:	ef9db22d 	.word	0xef9db22d
    1428:	401446a7 	.word	0x401446a7
    142c:	147ae148 	.word	0x147ae148
    1430:	401447ae 	.word	0x401447ae
    1434:	39581062 	.word	0x39581062
    1438:	401448b4 	.word	0x401448b4
    143c:	5e353f7d 	.word	0x5e353f7d
    1440:	401449ba 	.word	0x401449ba
    1444:	83126e98 	.word	0x83126e98
    1448:	40144ac0 	.word	0x40144ac0
    144c:	a7ef9db2 	.word	0xa7ef9db2
    1450:	40144bc6 	.word	0x40144bc6
    1454:	cccccccd 	.word	0xcccccccd
    1458:	40144ccc 	.word	0x40144ccc
    145c:	f1a9fbe7 	.word	0xf1a9fbe7
    1460:	40144dd2 	.word	0x40144dd2
    1464:	16872b02 	.word	0x16872b02
    1468:	40144ed9 	.word	0x40144ed9
    146c:	3b645a1d 	.word	0x3b645a1d
    1470:	40144fdf 	.word	0x40144fdf
    1474:	60418937 	.word	0x60418937
    1478:	401450e5 	.word	0x401450e5
    147c:	851eb852 	.word	0x851eb852
    1480:	401451eb 	.word	0x401451eb
    1484:	a9fbe76d 	.word	0xa9fbe76d
    1488:	401452f1 	.word	0x401452f1
    148c:	ced91687 	.word	0xced91687
    1490:	401453f7 	.word	0x401453f7
    1494:	f3b645a2 	.word	0xf3b645a2
    1498:	401454fd 	.word	0x401454fd
    149c:	189374bc 	.word	0x189374bc
    14a0:	40145604 	.word	0x40145604
    14a4:	3d70a3d7 	.word	0x3d70a3d7
    14a8:	4014570a 	.word	0x4014570a
    14ac:	624dd2f2 	.word	0x624dd2f2
    14b0:	40145810 	.word	0x40145810
    14b4:	872b020c 	.word	0x872b020c
    14b8:	40145916 	.word	0x40145916
    14bc:	ac083127 	.word	0xac083127
    14c0:	40145a1c 	.word	0x40145a1c
    14c4:	d0e56042 	.word	0xd0e56042
    14c8:	40145b22 	.word	0x40145b22
    14cc:	f5c28f5c 	.word	0xf5c28f5c
    14d0:	40145c28 	.word	0x40145c28
    14d4:	1a9fbe77 	.word	0x1a9fbe77
    14d8:	40145d2f 	.word	0x40145d2f
    14dc:	3f7ced91 	.word	0x3f7ced91
    14e0:	40145e35 	.word	0x40145e35
    14e4:	645a1cac 	.word	0x645a1cac
    14e8:	40145f3b 	.word	0x40145f3b
    14ec:	89374bc7 	.word	0x89374bc7
    14f0:	40146041 	.word	0x40146041
    14f4:	ae147ae1 	.word	0xae147ae1
    14f8:	40146147 	.word	0x40146147
    14fc:	d2f1a9fc 	.word	0xd2f1a9fc
    1500:	4014624d 	.word	0x4014624d
    1504:	f7ced917 	.word	0xf7ced917
    1508:	40146353 	.word	0x40146353
    150c:	1cac0831 	.word	0x1cac0831
    1510:	4014645a 	.word	0x4014645a
    1514:	4189374c 	.word	0x4189374c
    1518:	40146560 	.word	0x40146560
    151c:	66666666 	.word	0x66666666
    1520:	40146666 	.word	0x40146666
    1524:	8b439581 	.word	0x8b439581
    1528:	4014676c 	.word	0x4014676c
    152c:	b020c49c 	.word	0xb020c49c
    1530:	40146872 	.word	0x40146872
    1534:	d4fdf3b6 	.word	0xd4fdf3b6
    1538:	40146978 	.word	0x40146978
    153c:	f9db22d1 	.word	0xf9db22d1
    1540:	40146a7e 	.word	0x40146a7e
    1544:	1eb851ec 	.word	0x1eb851ec
    1548:	40146b85 	.word	0x40146b85
    154c:	43958106 	.word	0x43958106
    1550:	40146c8b 	.word	0x40146c8b
    1554:	6872b021 	.word	0x6872b021
    1558:	40146d91 	.word	0x40146d91
    155c:	8d4fdf3b 	.word	0x8d4fdf3b
    1560:	40146e97 	.word	0x40146e97
    1564:	b22d0e56 	.word	0xb22d0e56
    1568:	40146f9d 	.word	0x40146f9d
    156c:	d70a3d71 	.word	0xd70a3d71
    1570:	401470a3 	.word	0x401470a3
    1574:	fbe76c8b 	.word	0xfbe76c8b
    1578:	401471a9 	.word	0x401471a9
    157c:	20c49ba6 	.word	0x20c49ba6
    1580:	401472b0 	.word	0x401472b0
    1584:	45a1cac1 	.word	0x45a1cac1
    1588:	401473b6 	.word	0x401473b6
    158c:	6a7ef9db 	.word	0x6a7ef9db
    1590:	401474bc 	.word	0x401474bc
    1594:	8f5c28f6 	.word	0x8f5c28f6
    1598:	401475c2 	.word	0x401475c2
    159c:	b4395810 	.word	0xb4395810
    15a0:	401476c8 	.word	0x401476c8
    15a4:	d916872b 	.word	0xd916872b
    15a8:	401477ce 	.word	0x401477ce
    15ac:	fdf3b646 	.word	0xfdf3b646
    15b0:	401478d4 	.word	0x401478d4
    15b4:	22d0e560 	.word	0x22d0e560
    15b8:	401479db 	.word	0x401479db
    15bc:	47ae147b 	.word	0x47ae147b
    15c0:	40147ae1 	.word	0x40147ae1
    15c4:	6c8b4396 	.word	0x6c8b4396
    15c8:	40147be7 	.word	0x40147be7
    15cc:	916872b0 	.word	0x916872b0
    15d0:	40147ced 	.word	0x40147ced
    15d4:	b645a1cb 	.word	0xb645a1cb
    15d8:	40147df3 	.word	0x40147df3
    15dc:	db22d0e5 	.word	0xdb22d0e5
    15e0:	40147ef9 	.word	0x40147ef9
    15e4:	00000000 	.word	0x00000000
    15e8:	40148000 	.word	0x40148000
    15ec:	24dd2f1b 	.word	0x24dd2f1b
    15f0:	40148106 	.word	0x40148106
    15f4:	49ba5e35 	.word	0x49ba5e35
    15f8:	4014820c 	.word	0x4014820c
    15fc:	6e978d50 	.word	0x6e978d50
    1600:	40148312 	.word	0x40148312
    1604:	24dd2f1b 	.word	0x24dd2f1b
    1608:	40180106 	.word	0x40180106
    160c:	49ba5e35 	.word	0x49ba5e35
    1610:	4018020c 	.word	0x4018020c
    1614:	6e978d50 	.word	0x6e978d50
    1618:	40180312 	.word	0x40180312
    161c:	9374bc6a 	.word	0x9374bc6a
    1620:	40180418 	.word	0x40180418
    1624:	b851eb85 	.word	0xb851eb85
    1628:	4018051e 	.word	0x4018051e
    162c:	dd2f1aa0 	.word	0xdd2f1aa0
    1630:	40180624 	.word	0x40180624
    1634:	020c49ba 	.word	0x020c49ba
    1638:	4018072b 	.word	0x4018072b
    163c:	26e978d5 	.word	0x26e978d5
    1640:	40180831 	.word	0x40180831
    1644:	4bc6a7f0 	.word	0x4bc6a7f0
    1648:	40180937 	.word	0x40180937
    164c:	70a3d70a 	.word	0x70a3d70a
    1650:	40180a3d 	.word	0x40180a3d
    1654:	95810625 	.word	0x95810625
    1658:	40180b43 	.word	0x40180b43
    165c:	ba5e353f 	.word	0xba5e353f
    1660:	40180c49 	.word	0x40180c49
    1664:	df3b645a 	.word	0xdf3b645a
    1668:	40180d4f 	.word	0x40180d4f
    166c:	04189375 	.word	0x04189375
    1670:	40180e56 	.word	0x40180e56
    1674:	28f5c28f 	.word	0x28f5c28f
    1678:	40180f5c 	.word	0x40180f5c
    167c:	4dd2f1aa 	.word	0x4dd2f1aa
    1680:	40181062 	.word	0x40181062
    1684:	72b020c5 	.word	0x72b020c5
    1688:	40181168 	.word	0x40181168
    168c:	978d4fdf 	.word	0x978d4fdf
    1690:	4018126e 	.word	0x4018126e
    1694:	bc6a7efa 	.word	0xbc6a7efa
    1698:	40181374 	.word	0x40181374
    169c:	e147ae14 	.word	0xe147ae14
    16a0:	4018147a 	.word	0x4018147a
    16a4:	0624dd2f 	.word	0x0624dd2f
    16a8:	40181581 	.word	0x40181581
    16ac:	2b020c4a 	.word	0x2b020c4a
    16b0:	40181687 	.word	0x40181687
    16b4:	4fdf3b64 	.word	0x4fdf3b64
    16b8:	4018178d 	.word	0x4018178d
    16bc:	74bc6a7f 	.word	0x74bc6a7f
    16c0:	40181893 	.word	0x40181893
    16c4:	9999999a 	.word	0x9999999a
    16c8:	40181999 	.word	0x40181999
    16cc:	be76c8b4 	.word	0xbe76c8b4
    16d0:	40181a9f 	.word	0x40181a9f
    16d4:	e353f7cf 	.word	0xe353f7cf
    16d8:	40181ba5 	.word	0x40181ba5
    16dc:	083126e9 	.word	0x083126e9
    16e0:	40181cac 	.word	0x40181cac
    16e4:	2d0e5604 	.word	0x2d0e5604
    16e8:	40181db2 	.word	0x40181db2
    16ec:	51eb851f 	.word	0x51eb851f
    16f0:	40181eb8 	.word	0x40181eb8
    16f4:	76c8b439 	.word	0x76c8b439
    16f8:	40181fbe 	.word	0x40181fbe
    16fc:	9ba5e354 	.word	0x9ba5e354
    1700:	401820c4 	.word	0x401820c4
    1704:	c083126f 	.word	0xc083126f
    1708:	401821ca 	.word	0x401821ca
    170c:	e5604189 	.word	0xe5604189
    1710:	401822d0 	.word	0x401822d0
    1714:	0a3d70a4 	.word	0x0a3d70a4
    1718:	401823d7 	.word	0x401823d7
    171c:	2f1a9fbe 	.word	0x2f1a9fbe
    1720:	401824dd 	.word	0x401824dd
    1724:	53f7ced9 	.word	0x53f7ced9
    1728:	401825e3 	.word	0x401825e3
    172c:	78d4fdf4 	.word	0x78d4fdf4
    1730:	401826e9 	.word	0x401826e9
    1734:	9db22d0e 	.word	0x9db22d0e
    1738:	401827ef 	.word	0x401827ef
    173c:	c28f5c29 	.word	0xc28f5c29
    1740:	401828f5 	.word	0x401828f5
    1744:	e76c8b44 	.word	0xe76c8b44
    1748:	401829fb 	.word	0x401829fb
    174c:	0c49ba5e 	.word	0x0c49ba5e
    1750:	40182b02 	.word	0x40182b02
    1754:	3126e979 	.word	0x3126e979
    1758:	40182c08 	.word	0x40182c08
    175c:	56041893 	.word	0x56041893
    1760:	40182d0e 	.word	0x40182d0e
    1764:	7ae147ae 	.word	0x7ae147ae
    1768:	40182e14 	.word	0x40182e14
    176c:	9fbe76c9 	.word	0x9fbe76c9
    1770:	40182f1a 	.word	0x40182f1a
    1774:	c49ba5e3 	.word	0xc49ba5e3
    1778:	40183020 	.word	0x40183020
    177c:	e978d4fe 	.word	0xe978d4fe
    1780:	40183126 	.word	0x40183126
    1784:	0e560419 	.word	0x0e560419
    1788:	4018322d 	.word	0x4018322d
    178c:	33333333 	.word	0x33333333
    1790:	40183333 	.word	0x40183333
    1794:	5810624e 	.word	0x5810624e
    1798:	40183439 	.word	0x40183439
    179c:	7ced9168 	.word	0x7ced9168
    17a0:	4018353f 	.word	0x4018353f
    17a4:	a1cac083 	.word	0xa1cac083
    17a8:	40183645 	.word	0x40183645
    17ac:	c6a7ef9e 	.word	0xc6a7ef9e
    17b0:	4018374b 	.word	0x4018374b
    17b4:	eb851eb8 	.word	0xeb851eb8
    17b8:	40183851 	.word	0x40183851
    17bc:	10624dd3 	.word	0x10624dd3
    17c0:	40183958 	.word	0x40183958
    17c4:	353f7cee 	.word	0x353f7cee
    17c8:	40183a5e 	.word	0x40183a5e
    17cc:	5a1cac08 	.word	0x5a1cac08
    17d0:	40183b64 	.word	0x40183b64
    17d4:	7ef9db23 	.word	0x7ef9db23
    17d8:	40183c6a 	.word	0x40183c6a
    17dc:	a3d70a3d 	.word	0xa3d70a3d
    17e0:	40183d70 	.word	0x40183d70
    17e4:	c8b43958 	.word	0xc8b43958
    17e8:	40183e76 	.word	0x40183e76
    17ec:	ed916873 	.word	0xed916873
    17f0:	40183f7c 	.word	0x40183f7c
    17f4:	126e978d 	.word	0x126e978d
    17f8:	40184083 	.word	0x40184083
    17fc:	374bc6a8 	.word	0x374bc6a8
    1800:	40184189 	.word	0x40184189
    1804:	5c28f5c3 	.word	0x5c28f5c3
    1808:	4018428f 	.word	0x4018428f
    180c:	810624dd 	.word	0x810624dd
    1810:	40184395 	.word	0x40184395
    1814:	a5e353f8 	.word	0xa5e353f8
    1818:	4018449b 	.word	0x4018449b
    181c:	cac08312 	.word	0xcac08312
    1820:	401845a1 	.word	0x401845a1
    1824:	ef9db22d 	.word	0xef9db22d
    1828:	401846a7 	.word	0x401846a7
    182c:	147ae148 	.word	0x147ae148
    1830:	401847ae 	.word	0x401847ae
    1834:	39581062 	.word	0x39581062
    1838:	401848b4 	.word	0x401848b4
    183c:	5e353f7d 	.word	0x5e353f7d
    1840:	401849ba 	.word	0x401849ba
    1844:	83126e98 	.word	0x83126e98
    1848:	40184ac0 	.word	0x40184ac0
    184c:	a7ef9db2 	.word	0xa7ef9db2
    1850:	40184bc6 	.word	0x40184bc6
    1854:	cccccccd 	.word	0xcccccccd
    1858:	40184ccc 	.word	0x40184ccc
    185c:	f1a9fbe7 	.word	0xf1a9fbe7
    1860:	40184dd2 	.word	0x40184dd2
    1864:	16872b02 	.word	0x16872b02
    1868:	40184ed9 	.word	0x40184ed9
    186c:	3b645a1d 	.word	0x3b645a1d
    1870:	40184fdf 	.word	0x40184fdf
    1874:	60418937 	.word	0x60418937
    1878:	401850e5 	.word	0x401850e5
    187c:	851eb852 	.word	0x851eb852
    1880:	401851eb 	.word	0x401851eb
    1884:	a9fbe76d 	.word	0xa9fbe76d
    1888:	401852f1 	.word	0x401852f1
    188c:	ced91687 	.word	0xced91687
    1890:	401853f7 	.word	0x401853f7
    1894:	f3b645a2 	.word	0xf3b645a2
    1898:	401854fd 	.word	0x401854fd
    189c:	189374bc 	.word	0x189374bc
    18a0:	40185604 	.word	0x40185604
    18a4:	3d70a3d7 	.word	0x3d70a3d7
    18a8:	4018570a 	.word	0x4018570a
    18ac:	624dd2f2 	.word	0x624dd2f2
    18b0:	40185810 	.word	0x40185810
    18b4:	872b020c 	.word	0x872b020c
    18b8:	40185916 	.word	0x40185916
    18bc:	ac083127 	.word	0xac083127
    18c0:	40185a1c 	.word	0x40185a1c
    18c4:	d0e56042 	.word	0xd0e56042
    18c8:	40185b22 	.word	0x40185b22
    18cc:	f5c28f5c 	.word	0xf5c28f5c
    18d0:	40185c28 	.word	0x40185c28
    18d4:	1a9fbe77 	.word	0x1a9fbe77
    18d8:	40185d2f 	.word	0x40185d2f
    18dc:	3f7ced91 	.word	0x3f7ced91
    18e0:	40185e35 	.word	0x40185e35
    18e4:	645a1cac 	.word	0x645a1cac
    18e8:	40185f3b 	.word	0x40185f3b
    18ec:	89374bc7 	.word	0x89374bc7
    18f0:	40186041 	.word	0x40186041
    18f4:	ae147ae1 	.word	0xae147ae1
    18f8:	40186147 	.word	0x40186147
    18fc:	d2f1a9fc 	.word	0xd2f1a9fc
    1900:	4018624d 	.word	0x4018624d
    1904:	f7ced917 	.word	0xf7ced917
    1908:	40186353 	.word	0x40186353
    190c:	1cac0831 	.word	0x1cac0831
    1910:	4018645a 	.word	0x4018645a
    1914:	4189374c 	.word	0x4189374c
    1918:	40186560 	.word	0x40186560
    191c:	66666666 	.word	0x66666666
    1920:	40186666 	.word	0x40186666
    1924:	8b439581 	.word	0x8b439581
    1928:	4018676c 	.word	0x4018676c
    192c:	b020c49c 	.word	0xb020c49c
    1930:	40186872 	.word	0x40186872
    1934:	d4fdf3b6 	.word	0xd4fdf3b6
    1938:	40186978 	.word	0x40186978
    193c:	f9db22d1 	.word	0xf9db22d1
    1940:	40186a7e 	.word	0x40186a7e
    1944:	1eb851ec 	.word	0x1eb851ec
    1948:	40186b85 	.word	0x40186b85
    194c:	43958106 	.word	0x43958106
    1950:	40186c8b 	.word	0x40186c8b
    1954:	6872b021 	.word	0x6872b021
    1958:	40186d91 	.word	0x40186d91
    195c:	8d4fdf3b 	.word	0x8d4fdf3b
    1960:	40186e97 	.word	0x40186e97
    1964:	b22d0e56 	.word	0xb22d0e56
    1968:	40186f9d 	.word	0x40186f9d
    196c:	d70a3d71 	.word	0xd70a3d71
    1970:	401870a3 	.word	0x401870a3
    1974:	fbe76c8b 	.word	0xfbe76c8b
    1978:	401871a9 	.word	0x401871a9
    197c:	20c49ba6 	.word	0x20c49ba6
    1980:	401872b0 	.word	0x401872b0
    1984:	45a1cac1 	.word	0x45a1cac1
    1988:	401873b6 	.word	0x401873b6
    198c:	6a7ef9db 	.word	0x6a7ef9db
    1990:	401874bc 	.word	0x401874bc
    1994:	8f5c28f6 	.word	0x8f5c28f6
    1998:	401875c2 	.word	0x401875c2
    199c:	b4395810 	.word	0xb4395810
    19a0:	401876c8 	.word	0x401876c8
    19a4:	d916872b 	.word	0xd916872b
    19a8:	401877ce 	.word	0x401877ce
    19ac:	fdf3b646 	.word	0xfdf3b646
    19b0:	401878d4 	.word	0x401878d4
    19b4:	22d0e560 	.word	0x22d0e560
    19b8:	401879db 	.word	0x401879db
    19bc:	47ae147b 	.word	0x47ae147b
    19c0:	40187ae1 	.word	0x40187ae1
    19c4:	6c8b4396 	.word	0x6c8b4396
    19c8:	40187be7 	.word	0x40187be7
    19cc:	916872b0 	.word	0x916872b0
    19d0:	40187ced 	.word	0x40187ced
    19d4:	b645a1cb 	.word	0xb645a1cb
    19d8:	40187df3 	.word	0x40187df3
    19dc:	db22d0e5 	.word	0xdb22d0e5
    19e0:	40187ef9 	.word	0x40187ef9
    19e4:	00000000 	.word	0x00000000
    19e8:	40188000 	.word	0x40188000
    19ec:	24dd2f1b 	.word	0x24dd2f1b
    19f0:	40188106 	.word	0x40188106
    19f4:	49ba5e35 	.word	0x49ba5e35
    19f8:	4018820c 	.word	0x4018820c
    19fc:	6e978d50 	.word	0x6e978d50
    1a00:	40188312 	.word	0x40188312
    1a04:	24dd2f1b 	.word	0x24dd2f1b
    1a08:	401c0106 	.word	0x401c0106
    1a0c:	49ba5e35 	.word	0x49ba5e35
    1a10:	401c020c 	.word	0x401c020c
    1a14:	6e978d50 	.word	0x6e978d50
    1a18:	401c0312 	.word	0x401c0312
    1a1c:	9374bc6a 	.word	0x9374bc6a
    1a20:	401c0418 	.word	0x401c0418
    1a24:	b851eb85 	.word	0xb851eb85
    1a28:	401c051e 	.word	0x401c051e
    1a2c:	dd2f1aa0 	.word	0xdd2f1aa0
    1a30:	401c0624 	.word	0x401c0624
    1a34:	020c49ba 	.word	0x020c49ba
    1a38:	401c072b 	.word	0x401c072b
    1a3c:	26e978d5 	.word	0x26e978d5
    1a40:	401c0831 	.word	0x401c0831
    1a44:	4bc6a7f0 	.word	0x4bc6a7f0
    1a48:	401c0937 	.word	0x401c0937
    1a4c:	70a3d70a 	.word	0x70a3d70a
    1a50:	401c0a3d 	.word	0x401c0a3d
    1a54:	95810625 	.word	0x95810625
    1a58:	401c0b43 	.word	0x401c0b43
    1a5c:	ba5e353f 	.word	0xba5e353f
    1a60:	401c0c49 	.word	0x401c0c49
    1a64:	df3b645a 	.word	0xdf3b645a
    1a68:	401c0d4f 	.word	0x401c0d4f
    1a6c:	04189375 	.word	0x04189375
    1a70:	401c0e56 	.word	0x401c0e56
    1a74:	28f5c28f 	.word	0x28f5c28f
    1a78:	401c0f5c 	.word	0x401c0f5c
    1a7c:	4dd2f1aa 	.word	0x4dd2f1aa
    1a80:	401c1062 	.word	0x401c1062
    1a84:	72b020c5 	.word	0x72b020c5
    1a88:	401c1168 	.word	0x401c1168
    1a8c:	978d4fdf 	.word	0x978d4fdf
    1a90:	401c126e 	.word	0x401c126e
    1a94:	bc6a7efa 	.word	0xbc6a7efa
    1a98:	401c1374 	.word	0x401c1374
    1a9c:	e147ae14 	.word	0xe147ae14
    1aa0:	401c147a 	.word	0x401c147a
    1aa4:	0624dd2f 	.word	0x0624dd2f
    1aa8:	401c1581 	.word	0x401c1581
    1aac:	2b020c4a 	.word	0x2b020c4a
    1ab0:	401c1687 	.word	0x401c1687
    1ab4:	4fdf3b64 	.word	0x4fdf3b64
    1ab8:	401c178d 	.word	0x401c178d
    1abc:	74bc6a7f 	.word	0x74bc6a7f
    1ac0:	401c1893 	.word	0x401c1893
    1ac4:	9999999a 	.word	0x9999999a
    1ac8:	401c1999 	.word	0x401c1999
    1acc:	be76c8b4 	.word	0xbe76c8b4
    1ad0:	401c1a9f 	.word	0x401c1a9f
    1ad4:	e353f7cf 	.word	0xe353f7cf
    1ad8:	401c1ba5 	.word	0x401c1ba5
    1adc:	083126e9 	.word	0x083126e9
    1ae0:	401c1cac 	.word	0x401c1cac
    1ae4:	2d0e5604 	.word	0x2d0e5604
    1ae8:	401c1db2 	.word	0x401c1db2
    1aec:	51eb851f 	.word	0x51eb851f
    1af0:	401c1eb8 	.word	0x401c1eb8
    1af4:	76c8b439 	.word	0x76c8b439
    1af8:	401c1fbe 	.word	0x401c1fbe
    1afc:	9ba5e354 	.word	0x9ba5e354
    1b00:	401c20c4 	.word	0x401c20c4
    1b04:	c083126f 	.word	0xc083126f
    1b08:	401c21ca 	.word	0x401c21ca
    1b0c:	e5604189 	.word	0xe5604189
    1b10:	401c22d0 	.word	0x401c22d0
    1b14:	0a3d70a4 	.word	0x0a3d70a4
    1b18:	401c23d7 	.word	0x401c23d7
    1b1c:	2f1a9fbe 	.word	0x2f1a9fbe
    1b20:	401c24dd 	.word	0x401c24dd
    1b24:	53f7ced9 	.word	0x53f7ced9
    1b28:	401c25e3 	.word	0x401c25e3
    1b2c:	78d4fdf4 	.word	0x78d4fdf4
    1b30:	401c26e9 	.word	0x401c26e9
    1b34:	9db22d0e 	.word	0x9db22d0e
    1b38:	401c27ef 	.word	0x401c27ef
    1b3c:	c28f5c29 	.word	0xc28f5c29
    1b40:	401c28f5 	.word	0x401c28f5
    1b44:	e76c8b44 	.word	0xe76c8b44
    1b48:	401c29fb 	.word	0x401c29fb
    1b4c:	0c49ba5e 	.word	0x0c49ba5e
    1b50:	401c2b02 	.word	0x401c2b02
    1b54:	3126e979 	.word	0x3126e979
    1b58:	401c2c08 	.word	0x401c2c08
    1b5c:	56041893 	.word	0x56041893
    1b60:	401c2d0e 	.word	0x401c2d0e
    1b64:	7ae147ae 	.word	0x7ae147ae
    1b68:	401c2e14 	.word	0x401c2e14
    1b6c:	9fbe76c9 	.word	0x9fbe76c9
    1b70:	401c2f1a 	.word	0x401c2f1a
    1b74:	c49ba5e3 	.word	0xc49ba5e3
    1b78:	401c3020 	.word	0x401c3020
    1b7c:	e978d4fe 	.word	0xe978d4fe
    1b80:	401c3126 	.word	0x401c3126
    1b84:	0e560419 	.word	0x0e560419
    1b88:	401c322d 	.word	0x401c322d
    1b8c:	33333333 	.word	0x33333333
    1b90:	401c3333 	.word	0x401c3333
    1b94:	5810624e 	.word	0x5810624e
    1b98:	401c3439 	.word	0x401c3439
    1b9c:	7ced9168 	.word	0x7ced9168
    1ba0:	401c353f 	.word	0x401c353f
    1ba4:	a1cac083 	.word	0xa1cac083
    1ba8:	401c3645 	.word	0x401c3645
    1bac:	c6a7ef9e 	.word	0xc6a7ef9e
    1bb0:	401c374b 	.word	0x401c374b
    1bb4:	eb851eb8 	.word	0xeb851eb8
    1bb8:	401c3851 	.word	0x401c3851
    1bbc:	10624dd3 	.word	0x10624dd3
    1bc0:	401c3958 	.word	0x401c3958
    1bc4:	353f7cee 	.word	0x353f7cee
    1bc8:	401c3a5e 	.word	0x401c3a5e
    1bcc:	5a1cac08 	.word	0x5a1cac08
    1bd0:	401c3b64 	.word	0x401c3b64
    1bd4:	7ef9db23 	.word	0x7ef9db23
    1bd8:	401c3c6a 	.word	0x401c3c6a
    1bdc:	a3d70a3d 	.word	0xa3d70a3d
    1be0:	401c3d70 	.word	0x401c3d70
    1be4:	c8b43958 	.word	0xc8b43958
    1be8:	401c3e76 	.word	0x401c3e76
    1bec:	ed916873 	.word	0xed916873
    1bf0:	401c3f7c 	.word	0x401c3f7c
    1bf4:	126e978d 	.word	0x126e978d
    1bf8:	401c4083 	.word	0x401c4083
    1bfc:	374bc6a8 	.word	0x374bc6a8
    1c00:	401c4189 	.word	0x401c4189
    1c04:	5c28f5c3 	.word	0x5c28f5c3
    1c08:	401c428f 	.word	0x401c428f
    1c0c:	810624dd 	.word	0x810624dd
    1c10:	401c4395 	.word	0x401c4395
    1c14:	a5e353f8 	.word	0xa5e353f8
    1c18:	401c449b 	.word	0x401c449b
    1c1c:	cac08312 	.word	0xcac08312
    1c20:	401c45a1 	.word	0x401c45a1
    1c24:	ef9db22d 	.word	0xef9db22d
    1c28:	401c46a7 	.word	0x401c46a7
    1c2c:	147ae148 	.word	0x147ae148
    1c30:	401c47ae 	.word	0x401c47ae
    1c34:	39581062 	.word	0x39581062
    1c38:	401c48b4 	.word	0x401c48b4
    1c3c:	5e353f7d 	.word	0x5e353f7d
    1c40:	401c49ba 	.word	0x401c49ba
    1c44:	83126e98 	.word	0x83126e98
    1c48:	401c4ac0 	.word	0x401c4ac0
    1c4c:	a7ef9db2 	.word	0xa7ef9db2
    1c50:	401c4bc6 	.word	0x401c4bc6
    1c54:	cccccccd 	.word	0xcccccccd
    1c58:	401c4ccc 	.word	0x401c4ccc
    1c5c:	f1a9fbe7 	.word	0xf1a9fbe7
    1c60:	401c4dd2 	.word	0x401c4dd2
    1c64:	16872b02 	.word	0x16872b02
    1c68:	401c4ed9 	.word	0x401c4ed9
    1c6c:	3b645a1d 	.word	0x3b645a1d
    1c70:	401c4fdf 	.word	0x401c4fdf
    1c74:	60418937 	.word	0x60418937
    1c78:	401c50e5 	.word	0x401c50e5
    1c7c:	851eb852 	.word	0x851eb852
    1c80:	401c51eb 	.word	0x401c51eb
    1c84:	a9fbe76d 	.word	0xa9fbe76d
    1c88:	401c52f1 	.word	0x401c52f1
    1c8c:	ced91687 	.word	0xced91687
    1c90:	401c53f7 	.word	0x401c53f7
    1c94:	f3b645a2 	.word	0xf3b645a2
    1c98:	401c54fd 	.word	0x401c54fd
    1c9c:	189374bc 	.word	0x189374bc
    1ca0:	401c5604 	.word	0x401c5604
    1ca4:	3d70a3d7 	.word	0x3d70a3d7
    1ca8:	401c570a 	.word	0x401c570a
    1cac:	624dd2f2 	.word	0x624dd2f2
    1cb0:	401c5810 	.word	0x401c5810
    1cb4:	872b020c 	.word	0x872b020c
    1cb8:	401c5916 	.word	0x401c5916
    1cbc:	ac083127 	.word	0xac083127
    1cc0:	401c5a1c 	.word	0x401c5a1c
    1cc4:	d0e56042 	.word	0xd0e56042
    1cc8:	401c5b22 	.word	0x401c5b22
    1ccc:	f5c28f5c 	.word	0xf5c28f5c
    1cd0:	401c5c28 	.word	0x401c5c28
    1cd4:	1a9fbe77 	.word	0x1a9fbe77
    1cd8:	401c5d2f 	.word	0x401c5d2f
    1cdc:	3f7ced91 	.word	0x3f7ced91
    1ce0:	401c5e35 	.word	0x401c5e35
    1ce4:	645a1cac 	.word	0x645a1cac
    1ce8:	401c5f3b 	.word	0x401c5f3b
    1cec:	89374bc7 	.word	0x89374bc7
    1cf0:	401c6041 	.word	0x401c6041
    1cf4:	ae147ae1 	.word	0xae147ae1
    1cf8:	401c6147 	.word	0x401c6147
    1cfc:	d2f1a9fc 	.word	0xd2f1a9fc
    1d00:	401c624d 	.word	0x401c624d
    1d04:	f7ced917 	.word	0xf7ced917
    1d08:	401c6353 	.word	0x401c6353
    1d0c:	1cac0831 	.word	0x1cac0831
    1d10:	401c645a 	.word	0x401c645a
    1d14:	4189374c 	.word	0x4189374c
    1d18:	401c6560 	.word	0x401c6560
    1d1c:	66666666 	.word	0x66666666
    1d20:	401c6666 	.word	0x401c6666
    1d24:	8b439581 	.word	0x8b439581
    1d28:	401c676c 	.word	0x401c676c
    1d2c:	b020c49c 	.word	0xb020c49c
    1d30:	401c6872 	.word	0x401c6872
    1d34:	d4fdf3b6 	.word	0xd4fdf3b6
    1d38:	401c6978 	.word	0x401c6978
    1d3c:	f9db22d1 	.word	0xf9db22d1
    1d40:	401c6a7e 	.word	0x401c6a7e
    1d44:	1eb851ec 	.word	0x1eb851ec
    1d48:	401c6b85 	.word	0x401c6b85
    1d4c:	43958106 	.word	0x43958106
    1d50:	401c6c8b 	.word	0x401c6c8b
    1d54:	6872b021 	.word	0x6872b021
    1d58:	401c6d91 	.word	0x401c6d91
    1d5c:	8d4fdf3b 	.word	0x8d4fdf3b
    1d60:	401c6e97 	.word	0x401c6e97
    1d64:	b22d0e56 	.word	0xb22d0e56
    1d68:	401c6f9d 	.word	0x401c6f9d
    1d6c:	d70a3d71 	.word	0xd70a3d71
    1d70:	401c70a3 	.word	0x401c70a3
    1d74:	fbe76c8b 	.word	0xfbe76c8b
    1d78:	401c71a9 	.word	0x401c71a9
    1d7c:	20c49ba6 	.word	0x20c49ba6
    1d80:	401c72b0 	.word	0x401c72b0
    1d84:	45a1cac1 	.word	0x45a1cac1
    1d88:	401c73b6 	.word	0x401c73b6
    1d8c:	6a7ef9db 	.word	0x6a7ef9db
    1d90:	401c74bc 	.word	0x401c74bc
    1d94:	8f5c28f6 	.word	0x8f5c28f6
    1d98:	401c75c2 	.word	0x401c75c2
    1d9c:	b4395810 	.word	0xb4395810
    1da0:	401c76c8 	.word	0x401c76c8
    1da4:	d916872b 	.word	0xd916872b
    1da8:	401c77ce 	.word	0x401c77ce
    1dac:	fdf3b646 	.word	0xfdf3b646
    1db0:	401c78d4 	.word	0x401c78d4
    1db4:	22d0e560 	.word	0x22d0e560
    1db8:	401c79db 	.word	0x401c79db
    1dbc:	47ae147b 	.word	0x47ae147b
    1dc0:	401c7ae1 	.word	0x401c7ae1
    1dc4:	6c8b4396 	.word	0x6c8b4396
    1dc8:	401c7be7 	.word	0x401c7be7
    1dcc:	916872b0 	.word	0x916872b0
    1dd0:	401c7ced 	.word	0x401c7ced
    1dd4:	b645a1cb 	.word	0xb645a1cb
    1dd8:	401c7df3 	.word	0x401c7df3
    1ddc:	db22d0e5 	.word	0xdb22d0e5
    1de0:	401c7ef9 	.word	0x401c7ef9
    1de4:	00000000 	.word	0x00000000
    1de8:	401c8000 	.word	0x401c8000
    1dec:	24dd2f1b 	.word	0x24dd2f1b
    1df0:	401c8106 	.word	0x401c8106
    1df4:	49ba5e35 	.word	0x49ba5e35
    1df8:	401c820c 	.word	0x401c820c
    1dfc:	6e978d50 	.word	0x6e978d50
    1e00:	401c8312 	.word	0x401c8312
    1e04:	126e978d 	.word	0x126e978d
    1e08:	40200083 	.word	0x40200083
    1e0c:	24dd2f1b 	.word	0x24dd2f1b
    1e10:	40200106 	.word	0x40200106
    1e14:	374bc6a8 	.word	0x374bc6a8
    1e18:	40200189 	.word	0x40200189
    1e1c:	49ba5e35 	.word	0x49ba5e35
    1e20:	4020020c 	.word	0x4020020c
    1e24:	5c28f5c3 	.word	0x5c28f5c3
    1e28:	4020028f 	.word	0x4020028f
    1e2c:	6e978d50 	.word	0x6e978d50
    1e30:	40200312 	.word	0x40200312
    1e34:	810624dd 	.word	0x810624dd
    1e38:	40200395 	.word	0x40200395
    1e3c:	9374bc6a 	.word	0x9374bc6a
    1e40:	40200418 	.word	0x40200418
    1e44:	a5e353f8 	.word	0xa5e353f8
    1e48:	4020049b 	.word	0x4020049b
    1e4c:	b851eb85 	.word	0xb851eb85
    1e50:	4020051e 	.word	0x4020051e
    1e54:	cac08312 	.word	0xcac08312
    1e58:	402005a1 	.word	0x402005a1
    1e5c:	dd2f1aa0 	.word	0xdd2f1aa0
    1e60:	40200624 	.word	0x40200624
    1e64:	ef9db22d 	.word	0xef9db22d
    1e68:	402006a7 	.word	0x402006a7
    1e6c:	020c49ba 	.word	0x020c49ba
    1e70:	4020072b 	.word	0x4020072b
    1e74:	147ae148 	.word	0x147ae148
    1e78:	402007ae 	.word	0x402007ae
    1e7c:	26e978d5 	.word	0x26e978d5
    1e80:	40200831 	.word	0x40200831
    1e84:	39581062 	.word	0x39581062
    1e88:	402008b4 	.word	0x402008b4
    1e8c:	4bc6a7f0 	.word	0x4bc6a7f0
    1e90:	40200937 	.word	0x40200937
    1e94:	5e353f7d 	.word	0x5e353f7d
    1e98:	402009ba 	.word	0x402009ba
    1e9c:	70a3d70a 	.word	0x70a3d70a
    1ea0:	40200a3d 	.word	0x40200a3d
    1ea4:	83126e98 	.word	0x83126e98
    1ea8:	40200ac0 	.word	0x40200ac0
    1eac:	95810625 	.word	0x95810625
    1eb0:	40200b43 	.word	0x40200b43
    1eb4:	a7ef9db2 	.word	0xa7ef9db2
    1eb8:	40200bc6 	.word	0x40200bc6
    1ebc:	ba5e353f 	.word	0xba5e353f
    1ec0:	40200c49 	.word	0x40200c49
    1ec4:	cccccccd 	.word	0xcccccccd
    1ec8:	40200ccc 	.word	0x40200ccc
    1ecc:	df3b645a 	.word	0xdf3b645a
    1ed0:	40200d4f 	.word	0x40200d4f
    1ed4:	f1a9fbe7 	.word	0xf1a9fbe7
    1ed8:	40200dd2 	.word	0x40200dd2
    1edc:	04189375 	.word	0x04189375
    1ee0:	40200e56 	.word	0x40200e56
    1ee4:	16872b02 	.word	0x16872b02
    1ee8:	40200ed9 	.word	0x40200ed9
    1eec:	28f5c28f 	.word	0x28f5c28f
    1ef0:	40200f5c 	.word	0x40200f5c
    1ef4:	3b645a1d 	.word	0x3b645a1d
    1ef8:	40200fdf 	.word	0x40200fdf
    1efc:	4dd2f1aa 	.word	0x4dd2f1aa
    1f00:	40201062 	.word	0x40201062
    1f04:	60418937 	.word	0x60418937
    1f08:	402010e5 	.word	0x402010e5
    1f0c:	72b020c5 	.word	0x72b020c5
    1f10:	40201168 	.word	0x40201168
    1f14:	851eb852 	.word	0x851eb852
    1f18:	402011eb 	.word	0x402011eb
    1f1c:	978d4fdf 	.word	0x978d4fdf
    1f20:	4020126e 	.word	0x4020126e
    1f24:	a9fbe76d 	.word	0xa9fbe76d
    1f28:	402012f1 	.word	0x402012f1
    1f2c:	bc6a7efa 	.word	0xbc6a7efa
    1f30:	40201374 	.word	0x40201374
    1f34:	ced91687 	.word	0xced91687
    1f38:	402013f7 	.word	0x402013f7
    1f3c:	e147ae14 	.word	0xe147ae14
    1f40:	4020147a 	.word	0x4020147a
    1f44:	f3b645a2 	.word	0xf3b645a2
    1f48:	402014fd 	.word	0x402014fd
    1f4c:	0624dd2f 	.word	0x0624dd2f
    1f50:	40201581 	.word	0x40201581
    1f54:	189374bc 	.word	0x189374bc
    1f58:	40201604 	.word	0x40201604
    1f5c:	2b020c4a 	.word	0x2b020c4a
    1f60:	40201687 	.word	0x40201687
    1f64:	3d70a3d7 	.word	0x3d70a3d7
    1f68:	4020170a 	.word	0x4020170a
    1f6c:	4fdf3b64 	.word	0x4fdf3b64
    1f70:	4020178d 	.word	0x4020178d
    1f74:	624dd2f2 	.word	0x624dd2f2
    1f78:	40201810 	.word	0x40201810
    1f7c:	74bc6a7f 	.word	0x74bc6a7f
    1f80:	40201893 	.word	0x40201893
    1f84:	872b020c 	.word	0x872b020c
    1f88:	40201916 	.word	0x40201916
    1f8c:	9999999a 	.word	0x9999999a
    1f90:	40201999 	.word	0x40201999
    1f94:	ac083127 	.word	0xac083127
    1f98:	40201a1c 	.word	0x40201a1c
    1f9c:	be76c8b4 	.word	0xbe76c8b4
    1fa0:	40201a9f 	.word	0x40201a9f
    1fa4:	d0e56042 	.word	0xd0e56042
    1fa8:	40201b22 	.word	0x40201b22
    1fac:	e353f7cf 	.word	0xe353f7cf
    1fb0:	40201ba5 	.word	0x40201ba5
    1fb4:	f5c28f5c 	.word	0xf5c28f5c
    1fb8:	40201c28 	.word	0x40201c28
    1fbc:	083126e9 	.word	0x083126e9
    1fc0:	40201cac 	.word	0x40201cac
    1fc4:	1a9fbe77 	.word	0x1a9fbe77
    1fc8:	40201d2f 	.word	0x40201d2f
    1fcc:	2d0e5604 	.word	0x2d0e5604
    1fd0:	40201db2 	.word	0x40201db2
    1fd4:	3f7ced91 	.word	0x3f7ced91
    1fd8:	40201e35 	.word	0x40201e35
    1fdc:	51eb851f 	.word	0x51eb851f
    1fe0:	40201eb8 	.word	0x40201eb8
    1fe4:	645a1cac 	.word	0x645a1cac
    1fe8:	40201f3b 	.word	0x40201f3b
    1fec:	76c8b439 	.word	0x76c8b439
    1ff0:	40201fbe 	.word	0x40201fbe
    1ff4:	89374bc7 	.word	0x89374bc7
    1ff8:	40202041 	.word	0x40202041
    1ffc:	9ba5e354 	.word	0x9ba5e354
    2000:	402020c4 	.word	0x402020c4
    2004:	ae147ae1 	.word	0xae147ae1
    2008:	40202147 	.word	0x40202147
    200c:	c083126f 	.word	0xc083126f
    2010:	402021ca 	.word	0x402021ca
    2014:	d2f1a9fc 	.word	0xd2f1a9fc
    2018:	4020224d 	.word	0x4020224d
    201c:	e5604189 	.word	0xe5604189
    2020:	402022d0 	.word	0x402022d0
    2024:	f7ced917 	.word	0xf7ced917
    2028:	40202353 	.word	0x40202353
    202c:	0a3d70a4 	.word	0x0a3d70a4
    2030:	402023d7 	.word	0x402023d7
    2034:	1cac0831 	.word	0x1cac0831
    2038:	4020245a 	.word	0x4020245a
    203c:	2f1a9fbe 	.word	0x2f1a9fbe
    2040:	402024dd 	.word	0x402024dd
    2044:	4189374c 	.word	0x4189374c
    2048:	40202560 	.word	0x40202560
    204c:	53f7ced9 	.word	0x53f7ced9
    2050:	402025e3 	.word	0x402025e3
    2054:	66666666 	.word	0x66666666
    2058:	40202666 	.word	0x40202666
    205c:	78d4fdf4 	.word	0x78d4fdf4
    2060:	402026e9 	.word	0x402026e9
    2064:	8b439581 	.word	0x8b439581
    2068:	4020276c 	.word	0x4020276c
    206c:	9db22d0e 	.word	0x9db22d0e
    2070:	402027ef 	.word	0x402027ef
    2074:	b020c49c 	.word	0xb020c49c
    2078:	40202872 	.word	0x40202872
    207c:	c28f5c29 	.word	0xc28f5c29
    2080:	402028f5 	.word	0x402028f5
    2084:	d4fdf3b6 	.word	0xd4fdf3b6
    2088:	40202978 	.word	0x40202978
    208c:	e76c8b44 	.word	0xe76c8b44
    2090:	402029fb 	.word	0x402029fb
    2094:	f9db22d1 	.word	0xf9db22d1
    2098:	40202a7e 	.word	0x40202a7e
    209c:	0c49ba5e 	.word	0x0c49ba5e
    20a0:	40202b02 	.word	0x40202b02
    20a4:	1eb851ec 	.word	0x1eb851ec
    20a8:	40202b85 	.word	0x40202b85
    20ac:	3126e979 	.word	0x3126e979
    20b0:	40202c08 	.word	0x40202c08
    20b4:	43958106 	.word	0x43958106
    20b8:	40202c8b 	.word	0x40202c8b
    20bc:	56041893 	.word	0x56041893
    20c0:	40202d0e 	.word	0x40202d0e
    20c4:	6872b021 	.word	0x6872b021
    20c8:	40202d91 	.word	0x40202d91
    20cc:	7ae147ae 	.word	0x7ae147ae
    20d0:	40202e14 	.word	0x40202e14
    20d4:	8d4fdf3b 	.word	0x8d4fdf3b
    20d8:	40202e97 	.word	0x40202e97
    20dc:	9fbe76c9 	.word	0x9fbe76c9
    20e0:	40202f1a 	.word	0x40202f1a
    20e4:	b22d0e56 	.word	0xb22d0e56
    20e8:	40202f9d 	.word	0x40202f9d
    20ec:	c49ba5e3 	.word	0xc49ba5e3
    20f0:	40203020 	.word	0x40203020
    20f4:	d70a3d71 	.word	0xd70a3d71
    20f8:	402030a3 	.word	0x402030a3
    20fc:	e978d4fe 	.word	0xe978d4fe
    2100:	40203126 	.word	0x40203126
    2104:	fbe76c8b 	.word	0xfbe76c8b
    2108:	402031a9 	.word	0x402031a9
    210c:	0e560419 	.word	0x0e560419
    2110:	4020322d 	.word	0x4020322d
    2114:	20c49ba6 	.word	0x20c49ba6
    2118:	402032b0 	.word	0x402032b0
    211c:	33333333 	.word	0x33333333
    2120:	40203333 	.word	0x40203333
    2124:	45a1cac1 	.word	0x45a1cac1
    2128:	402033b6 	.word	0x402033b6
    212c:	5810624e 	.word	0x5810624e
    2130:	40203439 	.word	0x40203439
    2134:	6a7ef9db 	.word	0x6a7ef9db
    2138:	402034bc 	.word	0x402034bc
    213c:	7ced9168 	.word	0x7ced9168
    2140:	4020353f 	.word	0x4020353f
    2144:	8f5c28f6 	.word	0x8f5c28f6
    2148:	402035c2 	.word	0x402035c2
    214c:	a1cac083 	.word	0xa1cac083
    2150:	40203645 	.word	0x40203645
    2154:	b4395810 	.word	0xb4395810
    2158:	402036c8 	.word	0x402036c8
    215c:	c6a7ef9e 	.word	0xc6a7ef9e
    2160:	4020374b 	.word	0x4020374b
    2164:	d916872b 	.word	0xd916872b
    2168:	402037ce 	.word	0x402037ce
    216c:	eb851eb8 	.word	0xeb851eb8
    2170:	40203851 	.word	0x40203851
    2174:	fdf3b646 	.word	0xfdf3b646
    2178:	402038d4 	.word	0x402038d4
    217c:	10624dd3 	.word	0x10624dd3
    2180:	40203958 	.word	0x40203958
    2184:	22d0e560 	.word	0x22d0e560
    2188:	402039db 	.word	0x402039db
    218c:	353f7cee 	.word	0x353f7cee
    2190:	40203a5e 	.word	0x40203a5e
    2194:	47ae147b 	.word	0x47ae147b
    2198:	40203ae1 	.word	0x40203ae1
    219c:	5a1cac08 	.word	0x5a1cac08
    21a0:	40203b64 	.word	0x40203b64
    21a4:	6c8b4396 	.word	0x6c8b4396
    21a8:	40203be7 	.word	0x40203be7
    21ac:	7ef9db23 	.word	0x7ef9db23
    21b0:	40203c6a 	.word	0x40203c6a
    21b4:	916872b0 	.word	0x916872b0
    21b8:	40203ced 	.word	0x40203ced
    21bc:	a3d70a3d 	.word	0xa3d70a3d
    21c0:	40203d70 	.word	0x40203d70
    21c4:	b645a1cb 	.word	0xb645a1cb
    21c8:	40203df3 	.word	0x40203df3
    21cc:	c8b43958 	.word	0xc8b43958
    21d0:	40203e76 	.word	0x40203e76
    21d4:	db22d0e5 	.word	0xdb22d0e5
    21d8:	40203ef9 	.word	0x40203ef9
    21dc:	ed916873 	.word	0xed916873
    21e0:	40203f7c 	.word	0x40203f7c
    21e4:	00000000 	.word	0x00000000
    21e8:	40204000 	.word	0x40204000
    21ec:	126e978d 	.word	0x126e978d
    21f0:	40204083 	.word	0x40204083
    21f4:	24dd2f1b 	.word	0x24dd2f1b
    21f8:	40204106 	.word	0x40204106
    21fc:	374bc6a8 	.word	0x374bc6a8
    2200:	40204189 	.word	0x40204189
    2204:	126e978d 	.word	0x126e978d
    2208:	40220083 	.word	0x40220083
    220c:	24dd2f1b 	.word	0x24dd2f1b
    2210:	40220106 	.word	0x40220106
    2214:	374bc6a8 	.word	0x374bc6a8
    2218:	40220189 	.word	0x40220189
    221c:	49ba5e35 	.word	0x49ba5e35
    2220:	4022020c 	.word	0x4022020c
    2224:	5c28f5c3 	.word	0x5c28f5c3
    2228:	4022028f 	.word	0x4022028f
    222c:	6e978d50 	.word	0x6e978d50
    2230:	40220312 	.word	0x40220312
    2234:	810624dd 	.word	0x810624dd
    2238:	40220395 	.word	0x40220395
    223c:	9374bc6a 	.word	0x9374bc6a
    2240:	40220418 	.word	0x40220418
    2244:	a5e353f8 	.word	0xa5e353f8
    2248:	4022049b 	.word	0x4022049b
    224c:	b851eb85 	.word	0xb851eb85
    2250:	4022051e 	.word	0x4022051e
    2254:	cac08312 	.word	0xcac08312
    2258:	402205a1 	.word	0x402205a1
    225c:	dd2f1aa0 	.word	0xdd2f1aa0
    2260:	40220624 	.word	0x40220624
    2264:	ef9db22d 	.word	0xef9db22d
    2268:	402206a7 	.word	0x402206a7
    226c:	020c49ba 	.word	0x020c49ba
    2270:	4022072b 	.word	0x4022072b
    2274:	147ae148 	.word	0x147ae148
    2278:	402207ae 	.word	0x402207ae
    227c:	26e978d5 	.word	0x26e978d5
    2280:	40220831 	.word	0x40220831
    2284:	39581062 	.word	0x39581062
    2288:	402208b4 	.word	0x402208b4
    228c:	4bc6a7f0 	.word	0x4bc6a7f0
    2290:	40220937 	.word	0x40220937
    2294:	5e353f7d 	.word	0x5e353f7d
    2298:	402209ba 	.word	0x402209ba
    229c:	70a3d70a 	.word	0x70a3d70a
    22a0:	40220a3d 	.word	0x40220a3d
    22a4:	83126e98 	.word	0x83126e98
    22a8:	40220ac0 	.word	0x40220ac0
    22ac:	95810625 	.word	0x95810625
    22b0:	40220b43 	.word	0x40220b43
    22b4:	a7ef9db2 	.word	0xa7ef9db2
    22b8:	40220bc6 	.word	0x40220bc6
    22bc:	ba5e353f 	.word	0xba5e353f
    22c0:	40220c49 	.word	0x40220c49
    22c4:	cccccccd 	.word	0xcccccccd
    22c8:	40220ccc 	.word	0x40220ccc
    22cc:	df3b645a 	.word	0xdf3b645a
    22d0:	40220d4f 	.word	0x40220d4f
    22d4:	f1a9fbe7 	.word	0xf1a9fbe7
    22d8:	40220dd2 	.word	0x40220dd2
    22dc:	04189375 	.word	0x04189375
    22e0:	40220e56 	.word	0x40220e56
    22e4:	16872b02 	.word	0x16872b02
    22e8:	40220ed9 	.word	0x40220ed9
    22ec:	28f5c28f 	.word	0x28f5c28f
    22f0:	40220f5c 	.word	0x40220f5c
    22f4:	3b645a1d 	.word	0x3b645a1d
    22f8:	40220fdf 	.word	0x40220fdf
    22fc:	4dd2f1aa 	.word	0x4dd2f1aa
    2300:	40221062 	.word	0x40221062
    2304:	60418937 	.word	0x60418937
    2308:	402210e5 	.word	0x402210e5
    230c:	72b020c5 	.word	0x72b020c5
    2310:	40221168 	.word	0x40221168
    2314:	851eb852 	.word	0x851eb852
    2318:	402211eb 	.word	0x402211eb
    231c:	978d4fdf 	.word	0x978d4fdf
    2320:	4022126e 	.word	0x4022126e
    2324:	a9fbe76d 	.word	0xa9fbe76d
    2328:	402212f1 	.word	0x402212f1
    232c:	bc6a7efa 	.word	0xbc6a7efa
    2330:	40221374 	.word	0x40221374
    2334:	ced91687 	.word	0xced91687
    2338:	402213f7 	.word	0x402213f7
    233c:	e147ae14 	.word	0xe147ae14
    2340:	4022147a 	.word	0x4022147a
    2344:	f3b645a2 	.word	0xf3b645a2
    2348:	402214fd 	.word	0x402214fd
    234c:	0624dd2f 	.word	0x0624dd2f
    2350:	40221581 	.word	0x40221581
    2354:	189374bc 	.word	0x189374bc
    2358:	40221604 	.word	0x40221604
    235c:	2b020c4a 	.word	0x2b020c4a
    2360:	40221687 	.word	0x40221687
    2364:	3d70a3d7 	.word	0x3d70a3d7
    2368:	4022170a 	.word	0x4022170a
    236c:	4fdf3b64 	.word	0x4fdf3b64
    2370:	4022178d 	.word	0x4022178d
    2374:	624dd2f2 	.word	0x624dd2f2
    2378:	40221810 	.word	0x40221810
    237c:	74bc6a7f 	.word	0x74bc6a7f
    2380:	40221893 	.word	0x40221893
    2384:	872b020c 	.word	0x872b020c
    2388:	40221916 	.word	0x40221916
    238c:	9999999a 	.word	0x9999999a
    2390:	40221999 	.word	0x40221999
    2394:	ac083127 	.word	0xac083127
    2398:	40221a1c 	.word	0x40221a1c
    239c:	be76c8b4 	.word	0xbe76c8b4
    23a0:	40221a9f 	.word	0x40221a9f
    23a4:	d0e56042 	.word	0xd0e56042
    23a8:	40221b22 	.word	0x40221b22
    23ac:	e353f7cf 	.word	0xe353f7cf
    23b0:	40221ba5 	.word	0x40221ba5
    23b4:	f5c28f5c 	.word	0xf5c28f5c
    23b8:	40221c28 	.word	0x40221c28
    23bc:	083126e9 	.word	0x083126e9
    23c0:	40221cac 	.word	0x40221cac
    23c4:	1a9fbe77 	.word	0x1a9fbe77
    23c8:	40221d2f 	.word	0x40221d2f
    23cc:	2d0e5604 	.word	0x2d0e5604
    23d0:	40221db2 	.word	0x40221db2
    23d4:	3f7ced91 	.word	0x3f7ced91
    23d8:	40221e35 	.word	0x40221e35
    23dc:	51eb851f 	.word	0x51eb851f
    23e0:	40221eb8 	.word	0x40221eb8
    23e4:	645a1cac 	.word	0x645a1cac
    23e8:	40221f3b 	.word	0x40221f3b
    23ec:	76c8b439 	.word	0x76c8b439
    23f0:	40221fbe 	.word	0x40221fbe
    23f4:	89374bc7 	.word	0x89374bc7
    23f8:	40222041 	.word	0x40222041
    23fc:	9ba5e354 	.word	0x9ba5e354
    2400:	402220c4 	.word	0x402220c4
    2404:	ae147ae1 	.word	0xae147ae1
    2408:	40222147 	.word	0x40222147
    240c:	c083126f 	.word	0xc083126f
    2410:	402221ca 	.word	0x402221ca
    2414:	d2f1a9fc 	.word	0xd2f1a9fc
    2418:	4022224d 	.word	0x4022224d
    241c:	e5604189 	.word	0xe5604189
    2420:	402222d0 	.word	0x402222d0
    2424:	f7ced917 	.word	0xf7ced917
    2428:	40222353 	.word	0x40222353
    242c:	0a3d70a4 	.word	0x0a3d70a4
    2430:	402223d7 	.word	0x402223d7
    2434:	1cac0831 	.word	0x1cac0831
    2438:	4022245a 	.word	0x4022245a
    243c:	2f1a9fbe 	.word	0x2f1a9fbe
    2440:	402224dd 	.word	0x402224dd
    2444:	4189374c 	.word	0x4189374c
    2448:	40222560 	.word	0x40222560
    244c:	53f7ced9 	.word	0x53f7ced9
    2450:	402225e3 	.word	0x402225e3
    2454:	66666666 	.word	0x66666666
    2458:	40222666 	.word	0x40222666
    245c:	78d4fdf4 	.word	0x78d4fdf4
    2460:	402226e9 	.word	0x402226e9
    2464:	8b439581 	.word	0x8b439581
    2468:	4022276c 	.word	0x4022276c
    246c:	9db22d0e 	.word	0x9db22d0e
    2470:	402227ef 	.word	0x402227ef
    2474:	b020c49c 	.word	0xb020c49c
    2478:	40222872 	.word	0x40222872
    247c:	c28f5c29 	.word	0xc28f5c29
    2480:	402228f5 	.word	0x402228f5
    2484:	d4fdf3b6 	.word	0xd4fdf3b6
    2488:	40222978 	.word	0x40222978
    248c:	e76c8b44 	.word	0xe76c8b44
    2490:	402229fb 	.word	0x402229fb
    2494:	f9db22d1 	.word	0xf9db22d1
    2498:	40222a7e 	.word	0x40222a7e
    249c:	0c49ba5e 	.word	0x0c49ba5e
    24a0:	40222b02 	.word	0x40222b02
    24a4:	1eb851ec 	.word	0x1eb851ec
    24a8:	40222b85 	.word	0x40222b85
    24ac:	3126e979 	.word	0x3126e979
    24b0:	40222c08 	.word	0x40222c08
    24b4:	43958106 	.word	0x43958106
    24b8:	40222c8b 	.word	0x40222c8b
    24bc:	56041893 	.word	0x56041893
    24c0:	40222d0e 	.word	0x40222d0e
    24c4:	6872b021 	.word	0x6872b021
    24c8:	40222d91 	.word	0x40222d91
    24cc:	7ae147ae 	.word	0x7ae147ae
    24d0:	40222e14 	.word	0x40222e14
    24d4:	8d4fdf3b 	.word	0x8d4fdf3b
    24d8:	40222e97 	.word	0x40222e97
    24dc:	9fbe76c9 	.word	0x9fbe76c9
    24e0:	40222f1a 	.word	0x40222f1a
    24e4:	b22d0e56 	.word	0xb22d0e56
    24e8:	40222f9d 	.word	0x40222f9d
    24ec:	c49ba5e3 	.word	0xc49ba5e3
    24f0:	40223020 	.word	0x40223020
    24f4:	d70a3d71 	.word	0xd70a3d71
    24f8:	402230a3 	.word	0x402230a3
    24fc:	e978d4fe 	.word	0xe978d4fe
    2500:	40223126 	.word	0x40223126
    2504:	fbe76c8b 	.word	0xfbe76c8b
    2508:	402231a9 	.word	0x402231a9
    250c:	0e560419 	.word	0x0e560419
    2510:	4022322d 	.word	0x4022322d
    2514:	20c49ba6 	.word	0x20c49ba6
    2518:	402232b0 	.word	0x402232b0
    251c:	33333333 	.word	0x33333333
    2520:	40223333 	.word	0x40223333
    2524:	45a1cac1 	.word	0x45a1cac1
    2528:	402233b6 	.word	0x402233b6
    252c:	5810624e 	.word	0x5810624e
    2530:	40223439 	.word	0x40223439
    2534:	6a7ef9db 	.word	0x6a7ef9db
    2538:	402234bc 	.word	0x402234bc
    253c:	7ced9168 	.word	0x7ced9168
    2540:	4022353f 	.word	0x4022353f
    2544:	8f5c28f6 	.word	0x8f5c28f6
    2548:	402235c2 	.word	0x402235c2
    254c:	a1cac083 	.word	0xa1cac083
    2550:	40223645 	.word	0x40223645
    2554:	b4395810 	.word	0xb4395810
    2558:	402236c8 	.word	0x402236c8
    255c:	c6a7ef9e 	.word	0xc6a7ef9e
    2560:	4022374b 	.word	0x4022374b
    2564:	d916872b 	.word	0xd916872b
    2568:	402237ce 	.word	0x402237ce
    256c:	eb851eb8 	.word	0xeb851eb8
    2570:	40223851 	.word	0x40223851
    2574:	fdf3b646 	.word	0xfdf3b646
    2578:	402238d4 	.word	0x402238d4
    257c:	10624dd3 	.word	0x10624dd3
    2580:	40223958 	.word	0x40223958
    2584:	22d0e560 	.word	0x22d0e560
    2588:	402239db 	.word	0x402239db
    258c:	353f7cee 	.word	0x353f7cee
    2590:	40223a5e 	.word	0x40223a5e
    2594:	47ae147b 	.word	0x47ae147b
    2598:	40223ae1 	.word	0x40223ae1
    259c:	5a1cac08 	.word	0x5a1cac08
    25a0:	40223b64 	.word	0x40223b64
    25a4:	6c8b4396 	.word	0x6c8b4396
    25a8:	40223be7 	.word	0x40223be7
    25ac:	7ef9db23 	.word	0x7ef9db23
    25b0:	40223c6a 	.word	0x40223c6a
    25b4:	916872b0 	.word	0x916872b0
    25b8:	40223ced 	.word	0x40223ced
    25bc:	a3d70a3d 	.word	0xa3d70a3d
    25c0:	40223d70 	.word	0x40223d70
    25c4:	b645a1cb 	.word	0xb645a1cb
    25c8:	40223df3 	.word	0x40223df3
    25cc:	c8b43958 	.word	0xc8b43958
    25d0:	40223e76 	.word	0x40223e76
    25d4:	db22d0e5 	.word	0xdb22d0e5
    25d8:	40223ef9 	.word	0x40223ef9
    25dc:	ed916873 	.word	0xed916873
    25e0:	40223f7c 	.word	0x40223f7c
    25e4:	00000000 	.word	0x00000000
    25e8:	40224000 	.word	0x40224000
    25ec:	126e978d 	.word	0x126e978d
    25f0:	40224083 	.word	0x40224083
    25f4:	24dd2f1b 	.word	0x24dd2f1b
    25f8:	40224106 	.word	0x40224106
    25fc:	374bc6a8 	.word	0x374bc6a8
    2600:	40224189 	.word	0x40224189
    2604:	126e978d 	.word	0x126e978d
    2608:	40240083 	.word	0x40240083
    260c:	24dd2f1b 	.word	0x24dd2f1b
    2610:	40240106 	.word	0x40240106
    2614:	374bc6a8 	.word	0x374bc6a8
    2618:	40240189 	.word	0x40240189
    261c:	49ba5e35 	.word	0x49ba5e35
    2620:	4024020c 	.word	0x4024020c
    2624:	5c28f5c3 	.word	0x5c28f5c3
    2628:	4024028f 	.word	0x4024028f
    262c:	6e978d50 	.word	0x6e978d50
    2630:	40240312 	.word	0x40240312
    2634:	810624dd 	.word	0x810624dd
    2638:	40240395 	.word	0x40240395
    263c:	9374bc6a 	.word	0x9374bc6a
    2640:	40240418 	.word	0x40240418
    2644:	a5e353f8 	.word	0xa5e353f8
    2648:	4024049b 	.word	0x4024049b
    264c:	b851eb85 	.word	0xb851eb85
    2650:	4024051e 	.word	0x4024051e
    2654:	cac08312 	.word	0xcac08312
    2658:	402405a1 	.word	0x402405a1
    265c:	dd2f1aa0 	.word	0xdd2f1aa0
    2660:	40240624 	.word	0x40240624
    2664:	ef9db22d 	.word	0xef9db22d
    2668:	402406a7 	.word	0x402406a7
    266c:	020c49ba 	.word	0x020c49ba
    2670:	4024072b 	.word	0x4024072b
    2674:	147ae148 	.word	0x147ae148
    2678:	402407ae 	.word	0x402407ae
    267c:	26e978d5 	.word	0x26e978d5
    2680:	40240831 	.word	0x40240831
    2684:	39581062 	.word	0x39581062
    2688:	402408b4 	.word	0x402408b4
    268c:	4bc6a7f0 	.word	0x4bc6a7f0
    2690:	40240937 	.word	0x40240937
    2694:	5e353f7d 	.word	0x5e353f7d
    2698:	402409ba 	.word	0x402409ba
    269c:	70a3d70a 	.word	0x70a3d70a
    26a0:	40240a3d 	.word	0x40240a3d
    26a4:	83126e98 	.word	0x83126e98
    26a8:	40240ac0 	.word	0x40240ac0
    26ac:	95810625 	.word	0x95810625
    26b0:	40240b43 	.word	0x40240b43
    26b4:	a7ef9db2 	.word	0xa7ef9db2
    26b8:	40240bc6 	.word	0x40240bc6
    26bc:	ba5e353f 	.word	0xba5e353f
    26c0:	40240c49 	.word	0x40240c49
    26c4:	cccccccd 	.word	0xcccccccd
    26c8:	40240ccc 	.word	0x40240ccc
    26cc:	df3b645a 	.word	0xdf3b645a
    26d0:	40240d4f 	.word	0x40240d4f
    26d4:	f1a9fbe7 	.word	0xf1a9fbe7
    26d8:	40240dd2 	.word	0x40240dd2
    26dc:	04189375 	.word	0x04189375
    26e0:	40240e56 	.word	0x40240e56
    26e4:	16872b02 	.word	0x16872b02
    26e8:	40240ed9 	.word	0x40240ed9
    26ec:	28f5c28f 	.word	0x28f5c28f
    26f0:	40240f5c 	.word	0x40240f5c
    26f4:	3b645a1d 	.word	0x3b645a1d
    26f8:	40240fdf 	.word	0x40240fdf
    26fc:	4dd2f1aa 	.word	0x4dd2f1aa
    2700:	40241062 	.word	0x40241062
    2704:	60418937 	.word	0x60418937
    2708:	402410e5 	.word	0x402410e5
    270c:	72b020c5 	.word	0x72b020c5
    2710:	40241168 	.word	0x40241168
    2714:	851eb852 	.word	0x851eb852
    2718:	402411eb 	.word	0x402411eb
    271c:	978d4fdf 	.word	0x978d4fdf
    2720:	4024126e 	.word	0x4024126e
    2724:	a9fbe76d 	.word	0xa9fbe76d
    2728:	402412f1 	.word	0x402412f1
    272c:	bc6a7efa 	.word	0xbc6a7efa
    2730:	40241374 	.word	0x40241374
    2734:	ced91687 	.word	0xced91687
    2738:	402413f7 	.word	0x402413f7
    273c:	e147ae14 	.word	0xe147ae14
    2740:	4024147a 	.word	0x4024147a
    2744:	f3b645a2 	.word	0xf3b645a2
    2748:	402414fd 	.word	0x402414fd
    274c:	0624dd2f 	.word	0x0624dd2f
    2750:	40241581 	.word	0x40241581
    2754:	189374bc 	.word	0x189374bc
    2758:	40241604 	.word	0x40241604
    275c:	2b020c4a 	.word	0x2b020c4a
    2760:	40241687 	.word	0x40241687
    2764:	3d70a3d7 	.word	0x3d70a3d7
    2768:	4024170a 	.word	0x4024170a
    276c:	4fdf3b64 	.word	0x4fdf3b64
    2770:	4024178d 	.word	0x4024178d
    2774:	624dd2f2 	.word	0x624dd2f2
    2778:	40241810 	.word	0x40241810
    277c:	74bc6a7f 	.word	0x74bc6a7f
    2780:	40241893 	.word	0x40241893
    2784:	872b020c 	.word	0x872b020c
    2788:	40241916 	.word	0x40241916
    278c:	9999999a 	.word	0x9999999a
    2790:	40241999 	.word	0x40241999
    2794:	ac083127 	.word	0xac083127
    2798:	40241a1c 	.word	0x40241a1c
    279c:	be76c8b4 	.word	0xbe76c8b4
    27a0:	40241a9f 	.word	0x40241a9f
    27a4:	d0e56042 	.word	0xd0e56042
    27a8:	40241b22 	.word	0x40241b22
    27ac:	e353f7cf 	.word	0xe353f7cf
    27b0:	40241ba5 	.word	0x40241ba5
    27b4:	f5c28f5c 	.word	0xf5c28f5c
    27b8:	40241c28 	.word	0x40241c28
    27bc:	083126e9 	.word	0x083126e9
    27c0:	40241cac 	.word	0x40241cac
    27c4:	1a9fbe77 	.word	0x1a9fbe77
    27c8:	40241d2f 	.word	0x40241d2f
    27cc:	2d0e5604 	.word	0x2d0e5604
    27d0:	40241db2 	.word	0x40241db2
    27d4:	3f7ced91 	.word	0x3f7ced91
    27d8:	40241e35 	.word	0x40241e35
    27dc:	51eb851f 	.word	0x51eb851f
    27e0:	40241eb8 	.word	0x40241eb8
    27e4:	645a1cac 	.word	0x645a1cac
    27e8:	40241f3b 	.word	0x40241f3b
    27ec:	76c8b439 	.word	0x76c8b439
    27f0:	40241fbe 	.word	0x40241fbe
    27f4:	89374bc7 	.word	0x89374bc7
    27f8:	40242041 	.word	0x40242041
    27fc:	9ba5e354 	.word	0x9ba5e354
    2800:	402420c4 	.word	0x402420c4
    2804:	ae147ae1 	.word	0xae147ae1
    2808:	40242147 	.word	0x40242147
    280c:	c083126f 	.word	0xc083126f
    2810:	402421ca 	.word	0x402421ca
    2814:	d2f1a9fc 	.word	0xd2f1a9fc
    2818:	4024224d 	.word	0x4024224d
    281c:	e5604189 	.word	0xe5604189
    2820:	402422d0 	.word	0x402422d0
    2824:	f7ced917 	.word	0xf7ced917
    2828:	40242353 	.word	0x40242353
    282c:	0a3d70a4 	.word	0x0a3d70a4
    2830:	402423d7 	.word	0x402423d7
    2834:	1cac0831 	.word	0x1cac0831
    2838:	4024245a 	.word	0x4024245a
    283c:	2f1a9fbe 	.word	0x2f1a9fbe
    2840:	402424dd 	.word	0x402424dd
    2844:	4189374c 	.word	0x4189374c
    2848:	40242560 	.word	0x40242560
    284c:	53f7ced9 	.word	0x53f7ced9
    2850:	402425e3 	.word	0x402425e3
    2854:	66666666 	.word	0x66666666
    2858:	40242666 	.word	0x40242666
    285c:	78d4fdf4 	.word	0x78d4fdf4
    2860:	402426e9 	.word	0x402426e9
    2864:	8b439581 	.word	0x8b439581
    2868:	4024276c 	.word	0x4024276c
    286c:	9db22d0e 	.word	0x9db22d0e
    2870:	402427ef 	.word	0x402427ef
    2874:	b020c49c 	.word	0xb020c49c
    2878:	40242872 	.word	0x40242872
    287c:	c28f5c29 	.word	0xc28f5c29
    2880:	402428f5 	.word	0x402428f5
    2884:	d4fdf3b6 	.word	0xd4fdf3b6
    2888:	40242978 	.word	0x40242978
    288c:	e76c8b44 	.word	0xe76c8b44
    2890:	402429fb 	.word	0x402429fb
    2894:	f9db22d1 	.word	0xf9db22d1
    2898:	40242a7e 	.word	0x40242a7e
    289c:	0c49ba5e 	.word	0x0c49ba5e
    28a0:	40242b02 	.word	0x40242b02
    28a4:	1eb851ec 	.word	0x1eb851ec
    28a8:	40242b85 	.word	0x40242b85
    28ac:	3126e979 	.word	0x3126e979
    28b0:	40242c08 	.word	0x40242c08
    28b4:	43958106 	.word	0x43958106
    28b8:	40242c8b 	.word	0x40242c8b
    28bc:	56041893 	.word	0x56041893
    28c0:	40242d0e 	.word	0x40242d0e
    28c4:	6872b021 	.word	0x6872b021
    28c8:	40242d91 	.word	0x40242d91
    28cc:	7ae147ae 	.word	0x7ae147ae
    28d0:	40242e14 	.word	0x40242e14
    28d4:	8d4fdf3b 	.word	0x8d4fdf3b
    28d8:	40242e97 	.word	0x40242e97
    28dc:	9fbe76c9 	.word	0x9fbe76c9
    28e0:	40242f1a 	.word	0x40242f1a
    28e4:	b22d0e56 	.word	0xb22d0e56
    28e8:	40242f9d 	.word	0x40242f9d
    28ec:	c49ba5e3 	.word	0xc49ba5e3
    28f0:	40243020 	.word	0x40243020
    28f4:	d70a3d71 	.word	0xd70a3d71
    28f8:	402430a3 	.word	0x402430a3
    28fc:	e978d4fe 	.word	0xe978d4fe
    2900:	40243126 	.word	0x40243126
    2904:	fbe76c8b 	.word	0xfbe76c8b
    2908:	402431a9 	.word	0x402431a9
    290c:	0e560419 	.word	0x0e560419
    2910:	4024322d 	.word	0x4024322d
    2914:	20c49ba6 	.word	0x20c49ba6
    2918:	402432b0 	.word	0x402432b0
    291c:	33333333 	.word	0x33333333
    2920:	40243333 	.word	0x40243333
    2924:	45a1cac1 	.word	0x45a1cac1
    2928:	402433b6 	.word	0x402433b6
    292c:	5810624e 	.word	0x5810624e
    2930:	40243439 	.word	0x40243439
    2934:	6a7ef9db 	.word	0x6a7ef9db
    2938:	402434bc 	.word	0x402434bc
    293c:	7ced9168 	.word	0x7ced9168
    2940:	4024353f 	.word	0x4024353f
    2944:	8f5c28f6 	.word	0x8f5c28f6
    2948:	402435c2 	.word	0x402435c2
    294c:	a1cac083 	.word	0xa1cac083
    2950:	40243645 	.word	0x40243645
    2954:	b4395810 	.word	0xb4395810
    2958:	402436c8 	.word	0x402436c8
    295c:	c6a7ef9e 	.word	0xc6a7ef9e
    2960:	4024374b 	.word	0x4024374b
    2964:	d916872b 	.word	0xd916872b
    2968:	402437ce 	.word	0x402437ce
    296c:	eb851eb8 	.word	0xeb851eb8
    2970:	40243851 	.word	0x40243851
    2974:	fdf3b646 	.word	0xfdf3b646
    2978:	402438d4 	.word	0x402438d4
    297c:	10624dd3 	.word	0x10624dd3
    2980:	40243958 	.word	0x40243958
    2984:	22d0e560 	.word	0x22d0e560
    2988:	402439db 	.word	0x402439db
    298c:	353f7cee 	.word	0x353f7cee
    2990:	40243a5e 	.word	0x40243a5e
    2994:	47ae147b 	.word	0x47ae147b
    2998:	40243ae1 	.word	0x40243ae1
    299c:	5a1cac08 	.word	0x5a1cac08
    29a0:	40243b64 	.word	0x40243b64
    29a4:	6c8b4396 	.word	0x6c8b4396
    29a8:	40243be7 	.word	0x40243be7
    29ac:	7ef9db23 	.word	0x7ef9db23
    29b0:	40243c6a 	.word	0x40243c6a
    29b4:	916872b0 	.word	0x916872b0
    29b8:	40243ced 	.word	0x40243ced
    29bc:	a3d70a3d 	.word	0xa3d70a3d
    29c0:	40243d70 	.word	0x40243d70
    29c4:	b645a1cb 	.word	0xb645a1cb
    29c8:	40243df3 	.word	0x40243df3
    29cc:	c8b43958 	.word	0xc8b43958
    29d0:	40243e76 	.word	0x40243e76
    29d4:	db22d0e5 	.word	0xdb22d0e5
    29d8:	40243ef9 	.word	0x40243ef9
    29dc:	ed916873 	.word	0xed916873
    29e0:	40243f7c 	.word	0x40243f7c
    29e4:	00000000 	.word	0x00000000
    29e8:	40244000 	.word	0x40244000
    29ec:	126e978d 	.word	0x126e978d
    29f0:	40244083 	.word	0x40244083
    29f4:	24dd2f1b 	.word	0x24dd2f1b
    29f8:	40244106 	.word	0x40244106
    29fc:	374bc6a8 	.word	0x374bc6a8
    2a00:	40244189 	.word	0x40244189
    2a04:	126e978d 	.word	0x126e978d
    2a08:	40260083 	.word	0x40260083
    2a0c:	24dd2f1b 	.word	0x24dd2f1b
    2a10:	40260106 	.word	0x40260106
    2a14:	374bc6a8 	.word	0x374bc6a8
    2a18:	40260189 	.word	0x40260189
    2a1c:	49ba5e35 	.word	0x49ba5e35
    2a20:	4026020c 	.word	0x4026020c
    2a24:	5c28f5c3 	.word	0x5c28f5c3
    2a28:	4026028f 	.word	0x4026028f
    2a2c:	6e978d50 	.word	0x6e978d50
    2a30:	40260312 	.word	0x40260312
    2a34:	810624dd 	.word	0x810624dd
    2a38:	40260395 	.word	0x40260395
    2a3c:	9374bc6a 	.word	0x9374bc6a
    2a40:	40260418 	.word	0x40260418
    2a44:	a5e353f8 	.word	0xa5e353f8
    2a48:	4026049b 	.word	0x4026049b
    2a4c:	b851eb85 	.word	0xb851eb85
    2a50:	4026051e 	.word	0x4026051e
    2a54:	cac08312 	.word	0xcac08312
    2a58:	402605a1 	.word	0x402605a1
    2a5c:	dd2f1aa0 	.word	0xdd2f1aa0
    2a60:	40260624 	.word	0x40260624
    2a64:	ef9db22d 	.word	0xef9db22d
    2a68:	402606a7 	.word	0x402606a7
    2a6c:	020c49ba 	.word	0x020c49ba
    2a70:	4026072b 	.word	0x4026072b
    2a74:	147ae148 	.word	0x147ae148
    2a78:	402607ae 	.word	0x402607ae
    2a7c:	26e978d5 	.word	0x26e978d5
    2a80:	40260831 	.word	0x40260831
    2a84:	39581062 	.word	0x39581062
    2a88:	402608b4 	.word	0x402608b4
    2a8c:	4bc6a7f0 	.word	0x4bc6a7f0
    2a90:	40260937 	.word	0x40260937
    2a94:	5e353f7d 	.word	0x5e353f7d
    2a98:	402609ba 	.word	0x402609ba
    2a9c:	70a3d70a 	.word	0x70a3d70a
    2aa0:	40260a3d 	.word	0x40260a3d
    2aa4:	83126e98 	.word	0x83126e98
    2aa8:	40260ac0 	.word	0x40260ac0
    2aac:	95810625 	.word	0x95810625
    2ab0:	40260b43 	.word	0x40260b43
    2ab4:	a7ef9db2 	.word	0xa7ef9db2
    2ab8:	40260bc6 	.word	0x40260bc6
    2abc:	ba5e353f 	.word	0xba5e353f
    2ac0:	40260c49 	.word	0x40260c49
    2ac4:	cccccccd 	.word	0xcccccccd
    2ac8:	40260ccc 	.word	0x40260ccc
    2acc:	df3b645a 	.word	0xdf3b645a
    2ad0:	40260d4f 	.word	0x40260d4f
    2ad4:	f1a9fbe7 	.word	0xf1a9fbe7
    2ad8:	40260dd2 	.word	0x40260dd2
    2adc:	04189375 	.word	0x04189375
    2ae0:	40260e56 	.word	0x40260e56
    2ae4:	16872b02 	.word	0x16872b02
    2ae8:	40260ed9 	.word	0x40260ed9
    2aec:	28f5c28f 	.word	0x28f5c28f
    2af0:	40260f5c 	.word	0x40260f5c
    2af4:	3b645a1d 	.word	0x3b645a1d
    2af8:	40260fdf 	.word	0x40260fdf
    2afc:	4dd2f1aa 	.word	0x4dd2f1aa
    2b00:	40261062 	.word	0x40261062
    2b04:	60418937 	.word	0x60418937
    2b08:	402610e5 	.word	0x402610e5
    2b0c:	72b020c5 	.word	0x72b020c5
    2b10:	40261168 	.word	0x40261168
    2b14:	851eb852 	.word	0x851eb852
    2b18:	402611eb 	.word	0x402611eb
    2b1c:	978d4fdf 	.word	0x978d4fdf
    2b20:	4026126e 	.word	0x4026126e
    2b24:	a9fbe76d 	.word	0xa9fbe76d
    2b28:	402612f1 	.word	0x402612f1
    2b2c:	bc6a7efa 	.word	0xbc6a7efa
    2b30:	40261374 	.word	0x40261374
    2b34:	ced91687 	.word	0xced91687
    2b38:	402613f7 	.word	0x402613f7
    2b3c:	e147ae14 	.word	0xe147ae14
    2b40:	4026147a 	.word	0x4026147a
    2b44:	f3b645a2 	.word	0xf3b645a2
    2b48:	402614fd 	.word	0x402614fd
    2b4c:	0624dd2f 	.word	0x0624dd2f
    2b50:	40261581 	.word	0x40261581
    2b54:	189374bc 	.word	0x189374bc
    2b58:	40261604 	.word	0x40261604
    2b5c:	2b020c4a 	.word	0x2b020c4a
    2b60:	40261687 	.word	0x40261687
    2b64:	3d70a3d7 	.word	0x3d70a3d7
    2b68:	4026170a 	.word	0x4026170a
    2b6c:	4fdf3b64 	.word	0x4fdf3b64
    2b70:	4026178d 	.word	0x4026178d
    2b74:	624dd2f2 	.word	0x624dd2f2
    2b78:	40261810 	.word	0x40261810
    2b7c:	74bc6a7f 	.word	0x74bc6a7f
    2b80:	40261893 	.word	0x40261893
    2b84:	872b020c 	.word	0x872b020c
    2b88:	40261916 	.word	0x40261916
    2b8c:	9999999a 	.word	0x9999999a
    2b90:	40261999 	.word	0x40261999
    2b94:	ac083127 	.word	0xac083127
    2b98:	40261a1c 	.word	0x40261a1c
    2b9c:	be76c8b4 	.word	0xbe76c8b4
    2ba0:	40261a9f 	.word	0x40261a9f
    2ba4:	d0e56042 	.word	0xd0e56042
    2ba8:	40261b22 	.word	0x40261b22
    2bac:	e353f7cf 	.word	0xe353f7cf
    2bb0:	40261ba5 	.word	0x40261ba5
    2bb4:	f5c28f5c 	.word	0xf5c28f5c
    2bb8:	40261c28 	.word	0x40261c28
    2bbc:	083126e9 	.word	0x083126e9
    2bc0:	40261cac 	.word	0x40261cac
    2bc4:	1a9fbe77 	.word	0x1a9fbe77
    2bc8:	40261d2f 	.word	0x40261d2f
    2bcc:	2d0e5604 	.word	0x2d0e5604
    2bd0:	40261db2 	.word	0x40261db2
    2bd4:	3f7ced91 	.word	0x3f7ced91
    2bd8:	40261e35 	.word	0x40261e35
    2bdc:	51eb851f 	.word	0x51eb851f
    2be0:	40261eb8 	.word	0x40261eb8
    2be4:	645a1cac 	.word	0x645a1cac
    2be8:	40261f3b 	.word	0x40261f3b
    2bec:	76c8b439 	.word	0x76c8b439
    2bf0:	40261fbe 	.word	0x40261fbe
    2bf4:	89374bc7 	.word	0x89374bc7
    2bf8:	40262041 	.word	0x40262041
    2bfc:	9ba5e354 	.word	0x9ba5e354
    2c00:	402620c4 	.word	0x402620c4
    2c04:	ae147ae1 	.word	0xae147ae1
    2c08:	40262147 	.word	0x40262147
    2c0c:	c083126f 	.word	0xc083126f
    2c10:	402621ca 	.word	0x402621ca
    2c14:	d2f1a9fc 	.word	0xd2f1a9fc
    2c18:	4026224d 	.word	0x4026224d
    2c1c:	e5604189 	.word	0xe5604189
    2c20:	402622d0 	.word	0x402622d0
    2c24:	f7ced917 	.word	0xf7ced917
    2c28:	40262353 	.word	0x40262353
    2c2c:	0a3d70a4 	.word	0x0a3d70a4
    2c30:	402623d7 	.word	0x402623d7
    2c34:	1cac0831 	.word	0x1cac0831
    2c38:	4026245a 	.word	0x4026245a
    2c3c:	2f1a9fbe 	.word	0x2f1a9fbe
    2c40:	402624dd 	.word	0x402624dd
    2c44:	4189374c 	.word	0x4189374c
    2c48:	40262560 	.word	0x40262560
    2c4c:	53f7ced9 	.word	0x53f7ced9
    2c50:	402625e3 	.word	0x402625e3
    2c54:	66666666 	.word	0x66666666
    2c58:	40262666 	.word	0x40262666
    2c5c:	78d4fdf4 	.word	0x78d4fdf4
    2c60:	402626e9 	.word	0x402626e9
    2c64:	8b439581 	.word	0x8b439581
    2c68:	4026276c 	.word	0x4026276c
    2c6c:	9db22d0e 	.word	0x9db22d0e
    2c70:	402627ef 	.word	0x402627ef
    2c74:	b020c49c 	.word	0xb020c49c
    2c78:	40262872 	.word	0x40262872
    2c7c:	c28f5c29 	.word	0xc28f5c29
    2c80:	402628f5 	.word	0x402628f5
    2c84:	d4fdf3b6 	.word	0xd4fdf3b6
    2c88:	40262978 	.word	0x40262978
    2c8c:	e76c8b44 	.word	0xe76c8b44
    2c90:	402629fb 	.word	0x402629fb
    2c94:	f9db22d1 	.word	0xf9db22d1
    2c98:	40262a7e 	.word	0x40262a7e
    2c9c:	0c49ba5e 	.word	0x0c49ba5e
    2ca0:	40262b02 	.word	0x40262b02
    2ca4:	1eb851ec 	.word	0x1eb851ec
    2ca8:	40262b85 	.word	0x40262b85
    2cac:	3126e979 	.word	0x3126e979
    2cb0:	40262c08 	.word	0x40262c08
    2cb4:	43958106 	.word	0x43958106
    2cb8:	40262c8b 	.word	0x40262c8b
    2cbc:	56041893 	.word	0x56041893
    2cc0:	40262d0e 	.word	0x40262d0e
    2cc4:	6872b021 	.word	0x6872b021
    2cc8:	40262d91 	.word	0x40262d91
    2ccc:	7ae147ae 	.word	0x7ae147ae
    2cd0:	40262e14 	.word	0x40262e14
    2cd4:	8d4fdf3b 	.word	0x8d4fdf3b
    2cd8:	40262e97 	.word	0x40262e97
    2cdc:	9fbe76c9 	.word	0x9fbe76c9
    2ce0:	40262f1a 	.word	0x40262f1a
    2ce4:	b22d0e56 	.word	0xb22d0e56
    2ce8:	40262f9d 	.word	0x40262f9d
    2cec:	c49ba5e3 	.word	0xc49ba5e3
    2cf0:	40263020 	.word	0x40263020
    2cf4:	d70a3d71 	.word	0xd70a3d71
    2cf8:	402630a3 	.word	0x402630a3
    2cfc:	e978d4fe 	.word	0xe978d4fe
    2d00:	40263126 	.word	0x40263126
    2d04:	fbe76c8b 	.word	0xfbe76c8b
    2d08:	402631a9 	.word	0x402631a9
    2d0c:	0e560419 	.word	0x0e560419
    2d10:	4026322d 	.word	0x4026322d
    2d14:	20c49ba6 	.word	0x20c49ba6
    2d18:	402632b0 	.word	0x402632b0
    2d1c:	33333333 	.word	0x33333333
    2d20:	40263333 	.word	0x40263333
    2d24:	45a1cac1 	.word	0x45a1cac1
    2d28:	402633b6 	.word	0x402633b6
    2d2c:	5810624e 	.word	0x5810624e
    2d30:	40263439 	.word	0x40263439
    2d34:	6a7ef9db 	.word	0x6a7ef9db
    2d38:	402634bc 	.word	0x402634bc
    2d3c:	7ced9168 	.word	0x7ced9168
    2d40:	4026353f 	.word	0x4026353f
    2d44:	8f5c28f6 	.word	0x8f5c28f6
    2d48:	402635c2 	.word	0x402635c2
    2d4c:	a1cac083 	.word	0xa1cac083
    2d50:	40263645 	.word	0x40263645
    2d54:	b4395810 	.word	0xb4395810
    2d58:	402636c8 	.word	0x402636c8
    2d5c:	c6a7ef9e 	.word	0xc6a7ef9e
    2d60:	4026374b 	.word	0x4026374b
    2d64:	d916872b 	.word	0xd916872b
    2d68:	402637ce 	.word	0x402637ce
    2d6c:	eb851eb8 	.word	0xeb851eb8
    2d70:	40263851 	.word	0x40263851
    2d74:	fdf3b646 	.word	0xfdf3b646
    2d78:	402638d4 	.word	0x402638d4
    2d7c:	10624dd3 	.word	0x10624dd3
    2d80:	40263958 	.word	0x40263958
    2d84:	22d0e560 	.word	0x22d0e560
    2d88:	402639db 	.word	0x402639db
    2d8c:	353f7cee 	.word	0x353f7cee
    2d90:	40263a5e 	.word	0x40263a5e
    2d94:	47ae147b 	.word	0x47ae147b
    2d98:	40263ae1 	.word	0x40263ae1
    2d9c:	5a1cac08 	.word	0x5a1cac08
    2da0:	40263b64 	.word	0x40263b64
    2da4:	6c8b4396 	.word	0x6c8b4396
    2da8:	40263be7 	.word	0x40263be7
    2dac:	7ef9db23 	.word	0x7ef9db23
    2db0:	40263c6a 	.word	0x40263c6a
    2db4:	916872b0 	.word	0x916872b0
    2db8:	40263ced 	.word	0x40263ced
    2dbc:	a3d70a3d 	.word	0xa3d70a3d
    2dc0:	40263d70 	.word	0x40263d70
    2dc4:	b645a1cb 	.word	0xb645a1cb
    2dc8:	40263df3 	.word	0x40263df3
    2dcc:	c8b43958 	.word	0xc8b43958
    2dd0:	40263e76 	.word	0x40263e76
    2dd4:	db22d0e5 	.word	0xdb22d0e5
    2dd8:	40263ef9 	.word	0x40263ef9
    2ddc:	ed916873 	.word	0xed916873
    2de0:	40263f7c 	.word	0x40263f7c
    2de4:	00000000 	.word	0x00000000
    2de8:	40264000 	.word	0x40264000
    2dec:	126e978d 	.word	0x126e978d
    2df0:	40264083 	.word	0x40264083
    2df4:	24dd2f1b 	.word	0x24dd2f1b
    2df8:	40264106 	.word	0x40264106
    2dfc:	374bc6a8 	.word	0x374bc6a8
    2e00:	40264189 	.word	0x40264189
    2e04:	126e978d 	.word	0x126e978d
    2e08:	40280083 	.word	0x40280083
    2e0c:	24dd2f1b 	.word	0x24dd2f1b
    2e10:	40280106 	.word	0x40280106
    2e14:	374bc6a8 	.word	0x374bc6a8
    2e18:	40280189 	.word	0x40280189
    2e1c:	49ba5e35 	.word	0x49ba5e35
    2e20:	4028020c 	.word	0x4028020c
    2e24:	5c28f5c3 	.word	0x5c28f5c3
    2e28:	4028028f 	.word	0x4028028f
    2e2c:	6e978d50 	.word	0x6e978d50
    2e30:	40280312 	.word	0x40280312
    2e34:	810624dd 	.word	0x810624dd
    2e38:	40280395 	.word	0x40280395
    2e3c:	9374bc6a 	.word	0x9374bc6a
    2e40:	40280418 	.word	0x40280418
    2e44:	a5e353f8 	.word	0xa5e353f8
    2e48:	4028049b 	.word	0x4028049b
    2e4c:	b851eb85 	.word	0xb851eb85
    2e50:	4028051e 	.word	0x4028051e
    2e54:	cac08312 	.word	0xcac08312
    2e58:	402805a1 	.word	0x402805a1
    2e5c:	dd2f1aa0 	.word	0xdd2f1aa0
    2e60:	40280624 	.word	0x40280624
    2e64:	ef9db22d 	.word	0xef9db22d
    2e68:	402806a7 	.word	0x402806a7
    2e6c:	020c49ba 	.word	0x020c49ba
    2e70:	4028072b 	.word	0x4028072b
    2e74:	147ae148 	.word	0x147ae148
    2e78:	402807ae 	.word	0x402807ae
    2e7c:	26e978d5 	.word	0x26e978d5
    2e80:	40280831 	.word	0x40280831
    2e84:	39581062 	.word	0x39581062
    2e88:	402808b4 	.word	0x402808b4
    2e8c:	4bc6a7f0 	.word	0x4bc6a7f0
    2e90:	40280937 	.word	0x40280937
    2e94:	5e353f7d 	.word	0x5e353f7d
    2e98:	402809ba 	.word	0x402809ba
    2e9c:	70a3d70a 	.word	0x70a3d70a
    2ea0:	40280a3d 	.word	0x40280a3d
    2ea4:	83126e98 	.word	0x83126e98
    2ea8:	40280ac0 	.word	0x40280ac0
    2eac:	95810625 	.word	0x95810625
    2eb0:	40280b43 	.word	0x40280b43
    2eb4:	a7ef9db2 	.word	0xa7ef9db2
    2eb8:	40280bc6 	.word	0x40280bc6
    2ebc:	ba5e353f 	.word	0xba5e353f
    2ec0:	40280c49 	.word	0x40280c49
    2ec4:	cccccccd 	.word	0xcccccccd
    2ec8:	40280ccc 	.word	0x40280ccc
    2ecc:	df3b645a 	.word	0xdf3b645a
    2ed0:	40280d4f 	.word	0x40280d4f
    2ed4:	f1a9fbe7 	.word	0xf1a9fbe7
    2ed8:	40280dd2 	.word	0x40280dd2
    2edc:	04189375 	.word	0x04189375
    2ee0:	40280e56 	.word	0x40280e56
    2ee4:	16872b02 	.word	0x16872b02
    2ee8:	40280ed9 	.word	0x40280ed9
    2eec:	28f5c28f 	.word	0x28f5c28f
    2ef0:	40280f5c 	.word	0x40280f5c
    2ef4:	3b645a1d 	.word	0x3b645a1d
    2ef8:	40280fdf 	.word	0x40280fdf
    2efc:	4dd2f1aa 	.word	0x4dd2f1aa
    2f00:	40281062 	.word	0x40281062
    2f04:	60418937 	.word	0x60418937
    2f08:	402810e5 	.word	0x402810e5
    2f0c:	72b020c5 	.word	0x72b020c5
    2f10:	40281168 	.word	0x40281168
    2f14:	851eb852 	.word	0x851eb852
    2f18:	402811eb 	.word	0x402811eb
    2f1c:	978d4fdf 	.word	0x978d4fdf
    2f20:	4028126e 	.word	0x4028126e
    2f24:	a9fbe76d 	.word	0xa9fbe76d
    2f28:	402812f1 	.word	0x402812f1
    2f2c:	bc6a7efa 	.word	0xbc6a7efa
    2f30:	40281374 	.word	0x40281374
    2f34:	ced91687 	.word	0xced91687
    2f38:	402813f7 	.word	0x402813f7
    2f3c:	e147ae14 	.word	0xe147ae14
    2f40:	4028147a 	.word	0x4028147a
    2f44:	f3b645a2 	.word	0xf3b645a2
    2f48:	402814fd 	.word	0x402814fd
    2f4c:	0624dd2f 	.word	0x0624dd2f
    2f50:	40281581 	.word	0x40281581
    2f54:	189374bc 	.word	0x189374bc
    2f58:	40281604 	.word	0x40281604
    2f5c:	2b020c4a 	.word	0x2b020c4a
    2f60:	40281687 	.word	0x40281687
    2f64:	3d70a3d7 	.word	0x3d70a3d7
    2f68:	4028170a 	.word	0x4028170a
    2f6c:	4fdf3b64 	.word	0x4fdf3b64
    2f70:	4028178d 	.word	0x4028178d
    2f74:	624dd2f2 	.word	0x624dd2f2
    2f78:	40281810 	.word	0x40281810
    2f7c:	74bc6a7f 	.word	0x74bc6a7f
    2f80:	40281893 	.word	0x40281893
    2f84:	872b020c 	.word	0x872b020c
    2f88:	40281916 	.word	0x40281916
    2f8c:	9999999a 	.word	0x9999999a
    2f90:	40281999 	.word	0x40281999
    2f94:	ac083127 	.word	0xac083127
    2f98:	40281a1c 	.word	0x40281a1c
    2f9c:	be76c8b4 	.word	0xbe76c8b4
    2fa0:	40281a9f 	.word	0x40281a9f
    2fa4:	d0e56042 	.word	0xd0e56042
    2fa8:	40281b22 	.word	0x40281b22
    2fac:	e353f7cf 	.word	0xe353f7cf
    2fb0:	40281ba5 	.word	0x40281ba5
    2fb4:	f5c28f5c 	.word	0xf5c28f5c
    2fb8:	40281c28 	.word	0x40281c28
    2fbc:	083126e9 	.word	0x083126e9
    2fc0:	40281cac 	.word	0x40281cac
    2fc4:	1a9fbe77 	.word	0x1a9fbe77
    2fc8:	40281d2f 	.word	0x40281d2f
    2fcc:	2d0e5604 	.word	0x2d0e5604
    2fd0:	40281db2 	.word	0x40281db2
    2fd4:	3f7ced91 	.word	0x3f7ced91
    2fd8:	40281e35 	.word	0x40281e35
    2fdc:	51eb851f 	.word	0x51eb851f
    2fe0:	40281eb8 	.word	0x40281eb8
    2fe4:	645a1cac 	.word	0x645a1cac
    2fe8:	40281f3b 	.word	0x40281f3b
    2fec:	76c8b439 	.word	0x76c8b439
    2ff0:	40281fbe 	.word	0x40281fbe
    2ff4:	89374bc7 	.word	0x89374bc7
    2ff8:	40282041 	.word	0x40282041
    2ffc:	9ba5e354 	.word	0x9ba5e354
    3000:	402820c4 	.word	0x402820c4
    3004:	ae147ae1 	.word	0xae147ae1
    3008:	40282147 	.word	0x40282147
    300c:	c083126f 	.word	0xc083126f
    3010:	402821ca 	.word	0x402821ca
    3014:	d2f1a9fc 	.word	0xd2f1a9fc
    3018:	4028224d 	.word	0x4028224d
    301c:	e5604189 	.word	0xe5604189
    3020:	402822d0 	.word	0x402822d0
    3024:	f7ced917 	.word	0xf7ced917
    3028:	40282353 	.word	0x40282353
    302c:	0a3d70a4 	.word	0x0a3d70a4
    3030:	402823d7 	.word	0x402823d7
    3034:	1cac0831 	.word	0x1cac0831
    3038:	4028245a 	.word	0x4028245a
    303c:	2f1a9fbe 	.word	0x2f1a9fbe
    3040:	402824dd 	.word	0x402824dd
    3044:	4189374c 	.word	0x4189374c
    3048:	40282560 	.word	0x40282560
    304c:	53f7ced9 	.word	0x53f7ced9
    3050:	402825e3 	.word	0x402825e3
    3054:	66666666 	.word	0x66666666
    3058:	40282666 	.word	0x40282666
    305c:	78d4fdf4 	.word	0x78d4fdf4
    3060:	402826e9 	.word	0x402826e9
    3064:	8b439581 	.word	0x8b439581
    3068:	4028276c 	.word	0x4028276c
    306c:	9db22d0e 	.word	0x9db22d0e
    3070:	402827ef 	.word	0x402827ef
    3074:	b020c49c 	.word	0xb020c49c
    3078:	40282872 	.word	0x40282872
    307c:	c28f5c29 	.word	0xc28f5c29
    3080:	402828f5 	.word	0x402828f5
    3084:	d4fdf3b6 	.word	0xd4fdf3b6
    3088:	40282978 	.word	0x40282978
    308c:	e76c8b44 	.word	0xe76c8b44
    3090:	402829fb 	.word	0x402829fb
    3094:	f9db22d1 	.word	0xf9db22d1
    3098:	40282a7e 	.word	0x40282a7e
    309c:	0c49ba5e 	.word	0x0c49ba5e
    30a0:	40282b02 	.word	0x40282b02
    30a4:	1eb851ec 	.word	0x1eb851ec
    30a8:	40282b85 	.word	0x40282b85
    30ac:	3126e979 	.word	0x3126e979
    30b0:	40282c08 	.word	0x40282c08
    30b4:	43958106 	.word	0x43958106
    30b8:	40282c8b 	.word	0x40282c8b
    30bc:	56041893 	.word	0x56041893
    30c0:	40282d0e 	.word	0x40282d0e
    30c4:	6872b021 	.word	0x6872b021
    30c8:	40282d91 	.word	0x40282d91
    30cc:	7ae147ae 	.word	0x7ae147ae
    30d0:	40282e14 	.word	0x40282e14
    30d4:	8d4fdf3b 	.word	0x8d4fdf3b
    30d8:	40282e97 	.word	0x40282e97
    30dc:	9fbe76c9 	.word	0x9fbe76c9
    30e0:	40282f1a 	.word	0x40282f1a
    30e4:	b22d0e56 	.word	0xb22d0e56
    30e8:	40282f9d 	.word	0x40282f9d
    30ec:	c49ba5e3 	.word	0xc49ba5e3
    30f0:	40283020 	.word	0x40283020
    30f4:	d70a3d71 	.word	0xd70a3d71
    30f8:	402830a3 	.word	0x402830a3
    30fc:	e978d4fe 	.word	0xe978d4fe
    3100:	40283126 	.word	0x40283126
    3104:	fbe76c8b 	.word	0xfbe76c8b
    3108:	402831a9 	.word	0x402831a9
    310c:	0e560419 	.word	0x0e560419
    3110:	4028322d 	.word	0x4028322d
    3114:	20c49ba6 	.word	0x20c49ba6
    3118:	402832b0 	.word	0x402832b0
    311c:	33333333 	.word	0x33333333
    3120:	40283333 	.word	0x40283333
    3124:	45a1cac1 	.word	0x45a1cac1
    3128:	402833b6 	.word	0x402833b6
    312c:	5810624e 	.word	0x5810624e
    3130:	40283439 	.word	0x40283439
    3134:	6a7ef9db 	.word	0x6a7ef9db
    3138:	402834bc 	.word	0x402834bc
    313c:	7ced9168 	.word	0x7ced9168
    3140:	4028353f 	.word	0x4028353f
    3144:	8f5c28f6 	.word	0x8f5c28f6
    3148:	402835c2 	.word	0x402835c2
    314c:	a1cac083 	.word	0xa1cac083
    3150:	40283645 	.word	0x40283645
    3154:	b4395810 	.word	0xb4395810
    3158:	402836c8 	.word	0x402836c8
    315c:	c6a7ef9e 	.word	0xc6a7ef9e
    3160:	4028374b 	.word	0x4028374b
    3164:	d916872b 	.word	0xd916872b
    3168:	402837ce 	.word	0x402837ce
    316c:	eb851eb8 	.word	0xeb851eb8
    3170:	40283851 	.word	0x40283851
    3174:	fdf3b646 	.word	0xfdf3b646
    3178:	402838d4 	.word	0x402838d4
    317c:	10624dd3 	.word	0x10624dd3
    3180:	40283958 	.word	0x40283958
    3184:	22d0e560 	.word	0x22d0e560
    3188:	402839db 	.word	0x402839db
    318c:	353f7cee 	.word	0x353f7cee
    3190:	40283a5e 	.word	0x40283a5e
    3194:	47ae147b 	.word	0x47ae147b
    3198:	40283ae1 	.word	0x40283ae1
    319c:	5a1cac08 	.word	0x5a1cac08
    31a0:	40283b64 	.word	0x40283b64
    31a4:	6c8b4396 	.word	0x6c8b4396
    31a8:	40283be7 	.word	0x40283be7
    31ac:	7ef9db23 	.word	0x7ef9db23
    31b0:	40283c6a 	.word	0x40283c6a
    31b4:	916872b0 	.word	0x916872b0
    31b8:	40283ced 	.word	0x40283ced
    31bc:	a3d70a3d 	.word	0xa3d70a3d
    31c0:	40283d70 	.word	0x40283d70
    31c4:	b645a1cb 	.word	0xb645a1cb
    31c8:	40283df3 	.word	0x40283df3
    31cc:	c8b43958 	.word	0xc8b43958
    31d0:	40283e76 	.word	0x40283e76
    31d4:	db22d0e5 	.word	0xdb22d0e5
    31d8:	40283ef9 	.word	0x40283ef9
    31dc:	ed916873 	.word	0xed916873
    31e0:	40283f7c 	.word	0x40283f7c
    31e4:	00000000 	.word	0x00000000
    31e8:	40284000 	.word	0x40284000
    31ec:	126e978d 	.word	0x126e978d
    31f0:	40284083 	.word	0x40284083
    31f4:	24dd2f1b 	.word	0x24dd2f1b
    31f8:	40284106 	.word	0x40284106
    31fc:	374bc6a8 	.word	0x374bc6a8
    3200:	40284189 	.word	0x40284189
    3204:	126e978d 	.word	0x126e978d
    3208:	402a0083 	.word	0x402a0083
    320c:	24dd2f1b 	.word	0x24dd2f1b
    3210:	402a0106 	.word	0x402a0106
    3214:	374bc6a8 	.word	0x374bc6a8
    3218:	402a0189 	.word	0x402a0189
    321c:	49ba5e35 	.word	0x49ba5e35
    3220:	402a020c 	.word	0x402a020c
    3224:	5c28f5c3 	.word	0x5c28f5c3
    3228:	402a028f 	.word	0x402a028f
    322c:	6e978d50 	.word	0x6e978d50
    3230:	402a0312 	.word	0x402a0312
    3234:	810624dd 	.word	0x810624dd
    3238:	402a0395 	.word	0x402a0395
    323c:	9374bc6a 	.word	0x9374bc6a
    3240:	402a0418 	.word	0x402a0418
    3244:	a5e353f8 	.word	0xa5e353f8
    3248:	402a049b 	.word	0x402a049b
    324c:	b851eb85 	.word	0xb851eb85
    3250:	402a051e 	.word	0x402a051e
    3254:	cac08312 	.word	0xcac08312
    3258:	402a05a1 	.word	0x402a05a1
    325c:	dd2f1aa0 	.word	0xdd2f1aa0
    3260:	402a0624 	.word	0x402a0624
    3264:	ef9db22d 	.word	0xef9db22d
    3268:	402a06a7 	.word	0x402a06a7
    326c:	020c49ba 	.word	0x020c49ba
    3270:	402a072b 	.word	0x402a072b
    3274:	147ae148 	.word	0x147ae148
    3278:	402a07ae 	.word	0x402a07ae
    327c:	26e978d5 	.word	0x26e978d5
    3280:	402a0831 	.word	0x402a0831
    3284:	39581062 	.word	0x39581062
    3288:	402a08b4 	.word	0x402a08b4
    328c:	4bc6a7f0 	.word	0x4bc6a7f0
    3290:	402a0937 	.word	0x402a0937
    3294:	5e353f7d 	.word	0x5e353f7d
    3298:	402a09ba 	.word	0x402a09ba
    329c:	70a3d70a 	.word	0x70a3d70a
    32a0:	402a0a3d 	.word	0x402a0a3d
    32a4:	83126e98 	.word	0x83126e98
    32a8:	402a0ac0 	.word	0x402a0ac0
    32ac:	95810625 	.word	0x95810625
    32b0:	402a0b43 	.word	0x402a0b43
    32b4:	a7ef9db2 	.word	0xa7ef9db2
    32b8:	402a0bc6 	.word	0x402a0bc6
    32bc:	ba5e353f 	.word	0xba5e353f
    32c0:	402a0c49 	.word	0x402a0c49
    32c4:	cccccccd 	.word	0xcccccccd
    32c8:	402a0ccc 	.word	0x402a0ccc
    32cc:	df3b645a 	.word	0xdf3b645a
    32d0:	402a0d4f 	.word	0x402a0d4f
    32d4:	f1a9fbe7 	.word	0xf1a9fbe7
    32d8:	402a0dd2 	.word	0x402a0dd2
    32dc:	04189375 	.word	0x04189375
    32e0:	402a0e56 	.word	0x402a0e56
    32e4:	16872b02 	.word	0x16872b02
    32e8:	402a0ed9 	.word	0x402a0ed9
    32ec:	28f5c28f 	.word	0x28f5c28f
    32f0:	402a0f5c 	.word	0x402a0f5c
    32f4:	3b645a1d 	.word	0x3b645a1d
    32f8:	402a0fdf 	.word	0x402a0fdf
    32fc:	4dd2f1aa 	.word	0x4dd2f1aa
    3300:	402a1062 	.word	0x402a1062
    3304:	60418937 	.word	0x60418937
    3308:	402a10e5 	.word	0x402a10e5
    330c:	72b020c5 	.word	0x72b020c5
    3310:	402a1168 	.word	0x402a1168
    3314:	851eb852 	.word	0x851eb852
    3318:	402a11eb 	.word	0x402a11eb
    331c:	978d4fdf 	.word	0x978d4fdf
    3320:	402a126e 	.word	0x402a126e
    3324:	a9fbe76d 	.word	0xa9fbe76d
    3328:	402a12f1 	.word	0x402a12f1
    332c:	bc6a7efa 	.word	0xbc6a7efa
    3330:	402a1374 	.word	0x402a1374
    3334:	ced91687 	.word	0xced91687
    3338:	402a13f7 	.word	0x402a13f7
    333c:	e147ae14 	.word	0xe147ae14
    3340:	402a147a 	.word	0x402a147a
    3344:	f3b645a2 	.word	0xf3b645a2
    3348:	402a14fd 	.word	0x402a14fd
    334c:	0624dd2f 	.word	0x0624dd2f
    3350:	402a1581 	.word	0x402a1581
    3354:	189374bc 	.word	0x189374bc
    3358:	402a1604 	.word	0x402a1604
    335c:	2b020c4a 	.word	0x2b020c4a
    3360:	402a1687 	.word	0x402a1687
    3364:	3d70a3d7 	.word	0x3d70a3d7
    3368:	402a170a 	.word	0x402a170a
    336c:	4fdf3b64 	.word	0x4fdf3b64
    3370:	402a178d 	.word	0x402a178d
    3374:	624dd2f2 	.word	0x624dd2f2
    3378:	402a1810 	.word	0x402a1810
    337c:	74bc6a7f 	.word	0x74bc6a7f
    3380:	402a1893 	.word	0x402a1893
    3384:	872b020c 	.word	0x872b020c
    3388:	402a1916 	.word	0x402a1916
    338c:	9999999a 	.word	0x9999999a
    3390:	402a1999 	.word	0x402a1999
    3394:	ac083127 	.word	0xac083127
    3398:	402a1a1c 	.word	0x402a1a1c
    339c:	be76c8b4 	.word	0xbe76c8b4
    33a0:	402a1a9f 	.word	0x402a1a9f
    33a4:	d0e56042 	.word	0xd0e56042
    33a8:	402a1b22 	.word	0x402a1b22
    33ac:	e353f7cf 	.word	0xe353f7cf
    33b0:	402a1ba5 	.word	0x402a1ba5
    33b4:	f5c28f5c 	.word	0xf5c28f5c
    33b8:	402a1c28 	.word	0x402a1c28
    33bc:	083126e9 	.word	0x083126e9
    33c0:	402a1cac 	.word	0x402a1cac
    33c4:	1a9fbe77 	.word	0x1a9fbe77
    33c8:	402a1d2f 	.word	0x402a1d2f
    33cc:	2d0e5604 	.word	0x2d0e5604
    33d0:	402a1db2 	.word	0x402a1db2
    33d4:	3f7ced91 	.word	0x3f7ced91
    33d8:	402a1e35 	.word	0x402a1e35
    33dc:	51eb851f 	.word	0x51eb851f
    33e0:	402a1eb8 	.word	0x402a1eb8
    33e4:	645a1cac 	.word	0x645a1cac
    33e8:	402a1f3b 	.word	0x402a1f3b
    33ec:	76c8b439 	.word	0x76c8b439
    33f0:	402a1fbe 	.word	0x402a1fbe
    33f4:	89374bc7 	.word	0x89374bc7
    33f8:	402a2041 	.word	0x402a2041
    33fc:	9ba5e354 	.word	0x9ba5e354
    3400:	402a20c4 	.word	0x402a20c4
    3404:	ae147ae1 	.word	0xae147ae1
    3408:	402a2147 	.word	0x402a2147
    340c:	c083126f 	.word	0xc083126f
    3410:	402a21ca 	.word	0x402a21ca
    3414:	d2f1a9fc 	.word	0xd2f1a9fc
    3418:	402a224d 	.word	0x402a224d
    341c:	e5604189 	.word	0xe5604189
    3420:	402a22d0 	.word	0x402a22d0
    3424:	f7ced917 	.word	0xf7ced917
    3428:	402a2353 	.word	0x402a2353
    342c:	0a3d70a4 	.word	0x0a3d70a4
    3430:	402a23d7 	.word	0x402a23d7
    3434:	1cac0831 	.word	0x1cac0831
    3438:	402a245a 	.word	0x402a245a
    343c:	2f1a9fbe 	.word	0x2f1a9fbe
    3440:	402a24dd 	.word	0x402a24dd
    3444:	4189374c 	.word	0x4189374c
    3448:	402a2560 	.word	0x402a2560
    344c:	53f7ced9 	.word	0x53f7ced9
    3450:	402a25e3 	.word	0x402a25e3
    3454:	66666666 	.word	0x66666666
    3458:	402a2666 	.word	0x402a2666
    345c:	78d4fdf4 	.word	0x78d4fdf4
    3460:	402a26e9 	.word	0x402a26e9
    3464:	8b439581 	.word	0x8b439581
    3468:	402a276c 	.word	0x402a276c
    346c:	9db22d0e 	.word	0x9db22d0e
    3470:	402a27ef 	.word	0x402a27ef
    3474:	b020c49c 	.word	0xb020c49c
    3478:	402a2872 	.word	0x402a2872
    347c:	c28f5c29 	.word	0xc28f5c29
    3480:	402a28f5 	.word	0x402a28f5
    3484:	d4fdf3b6 	.word	0xd4fdf3b6
    3488:	402a2978 	.word	0x402a2978
    348c:	e76c8b44 	.word	0xe76c8b44
    3490:	402a29fb 	.word	0x402a29fb
    3494:	f9db22d1 	.word	0xf9db22d1
    3498:	402a2a7e 	.word	0x402a2a7e
    349c:	0c49ba5e 	.word	0x0c49ba5e
    34a0:	402a2b02 	.word	0x402a2b02
    34a4:	1eb851ec 	.word	0x1eb851ec
    34a8:	402a2b85 	.word	0x402a2b85
    34ac:	3126e979 	.word	0x3126e979
    34b0:	402a2c08 	.word	0x402a2c08
    34b4:	43958106 	.word	0x43958106
    34b8:	402a2c8b 	.word	0x402a2c8b
    34bc:	56041893 	.word	0x56041893
    34c0:	402a2d0e 	.word	0x402a2d0e
    34c4:	6872b021 	.word	0x6872b021
    34c8:	402a2d91 	.word	0x402a2d91
    34cc:	7ae147ae 	.word	0x7ae147ae
    34d0:	402a2e14 	.word	0x402a2e14
    34d4:	8d4fdf3b 	.word	0x8d4fdf3b
    34d8:	402a2e97 	.word	0x402a2e97
    34dc:	9fbe76c9 	.word	0x9fbe76c9
    34e0:	402a2f1a 	.word	0x402a2f1a
    34e4:	b22d0e56 	.word	0xb22d0e56
    34e8:	402a2f9d 	.word	0x402a2f9d
    34ec:	c49ba5e3 	.word	0xc49ba5e3
    34f0:	402a3020 	.word	0x402a3020
    34f4:	d70a3d71 	.word	0xd70a3d71
    34f8:	402a30a3 	.word	0x402a30a3
    34fc:	e978d4fe 	.word	0xe978d4fe
    3500:	402a3126 	.word	0x402a3126
    3504:	fbe76c8b 	.word	0xfbe76c8b
    3508:	402a31a9 	.word	0x402a31a9
    350c:	0e560419 	.word	0x0e560419
    3510:	402a322d 	.word	0x402a322d
    3514:	20c49ba6 	.word	0x20c49ba6
    3518:	402a32b0 	.word	0x402a32b0
    351c:	33333333 	.word	0x33333333
    3520:	402a3333 	.word	0x402a3333
    3524:	45a1cac1 	.word	0x45a1cac1
    3528:	402a33b6 	.word	0x402a33b6
    352c:	5810624e 	.word	0x5810624e
    3530:	402a3439 	.word	0x402a3439
    3534:	6a7ef9db 	.word	0x6a7ef9db
    3538:	402a34bc 	.word	0x402a34bc
    353c:	7ced9168 	.word	0x7ced9168
    3540:	402a353f 	.word	0x402a353f
    3544:	8f5c28f6 	.word	0x8f5c28f6
    3548:	402a35c2 	.word	0x402a35c2
    354c:	a1cac083 	.word	0xa1cac083
    3550:	402a3645 	.word	0x402a3645
    3554:	b4395810 	.word	0xb4395810
    3558:	402a36c8 	.word	0x402a36c8
    355c:	c6a7ef9e 	.word	0xc6a7ef9e
    3560:	402a374b 	.word	0x402a374b
    3564:	d916872b 	.word	0xd916872b
    3568:	402a37ce 	.word	0x402a37ce
    356c:	eb851eb8 	.word	0xeb851eb8
    3570:	402a3851 	.word	0x402a3851
    3574:	fdf3b646 	.word	0xfdf3b646
    3578:	402a38d4 	.word	0x402a38d4
    357c:	10624dd3 	.word	0x10624dd3
    3580:	402a3958 	.word	0x402a3958
    3584:	22d0e560 	.word	0x22d0e560
    3588:	402a39db 	.word	0x402a39db
    358c:	353f7cee 	.word	0x353f7cee
    3590:	402a3a5e 	.word	0x402a3a5e
    3594:	47ae147b 	.word	0x47ae147b
    3598:	402a3ae1 	.word	0x402a3ae1
    359c:	5a1cac08 	.word	0x5a1cac08
    35a0:	402a3b64 	.word	0x402a3b64
    35a4:	6c8b4396 	.word	0x6c8b4396
    35a8:	402a3be7 	.word	0x402a3be7
    35ac:	7ef9db23 	.word	0x7ef9db23
    35b0:	402a3c6a 	.word	0x402a3c6a
    35b4:	916872b0 	.word	0x916872b0
    35b8:	402a3ced 	.word	0x402a3ced
    35bc:	a3d70a3d 	.word	0xa3d70a3d
    35c0:	402a3d70 	.word	0x402a3d70
    35c4:	b645a1cb 	.word	0xb645a1cb
    35c8:	402a3df3 	.word	0x402a3df3
    35cc:	c8b43958 	.word	0xc8b43958
    35d0:	402a3e76 	.word	0x402a3e76
    35d4:	db22d0e5 	.word	0xdb22d0e5
    35d8:	402a3ef9 	.word	0x402a3ef9
    35dc:	ed916873 	.word	0xed916873
    35e0:	402a3f7c 	.word	0x402a3f7c
    35e4:	00000000 	.word	0x00000000
    35e8:	402a4000 	.word	0x402a4000
    35ec:	126e978d 	.word	0x126e978d
    35f0:	402a4083 	.word	0x402a4083
    35f4:	24dd2f1b 	.word	0x24dd2f1b
    35f8:	402a4106 	.word	0x402a4106
    35fc:	374bc6a8 	.word	0x374bc6a8
    3600:	402a4189 	.word	0x402a4189
    3604:	126e978d 	.word	0x126e978d
    3608:	402c0083 	.word	0x402c0083
    360c:	24dd2f1b 	.word	0x24dd2f1b
    3610:	402c0106 	.word	0x402c0106
    3614:	374bc6a8 	.word	0x374bc6a8
    3618:	402c0189 	.word	0x402c0189
    361c:	49ba5e35 	.word	0x49ba5e35
    3620:	402c020c 	.word	0x402c020c
    3624:	5c28f5c3 	.word	0x5c28f5c3
    3628:	402c028f 	.word	0x402c028f
    362c:	6e978d50 	.word	0x6e978d50
    3630:	402c0312 	.word	0x402c0312
    3634:	810624dd 	.word	0x810624dd
    3638:	402c0395 	.word	0x402c0395
    363c:	9374bc6a 	.word	0x9374bc6a
    3640:	402c0418 	.word	0x402c0418
    3644:	a5e353f8 	.word	0xa5e353f8
    3648:	402c049b 	.word	0x402c049b
    364c:	b851eb85 	.word	0xb851eb85
    3650:	402c051e 	.word	0x402c051e
    3654:	cac08312 	.word	0xcac08312
    3658:	402c05a1 	.word	0x402c05a1
    365c:	dd2f1aa0 	.word	0xdd2f1aa0
    3660:	402c0624 	.word	0x402c0624
    3664:	ef9db22d 	.word	0xef9db22d
    3668:	402c06a7 	.word	0x402c06a7
    366c:	020c49ba 	.word	0x020c49ba
    3670:	402c072b 	.word	0x402c072b
    3674:	147ae148 	.word	0x147ae148
    3678:	402c07ae 	.word	0x402c07ae
    367c:	26e978d5 	.word	0x26e978d5
    3680:	402c0831 	.word	0x402c0831
    3684:	39581062 	.word	0x39581062
    3688:	402c08b4 	.word	0x402c08b4
    368c:	4bc6a7f0 	.word	0x4bc6a7f0
    3690:	402c0937 	.word	0x402c0937
    3694:	5e353f7d 	.word	0x5e353f7d
    3698:	402c09ba 	.word	0x402c09ba
    369c:	70a3d70a 	.word	0x70a3d70a
    36a0:	402c0a3d 	.word	0x402c0a3d
    36a4:	83126e98 	.word	0x83126e98
    36a8:	402c0ac0 	.word	0x402c0ac0
    36ac:	95810625 	.word	0x95810625
    36b0:	402c0b43 	.word	0x402c0b43
    36b4:	a7ef9db2 	.word	0xa7ef9db2
    36b8:	402c0bc6 	.word	0x402c0bc6
    36bc:	ba5e353f 	.word	0xba5e353f
    36c0:	402c0c49 	.word	0x402c0c49
    36c4:	cccccccd 	.word	0xcccccccd
    36c8:	402c0ccc 	.word	0x402c0ccc
    36cc:	df3b645a 	.word	0xdf3b645a
    36d0:	402c0d4f 	.word	0x402c0d4f
    36d4:	f1a9fbe7 	.word	0xf1a9fbe7
    36d8:	402c0dd2 	.word	0x402c0dd2
    36dc:	04189375 	.word	0x04189375
    36e0:	402c0e56 	.word	0x402c0e56
    36e4:	16872b02 	.word	0x16872b02
    36e8:	402c0ed9 	.word	0x402c0ed9
    36ec:	28f5c28f 	.word	0x28f5c28f
    36f0:	402c0f5c 	.word	0x402c0f5c
    36f4:	3b645a1d 	.word	0x3b645a1d
    36f8:	402c0fdf 	.word	0x402c0fdf
    36fc:	4dd2f1aa 	.word	0x4dd2f1aa
    3700:	402c1062 	.word	0x402c1062
    3704:	60418937 	.word	0x60418937
    3708:	402c10e5 	.word	0x402c10e5
    370c:	72b020c5 	.word	0x72b020c5
    3710:	402c1168 	.word	0x402c1168
    3714:	851eb852 	.word	0x851eb852
    3718:	402c11eb 	.word	0x402c11eb
    371c:	978d4fdf 	.word	0x978d4fdf
    3720:	402c126e 	.word	0x402c126e
    3724:	a9fbe76d 	.word	0xa9fbe76d
    3728:	402c12f1 	.word	0x402c12f1
    372c:	bc6a7efa 	.word	0xbc6a7efa
    3730:	402c1374 	.word	0x402c1374
    3734:	ced91687 	.word	0xced91687
    3738:	402c13f7 	.word	0x402c13f7
    373c:	e147ae14 	.word	0xe147ae14
    3740:	402c147a 	.word	0x402c147a
    3744:	f3b645a2 	.word	0xf3b645a2
    3748:	402c14fd 	.word	0x402c14fd
    374c:	0624dd2f 	.word	0x0624dd2f
    3750:	402c1581 	.word	0x402c1581
    3754:	189374bc 	.word	0x189374bc
    3758:	402c1604 	.word	0x402c1604
    375c:	2b020c4a 	.word	0x2b020c4a
    3760:	402c1687 	.word	0x402c1687
    3764:	3d70a3d7 	.word	0x3d70a3d7
    3768:	402c170a 	.word	0x402c170a
    376c:	4fdf3b64 	.word	0x4fdf3b64
    3770:	402c178d 	.word	0x402c178d
    3774:	624dd2f2 	.word	0x624dd2f2
    3778:	402c1810 	.word	0x402c1810
    377c:	74bc6a7f 	.word	0x74bc6a7f
    3780:	402c1893 	.word	0x402c1893
    3784:	872b020c 	.word	0x872b020c
    3788:	402c1916 	.word	0x402c1916
    378c:	9999999a 	.word	0x9999999a
    3790:	402c1999 	.word	0x402c1999
    3794:	ac083127 	.word	0xac083127
    3798:	402c1a1c 	.word	0x402c1a1c
    379c:	be76c8b4 	.word	0xbe76c8b4
    37a0:	402c1a9f 	.word	0x402c1a9f
    37a4:	d0e56042 	.word	0xd0e56042
    37a8:	402c1b22 	.word	0x402c1b22
    37ac:	e353f7cf 	.word	0xe353f7cf
    37b0:	402c1ba5 	.word	0x402c1ba5
    37b4:	f5c28f5c 	.word	0xf5c28f5c
    37b8:	402c1c28 	.word	0x402c1c28
    37bc:	083126e9 	.word	0x083126e9
    37c0:	402c1cac 	.word	0x402c1cac
    37c4:	1a9fbe77 	.word	0x1a9fbe77
    37c8:	402c1d2f 	.word	0x402c1d2f
    37cc:	2d0e5604 	.word	0x2d0e5604
    37d0:	402c1db2 	.word	0x402c1db2
    37d4:	3f7ced91 	.word	0x3f7ced91
    37d8:	402c1e35 	.word	0x402c1e35
    37dc:	51eb851f 	.word	0x51eb851f
    37e0:	402c1eb8 	.word	0x402c1eb8
    37e4:	645a1cac 	.word	0x645a1cac
    37e8:	402c1f3b 	.word	0x402c1f3b
    37ec:	76c8b439 	.word	0x76c8b439
    37f0:	402c1fbe 	.word	0x402c1fbe
    37f4:	89374bc7 	.word	0x89374bc7
    37f8:	402c2041 	.word	0x402c2041
    37fc:	9ba5e354 	.word	0x9ba5e354
    3800:	402c20c4 	.word	0x402c20c4
    3804:	ae147ae1 	.word	0xae147ae1
    3808:	402c2147 	.word	0x402c2147
    380c:	c083126f 	.word	0xc083126f
    3810:	402c21ca 	.word	0x402c21ca
    3814:	d2f1a9fc 	.word	0xd2f1a9fc
    3818:	402c224d 	.word	0x402c224d
    381c:	e5604189 	.word	0xe5604189
    3820:	402c22d0 	.word	0x402c22d0
    3824:	f7ced917 	.word	0xf7ced917
    3828:	402c2353 	.word	0x402c2353
    382c:	0a3d70a4 	.word	0x0a3d70a4
    3830:	402c23d7 	.word	0x402c23d7
    3834:	1cac0831 	.word	0x1cac0831
    3838:	402c245a 	.word	0x402c245a
    383c:	2f1a9fbe 	.word	0x2f1a9fbe
    3840:	402c24dd 	.word	0x402c24dd
    3844:	4189374c 	.word	0x4189374c
    3848:	402c2560 	.word	0x402c2560
    384c:	53f7ced9 	.word	0x53f7ced9
    3850:	402c25e3 	.word	0x402c25e3
    3854:	66666666 	.word	0x66666666
    3858:	402c2666 	.word	0x402c2666
    385c:	78d4fdf4 	.word	0x78d4fdf4
    3860:	402c26e9 	.word	0x402c26e9
    3864:	8b439581 	.word	0x8b439581
    3868:	402c276c 	.word	0x402c276c
    386c:	9db22d0e 	.word	0x9db22d0e
    3870:	402c27ef 	.word	0x402c27ef
    3874:	b020c49c 	.word	0xb020c49c
    3878:	402c2872 	.word	0x402c2872
    387c:	c28f5c29 	.word	0xc28f5c29
    3880:	402c28f5 	.word	0x402c28f5
    3884:	d4fdf3b6 	.word	0xd4fdf3b6
    3888:	402c2978 	.word	0x402c2978
    388c:	e76c8b44 	.word	0xe76c8b44
    3890:	402c29fb 	.word	0x402c29fb
    3894:	f9db22d1 	.word	0xf9db22d1
    3898:	402c2a7e 	.word	0x402c2a7e
    389c:	0c49ba5e 	.word	0x0c49ba5e
    38a0:	402c2b02 	.word	0x402c2b02
    38a4:	1eb851ec 	.word	0x1eb851ec
    38a8:	402c2b85 	.word	0x402c2b85
    38ac:	3126e979 	.word	0x3126e979
    38b0:	402c2c08 	.word	0x402c2c08
    38b4:	43958106 	.word	0x43958106
    38b8:	402c2c8b 	.word	0x402c2c8b
    38bc:	56041893 	.word	0x56041893
    38c0:	402c2d0e 	.word	0x402c2d0e
    38c4:	6872b021 	.word	0x6872b021
    38c8:	402c2d91 	.word	0x402c2d91
    38cc:	7ae147ae 	.word	0x7ae147ae
    38d0:	402c2e14 	.word	0x402c2e14
    38d4:	8d4fdf3b 	.word	0x8d4fdf3b
    38d8:	402c2e97 	.word	0x402c2e97
    38dc:	9fbe76c9 	.word	0x9fbe76c9
    38e0:	402c2f1a 	.word	0x402c2f1a
    38e4:	b22d0e56 	.word	0xb22d0e56
    38e8:	402c2f9d 	.word	0x402c2f9d
    38ec:	c49ba5e3 	.word	0xc49ba5e3
    38f0:	402c3020 	.word	0x402c3020
    38f4:	d70a3d71 	.word	0xd70a3d71
    38f8:	402c30a3 	.word	0x402c30a3
    38fc:	e978d4fe 	.word	0xe978d4fe
    3900:	402c3126 	.word	0x402c3126
    3904:	fbe76c8b 	.word	0xfbe76c8b
    3908:	402c31a9 	.word	0x402c31a9
    390c:	0e560419 	.word	0x0e560419
    3910:	402c322d 	.word	0x402c322d
    3914:	20c49ba6 	.word	0x20c49ba6
    3918:	402c32b0 	.word	0x402c32b0
    391c:	33333333 	.word	0x33333333
    3920:	402c3333 	.word	0x402c3333
    3924:	45a1cac1 	.word	0x45a1cac1
    3928:	402c33b6 	.word	0x402c33b6
    392c:	5810624e 	.word	0x5810624e
    3930:	402c3439 	.word	0x402c3439
    3934:	6a7ef9db 	.word	0x6a7ef9db
    3938:	402c34bc 	.word	0x402c34bc
    393c:	7ced9168 	.word	0x7ced9168
    3940:	402c353f 	.word	0x402c353f
    3944:	8f5c28f6 	.word	0x8f5c28f6
    3948:	402c35c2 	.word	0x402c35c2
    394c:	a1cac083 	.word	0xa1cac083
    3950:	402c3645 	.word	0x402c3645
    3954:	b4395810 	.word	0xb4395810
    3958:	402c36c8 	.word	0x402c36c8
    395c:	c6a7ef9e 	.word	0xc6a7ef9e
    3960:	402c374b 	.word	0x402c374b
    3964:	d916872b 	.word	0xd916872b
    3968:	402c37ce 	.word	0x402c37ce
    396c:	eb851eb8 	.word	0xeb851eb8
    3970:	402c3851 	.word	0x402c3851
    3974:	fdf3b646 	.word	0xfdf3b646
    3978:	402c38d4 	.word	0x402c38d4
    397c:	10624dd3 	.word	0x10624dd3
    3980:	402c3958 	.word	0x402c3958
    3984:	22d0e560 	.word	0x22d0e560
    3988:	402c39db 	.word	0x402c39db
    398c:	353f7cee 	.word	0x353f7cee
    3990:	402c3a5e 	.word	0x402c3a5e
    3994:	47ae147b 	.word	0x47ae147b
    3998:	402c3ae1 	.word	0x402c3ae1
    399c:	5a1cac08 	.word	0x5a1cac08
    39a0:	402c3b64 	.word	0x402c3b64
    39a4:	6c8b4396 	.word	0x6c8b4396
    39a8:	402c3be7 	.word	0x402c3be7
    39ac:	7ef9db23 	.word	0x7ef9db23
    39b0:	402c3c6a 	.word	0x402c3c6a
    39b4:	916872b0 	.word	0x916872b0
    39b8:	402c3ced 	.word	0x402c3ced
    39bc:	a3d70a3d 	.word	0xa3d70a3d
    39c0:	402c3d70 	.word	0x402c3d70
    39c4:	b645a1cb 	.word	0xb645a1cb
    39c8:	402c3df3 	.word	0x402c3df3
    39cc:	c8b43958 	.word	0xc8b43958
    39d0:	402c3e76 	.word	0x402c3e76
    39d4:	db22d0e5 	.word	0xdb22d0e5
    39d8:	402c3ef9 	.word	0x402c3ef9
    39dc:	ed916873 	.word	0xed916873
    39e0:	402c3f7c 	.word	0x402c3f7c
    39e4:	00000000 	.word	0x00000000
    39e8:	402c4000 	.word	0x402c4000
    39ec:	126e978d 	.word	0x126e978d
    39f0:	402c4083 	.word	0x402c4083
    39f4:	24dd2f1b 	.word	0x24dd2f1b
    39f8:	402c4106 	.word	0x402c4106
    39fc:	374bc6a8 	.word	0x374bc6a8
    3a00:	402c4189 	.word	0x402c4189
    3a04:	126e978d 	.word	0x126e978d
    3a08:	402e0083 	.word	0x402e0083
    3a0c:	24dd2f1b 	.word	0x24dd2f1b
    3a10:	402e0106 	.word	0x402e0106
    3a14:	374bc6a8 	.word	0x374bc6a8
    3a18:	402e0189 	.word	0x402e0189
    3a1c:	49ba5e35 	.word	0x49ba5e35
    3a20:	402e020c 	.word	0x402e020c
    3a24:	5c28f5c3 	.word	0x5c28f5c3
    3a28:	402e028f 	.word	0x402e028f
    3a2c:	6e978d50 	.word	0x6e978d50
    3a30:	402e0312 	.word	0x402e0312
    3a34:	810624dd 	.word	0x810624dd
    3a38:	402e0395 	.word	0x402e0395
    3a3c:	9374bc6a 	.word	0x9374bc6a
    3a40:	402e0418 	.word	0x402e0418
    3a44:	a5e353f8 	.word	0xa5e353f8
    3a48:	402e049b 	.word	0x402e049b
    3a4c:	b851eb85 	.word	0xb851eb85
    3a50:	402e051e 	.word	0x402e051e
    3a54:	cac08312 	.word	0xcac08312
    3a58:	402e05a1 	.word	0x402e05a1
    3a5c:	dd2f1aa0 	.word	0xdd2f1aa0
    3a60:	402e0624 	.word	0x402e0624
    3a64:	ef9db22d 	.word	0xef9db22d
    3a68:	402e06a7 	.word	0x402e06a7
    3a6c:	020c49ba 	.word	0x020c49ba
    3a70:	402e072b 	.word	0x402e072b
    3a74:	147ae148 	.word	0x147ae148
    3a78:	402e07ae 	.word	0x402e07ae
    3a7c:	26e978d5 	.word	0x26e978d5
    3a80:	402e0831 	.word	0x402e0831
    3a84:	39581062 	.word	0x39581062
    3a88:	402e08b4 	.word	0x402e08b4
    3a8c:	4bc6a7f0 	.word	0x4bc6a7f0
    3a90:	402e0937 	.word	0x402e0937
    3a94:	5e353f7d 	.word	0x5e353f7d
    3a98:	402e09ba 	.word	0x402e09ba
    3a9c:	70a3d70a 	.word	0x70a3d70a
    3aa0:	402e0a3d 	.word	0x402e0a3d
    3aa4:	83126e98 	.word	0x83126e98
    3aa8:	402e0ac0 	.word	0x402e0ac0
    3aac:	95810625 	.word	0x95810625
    3ab0:	402e0b43 	.word	0x402e0b43
    3ab4:	a7ef9db2 	.word	0xa7ef9db2
    3ab8:	402e0bc6 	.word	0x402e0bc6
    3abc:	ba5e353f 	.word	0xba5e353f
    3ac0:	402e0c49 	.word	0x402e0c49
    3ac4:	cccccccd 	.word	0xcccccccd
    3ac8:	402e0ccc 	.word	0x402e0ccc
    3acc:	df3b645a 	.word	0xdf3b645a
    3ad0:	402e0d4f 	.word	0x402e0d4f
    3ad4:	f1a9fbe7 	.word	0xf1a9fbe7
    3ad8:	402e0dd2 	.word	0x402e0dd2
    3adc:	04189375 	.word	0x04189375
    3ae0:	402e0e56 	.word	0x402e0e56
    3ae4:	16872b02 	.word	0x16872b02
    3ae8:	402e0ed9 	.word	0x402e0ed9
    3aec:	28f5c28f 	.word	0x28f5c28f
    3af0:	402e0f5c 	.word	0x402e0f5c
    3af4:	3b645a1d 	.word	0x3b645a1d
    3af8:	402e0fdf 	.word	0x402e0fdf
    3afc:	4dd2f1aa 	.word	0x4dd2f1aa
    3b00:	402e1062 	.word	0x402e1062
    3b04:	60418937 	.word	0x60418937
    3b08:	402e10e5 	.word	0x402e10e5
    3b0c:	72b020c5 	.word	0x72b020c5
    3b10:	402e1168 	.word	0x402e1168
    3b14:	851eb852 	.word	0x851eb852
    3b18:	402e11eb 	.word	0x402e11eb
    3b1c:	978d4fdf 	.word	0x978d4fdf
    3b20:	402e126e 	.word	0x402e126e
    3b24:	a9fbe76d 	.word	0xa9fbe76d
    3b28:	402e12f1 	.word	0x402e12f1
    3b2c:	bc6a7efa 	.word	0xbc6a7efa
    3b30:	402e1374 	.word	0x402e1374
    3b34:	ced91687 	.word	0xced91687
    3b38:	402e13f7 	.word	0x402e13f7
    3b3c:	e147ae14 	.word	0xe147ae14
    3b40:	402e147a 	.word	0x402e147a
    3b44:	f3b645a2 	.word	0xf3b645a2
    3b48:	402e14fd 	.word	0x402e14fd
    3b4c:	0624dd2f 	.word	0x0624dd2f
    3b50:	402e1581 	.word	0x402e1581
    3b54:	189374bc 	.word	0x189374bc
    3b58:	402e1604 	.word	0x402e1604
    3b5c:	2b020c4a 	.word	0x2b020c4a
    3b60:	402e1687 	.word	0x402e1687
    3b64:	3d70a3d7 	.word	0x3d70a3d7
    3b68:	402e170a 	.word	0x402e170a
    3b6c:	4fdf3b64 	.word	0x4fdf3b64
    3b70:	402e178d 	.word	0x402e178d
    3b74:	624dd2f2 	.word	0x624dd2f2
    3b78:	402e1810 	.word	0x402e1810
    3b7c:	74bc6a7f 	.word	0x74bc6a7f
    3b80:	402e1893 	.word	0x402e1893
    3b84:	872b020c 	.word	0x872b020c
    3b88:	402e1916 	.word	0x402e1916
    3b8c:	9999999a 	.word	0x9999999a
    3b90:	402e1999 	.word	0x402e1999
    3b94:	ac083127 	.word	0xac083127
    3b98:	402e1a1c 	.word	0x402e1a1c
    3b9c:	be76c8b4 	.word	0xbe76c8b4
    3ba0:	402e1a9f 	.word	0x402e1a9f
    3ba4:	d0e56042 	.word	0xd0e56042
    3ba8:	402e1b22 	.word	0x402e1b22
    3bac:	e353f7cf 	.word	0xe353f7cf
    3bb0:	402e1ba5 	.word	0x402e1ba5
    3bb4:	f5c28f5c 	.word	0xf5c28f5c
    3bb8:	402e1c28 	.word	0x402e1c28
    3bbc:	083126e9 	.word	0x083126e9
    3bc0:	402e1cac 	.word	0x402e1cac
    3bc4:	1a9fbe77 	.word	0x1a9fbe77
    3bc8:	402e1d2f 	.word	0x402e1d2f
    3bcc:	2d0e5604 	.word	0x2d0e5604
    3bd0:	402e1db2 	.word	0x402e1db2
    3bd4:	3f7ced91 	.word	0x3f7ced91
    3bd8:	402e1e35 	.word	0x402e1e35
    3bdc:	51eb851f 	.word	0x51eb851f
    3be0:	402e1eb8 	.word	0x402e1eb8
    3be4:	645a1cac 	.word	0x645a1cac
    3be8:	402e1f3b 	.word	0x402e1f3b
    3bec:	76c8b439 	.word	0x76c8b439
    3bf0:	402e1fbe 	.word	0x402e1fbe
    3bf4:	89374bc7 	.word	0x89374bc7
    3bf8:	402e2041 	.word	0x402e2041
    3bfc:	9ba5e354 	.word	0x9ba5e354
    3c00:	402e20c4 	.word	0x402e20c4
    3c04:	ae147ae1 	.word	0xae147ae1
    3c08:	402e2147 	.word	0x402e2147
    3c0c:	c083126f 	.word	0xc083126f
    3c10:	402e21ca 	.word	0x402e21ca
    3c14:	d2f1a9fc 	.word	0xd2f1a9fc
    3c18:	402e224d 	.word	0x402e224d
    3c1c:	e5604189 	.word	0xe5604189
    3c20:	402e22d0 	.word	0x402e22d0
    3c24:	f7ced917 	.word	0xf7ced917
    3c28:	402e2353 	.word	0x402e2353
    3c2c:	0a3d70a4 	.word	0x0a3d70a4
    3c30:	402e23d7 	.word	0x402e23d7
    3c34:	1cac0831 	.word	0x1cac0831
    3c38:	402e245a 	.word	0x402e245a
    3c3c:	2f1a9fbe 	.word	0x2f1a9fbe
    3c40:	402e24dd 	.word	0x402e24dd
    3c44:	4189374c 	.word	0x4189374c
    3c48:	402e2560 	.word	0x402e2560
    3c4c:	53f7ced9 	.word	0x53f7ced9
    3c50:	402e25e3 	.word	0x402e25e3
    3c54:	66666666 	.word	0x66666666
    3c58:	402e2666 	.word	0x402e2666
    3c5c:	78d4fdf4 	.word	0x78d4fdf4
    3c60:	402e26e9 	.word	0x402e26e9
    3c64:	8b439581 	.word	0x8b439581
    3c68:	402e276c 	.word	0x402e276c
    3c6c:	9db22d0e 	.word	0x9db22d0e
    3c70:	402e27ef 	.word	0x402e27ef
    3c74:	b020c49c 	.word	0xb020c49c
    3c78:	402e2872 	.word	0x402e2872
    3c7c:	c28f5c29 	.word	0xc28f5c29
    3c80:	402e28f5 	.word	0x402e28f5
    3c84:	d4fdf3b6 	.word	0xd4fdf3b6
    3c88:	402e2978 	.word	0x402e2978
    3c8c:	e76c8b44 	.word	0xe76c8b44
    3c90:	402e29fb 	.word	0x402e29fb
    3c94:	f9db22d1 	.word	0xf9db22d1
    3c98:	402e2a7e 	.word	0x402e2a7e
    3c9c:	0c49ba5e 	.word	0x0c49ba5e
    3ca0:	402e2b02 	.word	0x402e2b02
    3ca4:	1eb851ec 	.word	0x1eb851ec
    3ca8:	402e2b85 	.word	0x402e2b85
    3cac:	3126e979 	.word	0x3126e979
    3cb0:	402e2c08 	.word	0x402e2c08
    3cb4:	43958106 	.word	0x43958106
    3cb8:	402e2c8b 	.word	0x402e2c8b
    3cbc:	56041893 	.word	0x56041893
    3cc0:	402e2d0e 	.word	0x402e2d0e
    3cc4:	6872b021 	.word	0x6872b021
    3cc8:	402e2d91 	.word	0x402e2d91
    3ccc:	7ae147ae 	.word	0x7ae147ae
    3cd0:	402e2e14 	.word	0x402e2e14
    3cd4:	8d4fdf3b 	.word	0x8d4fdf3b
    3cd8:	402e2e97 	.word	0x402e2e97
    3cdc:	9fbe76c9 	.word	0x9fbe76c9
    3ce0:	402e2f1a 	.word	0x402e2f1a
    3ce4:	b22d0e56 	.word	0xb22d0e56
    3ce8:	402e2f9d 	.word	0x402e2f9d
    3cec:	c49ba5e3 	.word	0xc49ba5e3
    3cf0:	402e3020 	.word	0x402e3020
    3cf4:	d70a3d71 	.word	0xd70a3d71
    3cf8:	402e30a3 	.word	0x402e30a3
    3cfc:	e978d4fe 	.word	0xe978d4fe
    3d00:	402e3126 	.word	0x402e3126
    3d04:	fbe76c8b 	.word	0xfbe76c8b
    3d08:	402e31a9 	.word	0x402e31a9
    3d0c:	0e560419 	.word	0x0e560419
    3d10:	402e322d 	.word	0x402e322d
    3d14:	20c49ba6 	.word	0x20c49ba6
    3d18:	402e32b0 	.word	0x402e32b0
    3d1c:	33333333 	.word	0x33333333
    3d20:	402e3333 	.word	0x402e3333
    3d24:	45a1cac1 	.word	0x45a1cac1
    3d28:	402e33b6 	.word	0x402e33b6
    3d2c:	5810624e 	.word	0x5810624e
    3d30:	402e3439 	.word	0x402e3439
    3d34:	6a7ef9db 	.word	0x6a7ef9db
    3d38:	402e34bc 	.word	0x402e34bc
    3d3c:	7ced9168 	.word	0x7ced9168
    3d40:	402e353f 	.word	0x402e353f
    3d44:	8f5c28f6 	.word	0x8f5c28f6
    3d48:	402e35c2 	.word	0x402e35c2
    3d4c:	a1cac083 	.word	0xa1cac083
    3d50:	402e3645 	.word	0x402e3645
    3d54:	b4395810 	.word	0xb4395810
    3d58:	402e36c8 	.word	0x402e36c8
    3d5c:	c6a7ef9e 	.word	0xc6a7ef9e
    3d60:	402e374b 	.word	0x402e374b
    3d64:	d916872b 	.word	0xd916872b
    3d68:	402e37ce 	.word	0x402e37ce
    3d6c:	eb851eb8 	.word	0xeb851eb8
    3d70:	402e3851 	.word	0x402e3851
    3d74:	fdf3b646 	.word	0xfdf3b646
    3d78:	402e38d4 	.word	0x402e38d4
    3d7c:	10624dd3 	.word	0x10624dd3
    3d80:	402e3958 	.word	0x402e3958
    3d84:	22d0e560 	.word	0x22d0e560
    3d88:	402e39db 	.word	0x402e39db
    3d8c:	353f7cee 	.word	0x353f7cee
    3d90:	402e3a5e 	.word	0x402e3a5e
    3d94:	47ae147b 	.word	0x47ae147b
    3d98:	402e3ae1 	.word	0x402e3ae1
    3d9c:	5a1cac08 	.word	0x5a1cac08
    3da0:	402e3b64 	.word	0x402e3b64
    3da4:	6c8b4396 	.word	0x6c8b4396
    3da8:	402e3be7 	.word	0x402e3be7
    3dac:	7ef9db23 	.word	0x7ef9db23
    3db0:	402e3c6a 	.word	0x402e3c6a
    3db4:	916872b0 	.word	0x916872b0
    3db8:	402e3ced 	.word	0x402e3ced
    3dbc:	a3d70a3d 	.word	0xa3d70a3d
    3dc0:	402e3d70 	.word	0x402e3d70
    3dc4:	b645a1cb 	.word	0xb645a1cb
    3dc8:	402e3df3 	.word	0x402e3df3
    3dcc:	c8b43958 	.word	0xc8b43958
    3dd0:	402e3e76 	.word	0x402e3e76
    3dd4:	db22d0e5 	.word	0xdb22d0e5
    3dd8:	402e3ef9 	.word	0x402e3ef9
    3ddc:	ed916873 	.word	0xed916873
    3de0:	402e3f7c 	.word	0x402e3f7c
    3de4:	00000000 	.word	0x00000000
    3de8:	402e4000 	.word	0x402e4000
    3dec:	126e978d 	.word	0x126e978d
    3df0:	402e4083 	.word	0x402e4083
    3df4:	24dd2f1b 	.word	0x24dd2f1b
    3df8:	402e4106 	.word	0x402e4106
    3dfc:	374bc6a8 	.word	0x374bc6a8
    3e00:	402e4189 	.word	0x402e4189
    3e04:	89374bc7 	.word	0x89374bc7
    3e08:	40300041 	.word	0x40300041
    3e0c:	126e978d 	.word	0x126e978d
    3e10:	40300083 	.word	0x40300083
    3e14:	9ba5e354 	.word	0x9ba5e354
    3e18:	403000c4 	.word	0x403000c4
    3e1c:	24dd2f1b 	.word	0x24dd2f1b
    3e20:	40300106 	.word	0x40300106
    3e24:	ae147ae1 	.word	0xae147ae1
    3e28:	40300147 	.word	0x40300147
    3e2c:	374bc6a8 	.word	0x374bc6a8
    3e30:	40300189 	.word	0x40300189
    3e34:	c083126f 	.word	0xc083126f
    3e38:	403001ca 	.word	0x403001ca
    3e3c:	49ba5e35 	.word	0x49ba5e35
    3e40:	4030020c 	.word	0x4030020c
    3e44:	d2f1a9fc 	.word	0xd2f1a9fc
    3e48:	4030024d 	.word	0x4030024d
    3e4c:	5c28f5c3 	.word	0x5c28f5c3
    3e50:	4030028f 	.word	0x4030028f
    3e54:	e5604189 	.word	0xe5604189
    3e58:	403002d0 	.word	0x403002d0
    3e5c:	6e978d50 	.word	0x6e978d50
    3e60:	40300312 	.word	0x40300312
    3e64:	f7ced917 	.word	0xf7ced917
    3e68:	40300353 	.word	0x40300353
    3e6c:	810624dd 	.word	0x810624dd
    3e70:	40300395 	.word	0x40300395
    3e74:	0a3d70a4 	.word	0x0a3d70a4
    3e78:	403003d7 	.word	0x403003d7
    3e7c:	9374bc6a 	.word	0x9374bc6a
    3e80:	40300418 	.word	0x40300418
    3e84:	1cac0831 	.word	0x1cac0831
    3e88:	4030045a 	.word	0x4030045a
    3e8c:	a5e353f8 	.word	0xa5e353f8
    3e90:	4030049b 	.word	0x4030049b
    3e94:	2f1a9fbe 	.word	0x2f1a9fbe
    3e98:	403004dd 	.word	0x403004dd
    3e9c:	b851eb85 	.word	0xb851eb85
    3ea0:	4030051e 	.word	0x4030051e
    3ea4:	4189374c 	.word	0x4189374c
    3ea8:	40300560 	.word	0x40300560
    3eac:	cac08312 	.word	0xcac08312
    3eb0:	403005a1 	.word	0x403005a1
    3eb4:	53f7ced9 	.word	0x53f7ced9
    3eb8:	403005e3 	.word	0x403005e3
    3ebc:	dd2f1aa0 	.word	0xdd2f1aa0
    3ec0:	40300624 	.word	0x40300624
    3ec4:	66666666 	.word	0x66666666
    3ec8:	40300666 	.word	0x40300666
    3ecc:	ef9db22d 	.word	0xef9db22d
    3ed0:	403006a7 	.word	0x403006a7
    3ed4:	78d4fdf4 	.word	0x78d4fdf4
    3ed8:	403006e9 	.word	0x403006e9
    3edc:	020c49ba 	.word	0x020c49ba
    3ee0:	4030072b 	.word	0x4030072b
    3ee4:	8b439581 	.word	0x8b439581
    3ee8:	4030076c 	.word	0x4030076c
    3eec:	147ae148 	.word	0x147ae148
    3ef0:	403007ae 	.word	0x403007ae
    3ef4:	9db22d0e 	.word	0x9db22d0e
    3ef8:	403007ef 	.word	0x403007ef
    3efc:	26e978d5 	.word	0x26e978d5
    3f00:	40300831 	.word	0x40300831
    3f04:	b020c49c 	.word	0xb020c49c
    3f08:	40300872 	.word	0x40300872
    3f0c:	39581062 	.word	0x39581062
    3f10:	403008b4 	.word	0x403008b4
    3f14:	c28f5c29 	.word	0xc28f5c29
    3f18:	403008f5 	.word	0x403008f5
    3f1c:	4bc6a7f0 	.word	0x4bc6a7f0
    3f20:	40300937 	.word	0x40300937
    3f24:	d4fdf3b6 	.word	0xd4fdf3b6
    3f28:	40300978 	.word	0x40300978
    3f2c:	5e353f7d 	.word	0x5e353f7d
    3f30:	403009ba 	.word	0x403009ba
    3f34:	e76c8b44 	.word	0xe76c8b44
    3f38:	403009fb 	.word	0x403009fb
    3f3c:	70a3d70a 	.word	0x70a3d70a
    3f40:	40300a3d 	.word	0x40300a3d
    3f44:	f9db22d1 	.word	0xf9db22d1
    3f48:	40300a7e 	.word	0x40300a7e
    3f4c:	83126e98 	.word	0x83126e98
    3f50:	40300ac0 	.word	0x40300ac0
    3f54:	0c49ba5e 	.word	0x0c49ba5e
    3f58:	40300b02 	.word	0x40300b02
    3f5c:	95810625 	.word	0x95810625
    3f60:	40300b43 	.word	0x40300b43
    3f64:	1eb851ec 	.word	0x1eb851ec
    3f68:	40300b85 	.word	0x40300b85
    3f6c:	a7ef9db2 	.word	0xa7ef9db2
    3f70:	40300bc6 	.word	0x40300bc6
    3f74:	3126e979 	.word	0x3126e979
    3f78:	40300c08 	.word	0x40300c08
    3f7c:	ba5e353f 	.word	0xba5e353f
    3f80:	40300c49 	.word	0x40300c49
    3f84:	43958106 	.word	0x43958106
    3f88:	40300c8b 	.word	0x40300c8b
    3f8c:	cccccccd 	.word	0xcccccccd
    3f90:	40300ccc 	.word	0x40300ccc
    3f94:	56041893 	.word	0x56041893
    3f98:	40300d0e 	.word	0x40300d0e
    3f9c:	df3b645a 	.word	0xdf3b645a
    3fa0:	40300d4f 	.word	0x40300d4f
    3fa4:	6872b021 	.word	0x6872b021
    3fa8:	40300d91 	.word	0x40300d91
    3fac:	f1a9fbe7 	.word	0xf1a9fbe7
    3fb0:	40300dd2 	.word	0x40300dd2
    3fb4:	7ae147ae 	.word	0x7ae147ae
    3fb8:	40300e14 	.word	0x40300e14
    3fbc:	04189375 	.word	0x04189375
    3fc0:	40300e56 	.word	0x40300e56
    3fc4:	8d4fdf3b 	.word	0x8d4fdf3b
    3fc8:	40300e97 	.word	0x40300e97
    3fcc:	16872b02 	.word	0x16872b02
    3fd0:	40300ed9 	.word	0x40300ed9
    3fd4:	9fbe76c9 	.word	0x9fbe76c9
    3fd8:	40300f1a 	.word	0x40300f1a
    3fdc:	28f5c28f 	.word	0x28f5c28f
    3fe0:	40300f5c 	.word	0x40300f5c
    3fe4:	b22d0e56 	.word	0xb22d0e56
    3fe8:	40300f9d 	.word	0x40300f9d
    3fec:	3b645a1d 	.word	0x3b645a1d
    3ff0:	40300fdf 	.word	0x40300fdf
    3ff4:	c49ba5e3 	.word	0xc49ba5e3
    3ff8:	40301020 	.word	0x40301020
    3ffc:	4dd2f1aa 	.word	0x4dd2f1aa
    4000:	40301062 	.word	0x40301062
    4004:	d70a3d71 	.word	0xd70a3d71
    4008:	403010a3 	.word	0x403010a3
    400c:	60418937 	.word	0x60418937
    4010:	403010e5 	.word	0x403010e5
    4014:	e978d4fe 	.word	0xe978d4fe
    4018:	40301126 	.word	0x40301126
    401c:	72b020c5 	.word	0x72b020c5
    4020:	40301168 	.word	0x40301168
    4024:	fbe76c8b 	.word	0xfbe76c8b
    4028:	403011a9 	.word	0x403011a9
    402c:	851eb852 	.word	0x851eb852
    4030:	403011eb 	.word	0x403011eb
    4034:	0e560419 	.word	0x0e560419
    4038:	4030122d 	.word	0x4030122d
    403c:	978d4fdf 	.word	0x978d4fdf
    4040:	4030126e 	.word	0x4030126e
    4044:	20c49ba6 	.word	0x20c49ba6
    4048:	403012b0 	.word	0x403012b0
    404c:	a9fbe76d 	.word	0xa9fbe76d
    4050:	403012f1 	.word	0x403012f1
    4054:	33333333 	.word	0x33333333
    4058:	40301333 	.word	0x40301333
    405c:	bc6a7efa 	.word	0xbc6a7efa
    4060:	40301374 	.word	0x40301374
    4064:	45a1cac1 	.word	0x45a1cac1
    4068:	403013b6 	.word	0x403013b6
    406c:	ced91687 	.word	0xced91687
    4070:	403013f7 	.word	0x403013f7
    4074:	5810624e 	.word	0x5810624e
    4078:	40301439 	.word	0x40301439
    407c:	e147ae14 	.word	0xe147ae14
    4080:	4030147a 	.word	0x4030147a
    4084:	6a7ef9db 	.word	0x6a7ef9db
    4088:	403014bc 	.word	0x403014bc
    408c:	f3b645a2 	.word	0xf3b645a2
    4090:	403014fd 	.word	0x403014fd
    4094:	7ced9168 	.word	0x7ced9168
    4098:	4030153f 	.word	0x4030153f
    409c:	0624dd2f 	.word	0x0624dd2f
    40a0:	40301581 	.word	0x40301581
    40a4:	8f5c28f6 	.word	0x8f5c28f6
    40a8:	403015c2 	.word	0x403015c2
    40ac:	189374bc 	.word	0x189374bc
    40b0:	40301604 	.word	0x40301604
    40b4:	a1cac083 	.word	0xa1cac083
    40b8:	40301645 	.word	0x40301645
    40bc:	2b020c4a 	.word	0x2b020c4a
    40c0:	40301687 	.word	0x40301687
    40c4:	b4395810 	.word	0xb4395810
    40c8:	403016c8 	.word	0x403016c8
    40cc:	3d70a3d7 	.word	0x3d70a3d7
    40d0:	4030170a 	.word	0x4030170a
    40d4:	c6a7ef9e 	.word	0xc6a7ef9e
    40d8:	4030174b 	.word	0x4030174b
    40dc:	4fdf3b64 	.word	0x4fdf3b64
    40e0:	4030178d 	.word	0x4030178d
    40e4:	d916872b 	.word	0xd916872b
    40e8:	403017ce 	.word	0x403017ce
    40ec:	624dd2f2 	.word	0x624dd2f2
    40f0:	40301810 	.word	0x40301810
    40f4:	eb851eb8 	.word	0xeb851eb8
    40f8:	40301851 	.word	0x40301851
    40fc:	74bc6a7f 	.word	0x74bc6a7f
    4100:	40301893 	.word	0x40301893
    4104:	fdf3b646 	.word	0xfdf3b646
    4108:	403018d4 	.word	0x403018d4
    410c:	872b020c 	.word	0x872b020c
    4110:	40301916 	.word	0x40301916
    4114:	10624dd3 	.word	0x10624dd3
    4118:	40301958 	.word	0x40301958
    411c:	9999999a 	.word	0x9999999a
    4120:	40301999 	.word	0x40301999
    4124:	22d0e560 	.word	0x22d0e560
    4128:	403019db 	.word	0x403019db
    412c:	ac083127 	.word	0xac083127
    4130:	40301a1c 	.word	0x40301a1c
    4134:	353f7cee 	.word	0x353f7cee
    4138:	40301a5e 	.word	0x40301a5e
    413c:	be76c8b4 	.word	0xbe76c8b4
    4140:	40301a9f 	.word	0x40301a9f
    4144:	47ae147b 	.word	0x47ae147b
    4148:	40301ae1 	.word	0x40301ae1
    414c:	d0e56042 	.word	0xd0e56042
    4150:	40301b22 	.word	0x40301b22
    4154:	5a1cac08 	.word	0x5a1cac08
    4158:	40301b64 	.word	0x40301b64
    415c:	e353f7cf 	.word	0xe353f7cf
    4160:	40301ba5 	.word	0x40301ba5
    4164:	6c8b4396 	.word	0x6c8b4396
    4168:	40301be7 	.word	0x40301be7
    416c:	f5c28f5c 	.word	0xf5c28f5c
    4170:	40301c28 	.word	0x40301c28
    4174:	7ef9db23 	.word	0x7ef9db23
    4178:	40301c6a 	.word	0x40301c6a
    417c:	083126e9 	.word	0x083126e9
    4180:	40301cac 	.word	0x40301cac
    4184:	916872b0 	.word	0x916872b0
    4188:	40301ced 	.word	0x40301ced
    418c:	1a9fbe77 	.word	0x1a9fbe77
    4190:	40301d2f 	.word	0x40301d2f
    4194:	a3d70a3d 	.word	0xa3d70a3d
    4198:	40301d70 	.word	0x40301d70
    419c:	2d0e5604 	.word	0x2d0e5604
    41a0:	40301db2 	.word	0x40301db2
    41a4:	b645a1cb 	.word	0xb645a1cb
    41a8:	40301df3 	.word	0x40301df3
    41ac:	3f7ced91 	.word	0x3f7ced91
    41b0:	40301e35 	.word	0x40301e35
    41b4:	c8b43958 	.word	0xc8b43958
    41b8:	40301e76 	.word	0x40301e76
    41bc:	51eb851f 	.word	0x51eb851f
    41c0:	40301eb8 	.word	0x40301eb8
    41c4:	db22d0e5 	.word	0xdb22d0e5
    41c8:	40301ef9 	.word	0x40301ef9
    41cc:	645a1cac 	.word	0x645a1cac
    41d0:	40301f3b 	.word	0x40301f3b
    41d4:	ed916873 	.word	0xed916873
    41d8:	40301f7c 	.word	0x40301f7c
    41dc:	76c8b439 	.word	0x76c8b439
    41e0:	40301fbe 	.word	0x40301fbe
    41e4:	00000000 	.word	0x00000000
    41e8:	40302000 	.word	0x40302000
    41ec:	89374bc7 	.word	0x89374bc7
    41f0:	40302041 	.word	0x40302041
    41f4:	126e978d 	.word	0x126e978d
    41f8:	40302083 	.word	0x40302083
    41fc:	9ba5e354 	.word	0x9ba5e354
    4200:	403020c4 	.word	0x403020c4
    4204:	89374bc7 	.word	0x89374bc7
    4208:	40310041 	.word	0x40310041
    420c:	126e978d 	.word	0x126e978d
    4210:	40310083 	.word	0x40310083
    4214:	9ba5e354 	.word	0x9ba5e354
    4218:	403100c4 	.word	0x403100c4
    421c:	24dd2f1b 	.word	0x24dd2f1b
    4220:	40310106 	.word	0x40310106
    4224:	ae147ae1 	.word	0xae147ae1
    4228:	40310147 	.word	0x40310147
    422c:	374bc6a8 	.word	0x374bc6a8
    4230:	40310189 	.word	0x40310189
    4234:	c083126f 	.word	0xc083126f
    4238:	403101ca 	.word	0x403101ca
    423c:	49ba5e35 	.word	0x49ba5e35
    4240:	4031020c 	.word	0x4031020c
    4244:	d2f1a9fc 	.word	0xd2f1a9fc
    4248:	4031024d 	.word	0x4031024d
    424c:	5c28f5c3 	.word	0x5c28f5c3
    4250:	4031028f 	.word	0x4031028f
    4254:	e5604189 	.word	0xe5604189
    4258:	403102d0 	.word	0x403102d0
    425c:	6e978d50 	.word	0x6e978d50
    4260:	40310312 	.word	0x40310312
    4264:	f7ced917 	.word	0xf7ced917
    4268:	40310353 	.word	0x40310353
    426c:	810624dd 	.word	0x810624dd
    4270:	40310395 	.word	0x40310395
    4274:	0a3d70a4 	.word	0x0a3d70a4
    4278:	403103d7 	.word	0x403103d7
    427c:	9374bc6a 	.word	0x9374bc6a
    4280:	40310418 	.word	0x40310418
    4284:	1cac0831 	.word	0x1cac0831
    4288:	4031045a 	.word	0x4031045a
    428c:	a5e353f8 	.word	0xa5e353f8
    4290:	4031049b 	.word	0x4031049b
    4294:	2f1a9fbe 	.word	0x2f1a9fbe
    4298:	403104dd 	.word	0x403104dd
    429c:	b851eb85 	.word	0xb851eb85
    42a0:	4031051e 	.word	0x4031051e
    42a4:	4189374c 	.word	0x4189374c
    42a8:	40310560 	.word	0x40310560
    42ac:	cac08312 	.word	0xcac08312
    42b0:	403105a1 	.word	0x403105a1
    42b4:	53f7ced9 	.word	0x53f7ced9
    42b8:	403105e3 	.word	0x403105e3
    42bc:	dd2f1aa0 	.word	0xdd2f1aa0
    42c0:	40310624 	.word	0x40310624
    42c4:	66666666 	.word	0x66666666
    42c8:	40310666 	.word	0x40310666
    42cc:	ef9db22d 	.word	0xef9db22d
    42d0:	403106a7 	.word	0x403106a7
    42d4:	78d4fdf4 	.word	0x78d4fdf4
    42d8:	403106e9 	.word	0x403106e9
    42dc:	020c49ba 	.word	0x020c49ba
    42e0:	4031072b 	.word	0x4031072b
    42e4:	8b439581 	.word	0x8b439581
    42e8:	4031076c 	.word	0x4031076c
    42ec:	147ae148 	.word	0x147ae148
    42f0:	403107ae 	.word	0x403107ae
    42f4:	9db22d0e 	.word	0x9db22d0e
    42f8:	403107ef 	.word	0x403107ef
    42fc:	26e978d5 	.word	0x26e978d5
    4300:	40310831 	.word	0x40310831
    4304:	b020c49c 	.word	0xb020c49c
    4308:	40310872 	.word	0x40310872
    430c:	39581062 	.word	0x39581062
    4310:	403108b4 	.word	0x403108b4
    4314:	c28f5c29 	.word	0xc28f5c29
    4318:	403108f5 	.word	0x403108f5
    431c:	4bc6a7f0 	.word	0x4bc6a7f0
    4320:	40310937 	.word	0x40310937
    4324:	d4fdf3b6 	.word	0xd4fdf3b6
    4328:	40310978 	.word	0x40310978
    432c:	5e353f7d 	.word	0x5e353f7d
    4330:	403109ba 	.word	0x403109ba
    4334:	e76c8b44 	.word	0xe76c8b44
    4338:	403109fb 	.word	0x403109fb
    433c:	70a3d70a 	.word	0x70a3d70a
    4340:	40310a3d 	.word	0x40310a3d
    4344:	f9db22d1 	.word	0xf9db22d1
    4348:	40310a7e 	.word	0x40310a7e
    434c:	83126e98 	.word	0x83126e98
    4350:	40310ac0 	.word	0x40310ac0
    4354:	0c49ba5e 	.word	0x0c49ba5e
    4358:	40310b02 	.word	0x40310b02
    435c:	95810625 	.word	0x95810625
    4360:	40310b43 	.word	0x40310b43
    4364:	1eb851ec 	.word	0x1eb851ec
    4368:	40310b85 	.word	0x40310b85
    436c:	a7ef9db2 	.word	0xa7ef9db2
    4370:	40310bc6 	.word	0x40310bc6
    4374:	3126e979 	.word	0x3126e979
    4378:	40310c08 	.word	0x40310c08
    437c:	ba5e353f 	.word	0xba5e353f
    4380:	40310c49 	.word	0x40310c49
    4384:	43958106 	.word	0x43958106
    4388:	40310c8b 	.word	0x40310c8b
    438c:	cccccccd 	.word	0xcccccccd
    4390:	40310ccc 	.word	0x40310ccc
    4394:	56041893 	.word	0x56041893
    4398:	40310d0e 	.word	0x40310d0e
    439c:	df3b645a 	.word	0xdf3b645a
    43a0:	40310d4f 	.word	0x40310d4f
    43a4:	6872b021 	.word	0x6872b021
    43a8:	40310d91 	.word	0x40310d91
    43ac:	f1a9fbe7 	.word	0xf1a9fbe7
    43b0:	40310dd2 	.word	0x40310dd2
    43b4:	7ae147ae 	.word	0x7ae147ae
    43b8:	40310e14 	.word	0x40310e14
    43bc:	04189375 	.word	0x04189375
    43c0:	40310e56 	.word	0x40310e56
    43c4:	8d4fdf3b 	.word	0x8d4fdf3b
    43c8:	40310e97 	.word	0x40310e97
    43cc:	16872b02 	.word	0x16872b02
    43d0:	40310ed9 	.word	0x40310ed9
    43d4:	9fbe76c9 	.word	0x9fbe76c9
    43d8:	40310f1a 	.word	0x40310f1a
    43dc:	28f5c28f 	.word	0x28f5c28f
    43e0:	40310f5c 	.word	0x40310f5c
    43e4:	b22d0e56 	.word	0xb22d0e56
    43e8:	40310f9d 	.word	0x40310f9d
    43ec:	3b645a1d 	.word	0x3b645a1d
    43f0:	40310fdf 	.word	0x40310fdf
    43f4:	c49ba5e3 	.word	0xc49ba5e3
    43f8:	40311020 	.word	0x40311020
    43fc:	4dd2f1aa 	.word	0x4dd2f1aa
    4400:	40311062 	.word	0x40311062
    4404:	d70a3d71 	.word	0xd70a3d71
    4408:	403110a3 	.word	0x403110a3
    440c:	60418937 	.word	0x60418937
    4410:	403110e5 	.word	0x403110e5
    4414:	e978d4fe 	.word	0xe978d4fe
    4418:	40311126 	.word	0x40311126
    441c:	72b020c5 	.word	0x72b020c5
    4420:	40311168 	.word	0x40311168
    4424:	fbe76c8b 	.word	0xfbe76c8b
    4428:	403111a9 	.word	0x403111a9
    442c:	851eb852 	.word	0x851eb852
    4430:	403111eb 	.word	0x403111eb
    4434:	0e560419 	.word	0x0e560419
    4438:	4031122d 	.word	0x4031122d
    443c:	978d4fdf 	.word	0x978d4fdf
    4440:	4031126e 	.word	0x4031126e
    4444:	20c49ba6 	.word	0x20c49ba6
    4448:	403112b0 	.word	0x403112b0
    444c:	a9fbe76d 	.word	0xa9fbe76d
    4450:	403112f1 	.word	0x403112f1
    4454:	33333333 	.word	0x33333333
    4458:	40311333 	.word	0x40311333
    445c:	bc6a7efa 	.word	0xbc6a7efa
    4460:	40311374 	.word	0x40311374
    4464:	45a1cac1 	.word	0x45a1cac1
    4468:	403113b6 	.word	0x403113b6
    446c:	ced91687 	.word	0xced91687
    4470:	403113f7 	.word	0x403113f7
    4474:	5810624e 	.word	0x5810624e
    4478:	40311439 	.word	0x40311439
    447c:	e147ae14 	.word	0xe147ae14
    4480:	4031147a 	.word	0x4031147a
    4484:	6a7ef9db 	.word	0x6a7ef9db
    4488:	403114bc 	.word	0x403114bc
    448c:	f3b645a2 	.word	0xf3b645a2
    4490:	403114fd 	.word	0x403114fd
    4494:	7ced9168 	.word	0x7ced9168
    4498:	4031153f 	.word	0x4031153f
    449c:	0624dd2f 	.word	0x0624dd2f
    44a0:	40311581 	.word	0x40311581
    44a4:	8f5c28f6 	.word	0x8f5c28f6
    44a8:	403115c2 	.word	0x403115c2
    44ac:	189374bc 	.word	0x189374bc
    44b0:	40311604 	.word	0x40311604
    44b4:	a1cac083 	.word	0xa1cac083
    44b8:	40311645 	.word	0x40311645
    44bc:	2b020c4a 	.word	0x2b020c4a
    44c0:	40311687 	.word	0x40311687
    44c4:	b4395810 	.word	0xb4395810
    44c8:	403116c8 	.word	0x403116c8
    44cc:	3d70a3d7 	.word	0x3d70a3d7
    44d0:	4031170a 	.word	0x4031170a
    44d4:	c6a7ef9e 	.word	0xc6a7ef9e
    44d8:	4031174b 	.word	0x4031174b
    44dc:	4fdf3b64 	.word	0x4fdf3b64
    44e0:	4031178d 	.word	0x4031178d
    44e4:	d916872b 	.word	0xd916872b
    44e8:	403117ce 	.word	0x403117ce
    44ec:	624dd2f2 	.word	0x624dd2f2
    44f0:	40311810 	.word	0x40311810
    44f4:	eb851eb8 	.word	0xeb851eb8
    44f8:	40311851 	.word	0x40311851
    44fc:	74bc6a7f 	.word	0x74bc6a7f
    4500:	40311893 	.word	0x40311893
    4504:	fdf3b646 	.word	0xfdf3b646
    4508:	403118d4 	.word	0x403118d4
    450c:	872b020c 	.word	0x872b020c
    4510:	40311916 	.word	0x40311916
    4514:	10624dd3 	.word	0x10624dd3
    4518:	40311958 	.word	0x40311958
    451c:	9999999a 	.word	0x9999999a
    4520:	40311999 	.word	0x40311999
    4524:	22d0e560 	.word	0x22d0e560
    4528:	403119db 	.word	0x403119db
    452c:	ac083127 	.word	0xac083127
    4530:	40311a1c 	.word	0x40311a1c
    4534:	353f7cee 	.word	0x353f7cee
    4538:	40311a5e 	.word	0x40311a5e
    453c:	be76c8b4 	.word	0xbe76c8b4
    4540:	40311a9f 	.word	0x40311a9f
    4544:	47ae147b 	.word	0x47ae147b
    4548:	40311ae1 	.word	0x40311ae1
    454c:	d0e56042 	.word	0xd0e56042
    4550:	40311b22 	.word	0x40311b22
    4554:	5a1cac08 	.word	0x5a1cac08
    4558:	40311b64 	.word	0x40311b64
    455c:	e353f7cf 	.word	0xe353f7cf
    4560:	40311ba5 	.word	0x40311ba5
    4564:	6c8b4396 	.word	0x6c8b4396
    4568:	40311be7 	.word	0x40311be7
    456c:	f5c28f5c 	.word	0xf5c28f5c
    4570:	40311c28 	.word	0x40311c28
    4574:	7ef9db23 	.word	0x7ef9db23
    4578:	40311c6a 	.word	0x40311c6a
    457c:	083126e9 	.word	0x083126e9
    4580:	40311cac 	.word	0x40311cac
    4584:	916872b0 	.word	0x916872b0
    4588:	40311ced 	.word	0x40311ced
    458c:	1a9fbe77 	.word	0x1a9fbe77
    4590:	40311d2f 	.word	0x40311d2f
    4594:	a3d70a3d 	.word	0xa3d70a3d
    4598:	40311d70 	.word	0x40311d70
    459c:	2d0e5604 	.word	0x2d0e5604
    45a0:	40311db2 	.word	0x40311db2
    45a4:	b645a1cb 	.word	0xb645a1cb
    45a8:	40311df3 	.word	0x40311df3
    45ac:	3f7ced91 	.word	0x3f7ced91
    45b0:	40311e35 	.word	0x40311e35
    45b4:	c8b43958 	.word	0xc8b43958
    45b8:	40311e76 	.word	0x40311e76
    45bc:	51eb851f 	.word	0x51eb851f
    45c0:	40311eb8 	.word	0x40311eb8
    45c4:	db22d0e5 	.word	0xdb22d0e5
    45c8:	40311ef9 	.word	0x40311ef9
    45cc:	645a1cac 	.word	0x645a1cac
    45d0:	40311f3b 	.word	0x40311f3b
    45d4:	ed916873 	.word	0xed916873
    45d8:	40311f7c 	.word	0x40311f7c
    45dc:	76c8b439 	.word	0x76c8b439
    45e0:	40311fbe 	.word	0x40311fbe
    45e4:	00000000 	.word	0x00000000
    45e8:	40312000 	.word	0x40312000
    45ec:	89374bc7 	.word	0x89374bc7
    45f0:	40312041 	.word	0x40312041
    45f4:	126e978d 	.word	0x126e978d
    45f8:	40312083 	.word	0x40312083
    45fc:	9ba5e354 	.word	0x9ba5e354
    4600:	403120c4 	.word	0x403120c4
    4604:	89374bc7 	.word	0x89374bc7
    4608:	40320041 	.word	0x40320041
    460c:	126e978d 	.word	0x126e978d
    4610:	40320083 	.word	0x40320083
    4614:	9ba5e354 	.word	0x9ba5e354
    4618:	403200c4 	.word	0x403200c4
    461c:	24dd2f1b 	.word	0x24dd2f1b
    4620:	40320106 	.word	0x40320106
    4624:	ae147ae1 	.word	0xae147ae1
    4628:	40320147 	.word	0x40320147
    462c:	374bc6a8 	.word	0x374bc6a8
    4630:	40320189 	.word	0x40320189
    4634:	c083126f 	.word	0xc083126f
    4638:	403201ca 	.word	0x403201ca
    463c:	49ba5e35 	.word	0x49ba5e35
    4640:	4032020c 	.word	0x4032020c
    4644:	d2f1a9fc 	.word	0xd2f1a9fc
    4648:	4032024d 	.word	0x4032024d
    464c:	5c28f5c3 	.word	0x5c28f5c3
    4650:	4032028f 	.word	0x4032028f
    4654:	e5604189 	.word	0xe5604189
    4658:	403202d0 	.word	0x403202d0
    465c:	6e978d50 	.word	0x6e978d50
    4660:	40320312 	.word	0x40320312
    4664:	f7ced917 	.word	0xf7ced917
    4668:	40320353 	.word	0x40320353
    466c:	810624dd 	.word	0x810624dd
    4670:	40320395 	.word	0x40320395
    4674:	0a3d70a4 	.word	0x0a3d70a4
    4678:	403203d7 	.word	0x403203d7
    467c:	9374bc6a 	.word	0x9374bc6a
    4680:	40320418 	.word	0x40320418
    4684:	1cac0831 	.word	0x1cac0831
    4688:	4032045a 	.word	0x4032045a
    468c:	a5e353f8 	.word	0xa5e353f8
    4690:	4032049b 	.word	0x4032049b
    4694:	2f1a9fbe 	.word	0x2f1a9fbe
    4698:	403204dd 	.word	0x403204dd
    469c:	b851eb85 	.word	0xb851eb85
    46a0:	4032051e 	.word	0x4032051e
    46a4:	4189374c 	.word	0x4189374c
    46a8:	40320560 	.word	0x40320560
    46ac:	cac08312 	.word	0xcac08312
    46b0:	403205a1 	.word	0x403205a1
    46b4:	53f7ced9 	.word	0x53f7ced9
    46b8:	403205e3 	.word	0x403205e3
    46bc:	dd2f1aa0 	.word	0xdd2f1aa0
    46c0:	40320624 	.word	0x40320624
    46c4:	66666666 	.word	0x66666666
    46c8:	40320666 	.word	0x40320666
    46cc:	ef9db22d 	.word	0xef9db22d
    46d0:	403206a7 	.word	0x403206a7
    46d4:	78d4fdf4 	.word	0x78d4fdf4
    46d8:	403206e9 	.word	0x403206e9
    46dc:	020c49ba 	.word	0x020c49ba
    46e0:	4032072b 	.word	0x4032072b
    46e4:	8b439581 	.word	0x8b439581
    46e8:	4032076c 	.word	0x4032076c
    46ec:	147ae148 	.word	0x147ae148
    46f0:	403207ae 	.word	0x403207ae
    46f4:	9db22d0e 	.word	0x9db22d0e
    46f8:	403207ef 	.word	0x403207ef
    46fc:	26e978d5 	.word	0x26e978d5
    4700:	40320831 	.word	0x40320831
    4704:	b020c49c 	.word	0xb020c49c
    4708:	40320872 	.word	0x40320872
    470c:	39581062 	.word	0x39581062
    4710:	403208b4 	.word	0x403208b4
    4714:	c28f5c29 	.word	0xc28f5c29
    4718:	403208f5 	.word	0x403208f5
    471c:	4bc6a7f0 	.word	0x4bc6a7f0
    4720:	40320937 	.word	0x40320937
    4724:	d4fdf3b6 	.word	0xd4fdf3b6
    4728:	40320978 	.word	0x40320978
    472c:	5e353f7d 	.word	0x5e353f7d
    4730:	403209ba 	.word	0x403209ba
    4734:	e76c8b44 	.word	0xe76c8b44
    4738:	403209fb 	.word	0x403209fb
    473c:	70a3d70a 	.word	0x70a3d70a
    4740:	40320a3d 	.word	0x40320a3d
    4744:	f9db22d1 	.word	0xf9db22d1
    4748:	40320a7e 	.word	0x40320a7e
    474c:	83126e98 	.word	0x83126e98
    4750:	40320ac0 	.word	0x40320ac0
    4754:	0c49ba5e 	.word	0x0c49ba5e
    4758:	40320b02 	.word	0x40320b02
    475c:	95810625 	.word	0x95810625
    4760:	40320b43 	.word	0x40320b43
    4764:	1eb851ec 	.word	0x1eb851ec
    4768:	40320b85 	.word	0x40320b85
    476c:	a7ef9db2 	.word	0xa7ef9db2
    4770:	40320bc6 	.word	0x40320bc6
    4774:	3126e979 	.word	0x3126e979
    4778:	40320c08 	.word	0x40320c08
    477c:	ba5e353f 	.word	0xba5e353f
    4780:	40320c49 	.word	0x40320c49
    4784:	43958106 	.word	0x43958106
    4788:	40320c8b 	.word	0x40320c8b
    478c:	cccccccd 	.word	0xcccccccd
    4790:	40320ccc 	.word	0x40320ccc
    4794:	56041893 	.word	0x56041893
    4798:	40320d0e 	.word	0x40320d0e
    479c:	df3b645a 	.word	0xdf3b645a
    47a0:	40320d4f 	.word	0x40320d4f
    47a4:	6872b021 	.word	0x6872b021
    47a8:	40320d91 	.word	0x40320d91
    47ac:	f1a9fbe7 	.word	0xf1a9fbe7
    47b0:	40320dd2 	.word	0x40320dd2
    47b4:	7ae147ae 	.word	0x7ae147ae
    47b8:	40320e14 	.word	0x40320e14
    47bc:	04189375 	.word	0x04189375
    47c0:	40320e56 	.word	0x40320e56
    47c4:	8d4fdf3b 	.word	0x8d4fdf3b
    47c8:	40320e97 	.word	0x40320e97
    47cc:	16872b02 	.word	0x16872b02
    47d0:	40320ed9 	.word	0x40320ed9
    47d4:	9fbe76c9 	.word	0x9fbe76c9
    47d8:	40320f1a 	.word	0x40320f1a
    47dc:	28f5c28f 	.word	0x28f5c28f
    47e0:	40320f5c 	.word	0x40320f5c
    47e4:	b22d0e56 	.word	0xb22d0e56
    47e8:	40320f9d 	.word	0x40320f9d
    47ec:	3b645a1d 	.word	0x3b645a1d
    47f0:	40320fdf 	.word	0x40320fdf
    47f4:	c49ba5e3 	.word	0xc49ba5e3
    47f8:	40321020 	.word	0x40321020
    47fc:	4dd2f1aa 	.word	0x4dd2f1aa
    4800:	40321062 	.word	0x40321062
    4804:	d70a3d71 	.word	0xd70a3d71
    4808:	403210a3 	.word	0x403210a3
    480c:	60418937 	.word	0x60418937
    4810:	403210e5 	.word	0x403210e5
    4814:	e978d4fe 	.word	0xe978d4fe
    4818:	40321126 	.word	0x40321126
    481c:	72b020c5 	.word	0x72b020c5
    4820:	40321168 	.word	0x40321168
    4824:	fbe76c8b 	.word	0xfbe76c8b
    4828:	403211a9 	.word	0x403211a9
    482c:	851eb852 	.word	0x851eb852
    4830:	403211eb 	.word	0x403211eb
    4834:	0e560419 	.word	0x0e560419
    4838:	4032122d 	.word	0x4032122d
    483c:	978d4fdf 	.word	0x978d4fdf
    4840:	4032126e 	.word	0x4032126e
    4844:	20c49ba6 	.word	0x20c49ba6
    4848:	403212b0 	.word	0x403212b0
    484c:	a9fbe76d 	.word	0xa9fbe76d
    4850:	403212f1 	.word	0x403212f1
    4854:	33333333 	.word	0x33333333
    4858:	40321333 	.word	0x40321333
    485c:	bc6a7efa 	.word	0xbc6a7efa
    4860:	40321374 	.word	0x40321374
    4864:	45a1cac1 	.word	0x45a1cac1
    4868:	403213b6 	.word	0x403213b6
    486c:	ced91687 	.word	0xced91687
    4870:	403213f7 	.word	0x403213f7
    4874:	5810624e 	.word	0x5810624e
    4878:	40321439 	.word	0x40321439
    487c:	e147ae14 	.word	0xe147ae14
    4880:	4032147a 	.word	0x4032147a
    4884:	6a7ef9db 	.word	0x6a7ef9db
    4888:	403214bc 	.word	0x403214bc
    488c:	f3b645a2 	.word	0xf3b645a2
    4890:	403214fd 	.word	0x403214fd
    4894:	7ced9168 	.word	0x7ced9168
    4898:	4032153f 	.word	0x4032153f
    489c:	0624dd2f 	.word	0x0624dd2f
    48a0:	40321581 	.word	0x40321581
    48a4:	8f5c28f6 	.word	0x8f5c28f6
    48a8:	403215c2 	.word	0x403215c2
    48ac:	189374bc 	.word	0x189374bc
    48b0:	40321604 	.word	0x40321604
    48b4:	a1cac083 	.word	0xa1cac083
    48b8:	40321645 	.word	0x40321645
    48bc:	2b020c4a 	.word	0x2b020c4a
    48c0:	40321687 	.word	0x40321687
    48c4:	b4395810 	.word	0xb4395810
    48c8:	403216c8 	.word	0x403216c8
    48cc:	3d70a3d7 	.word	0x3d70a3d7
    48d0:	4032170a 	.word	0x4032170a
    48d4:	c6a7ef9e 	.word	0xc6a7ef9e
    48d8:	4032174b 	.word	0x4032174b
    48dc:	4fdf3b64 	.word	0x4fdf3b64
    48e0:	4032178d 	.word	0x4032178d
    48e4:	d916872b 	.word	0xd916872b
    48e8:	403217ce 	.word	0x403217ce
    48ec:	624dd2f2 	.word	0x624dd2f2
    48f0:	40321810 	.word	0x40321810
    48f4:	eb851eb8 	.word	0xeb851eb8
    48f8:	40321851 	.word	0x40321851
    48fc:	74bc6a7f 	.word	0x74bc6a7f
    4900:	40321893 	.word	0x40321893
    4904:	fdf3b646 	.word	0xfdf3b646
    4908:	403218d4 	.word	0x403218d4
    490c:	872b020c 	.word	0x872b020c
    4910:	40321916 	.word	0x40321916
    4914:	10624dd3 	.word	0x10624dd3
    4918:	40321958 	.word	0x40321958
    491c:	9999999a 	.word	0x9999999a
    4920:	40321999 	.word	0x40321999
    4924:	22d0e560 	.word	0x22d0e560
    4928:	403219db 	.word	0x403219db
    492c:	ac083127 	.word	0xac083127
    4930:	40321a1c 	.word	0x40321a1c
    4934:	353f7cee 	.word	0x353f7cee
    4938:	40321a5e 	.word	0x40321a5e
    493c:	be76c8b4 	.word	0xbe76c8b4
    4940:	40321a9f 	.word	0x40321a9f
    4944:	47ae147b 	.word	0x47ae147b
    4948:	40321ae1 	.word	0x40321ae1
    494c:	d0e56042 	.word	0xd0e56042
    4950:	40321b22 	.word	0x40321b22
    4954:	5a1cac08 	.word	0x5a1cac08
    4958:	40321b64 	.word	0x40321b64
    495c:	e353f7cf 	.word	0xe353f7cf
    4960:	40321ba5 	.word	0x40321ba5
    4964:	6c8b4396 	.word	0x6c8b4396
    4968:	40321be7 	.word	0x40321be7
    496c:	f5c28f5c 	.word	0xf5c28f5c
    4970:	40321c28 	.word	0x40321c28
    4974:	7ef9db23 	.word	0x7ef9db23
    4978:	40321c6a 	.word	0x40321c6a
    497c:	083126e9 	.word	0x083126e9
    4980:	40321cac 	.word	0x40321cac
    4984:	916872b0 	.word	0x916872b0
    4988:	40321ced 	.word	0x40321ced
    498c:	1a9fbe77 	.word	0x1a9fbe77
    4990:	40321d2f 	.word	0x40321d2f
    4994:	a3d70a3d 	.word	0xa3d70a3d
    4998:	40321d70 	.word	0x40321d70
    499c:	2d0e5604 	.word	0x2d0e5604
    49a0:	40321db2 	.word	0x40321db2
    49a4:	b645a1cb 	.word	0xb645a1cb
    49a8:	40321df3 	.word	0x40321df3
    49ac:	3f7ced91 	.word	0x3f7ced91
    49b0:	40321e35 	.word	0x40321e35
    49b4:	c8b43958 	.word	0xc8b43958
    49b8:	40321e76 	.word	0x40321e76
    49bc:	51eb851f 	.word	0x51eb851f
    49c0:	40321eb8 	.word	0x40321eb8
    49c4:	db22d0e5 	.word	0xdb22d0e5
    49c8:	40321ef9 	.word	0x40321ef9
    49cc:	645a1cac 	.word	0x645a1cac
    49d0:	40321f3b 	.word	0x40321f3b
    49d4:	ed916873 	.word	0xed916873
    49d8:	40321f7c 	.word	0x40321f7c
    49dc:	76c8b439 	.word	0x76c8b439
    49e0:	40321fbe 	.word	0x40321fbe
    49e4:	00000000 	.word	0x00000000
    49e8:	40322000 	.word	0x40322000
    49ec:	89374bc7 	.word	0x89374bc7
    49f0:	40322041 	.word	0x40322041
    49f4:	126e978d 	.word	0x126e978d
    49f8:	40322083 	.word	0x40322083
    49fc:	9ba5e354 	.word	0x9ba5e354
    4a00:	403220c4 	.word	0x403220c4
    4a04:	89374bc7 	.word	0x89374bc7
    4a08:	40330041 	.word	0x40330041
    4a0c:	126e978d 	.word	0x126e978d
    4a10:	40330083 	.word	0x40330083
    4a14:	9ba5e354 	.word	0x9ba5e354
    4a18:	403300c4 	.word	0x403300c4
    4a1c:	24dd2f1b 	.word	0x24dd2f1b
    4a20:	40330106 	.word	0x40330106
    4a24:	ae147ae1 	.word	0xae147ae1
    4a28:	40330147 	.word	0x40330147
    4a2c:	374bc6a8 	.word	0x374bc6a8
    4a30:	40330189 	.word	0x40330189
    4a34:	c083126f 	.word	0xc083126f
    4a38:	403301ca 	.word	0x403301ca
    4a3c:	49ba5e35 	.word	0x49ba5e35
    4a40:	4033020c 	.word	0x4033020c
    4a44:	d2f1a9fc 	.word	0xd2f1a9fc
    4a48:	4033024d 	.word	0x4033024d
    4a4c:	5c28f5c3 	.word	0x5c28f5c3
    4a50:	4033028f 	.word	0x4033028f
    4a54:	e5604189 	.word	0xe5604189
    4a58:	403302d0 	.word	0x403302d0
    4a5c:	6e978d50 	.word	0x6e978d50
    4a60:	40330312 	.word	0x40330312
    4a64:	f7ced917 	.word	0xf7ced917
    4a68:	40330353 	.word	0x40330353
    4a6c:	810624dd 	.word	0x810624dd
    4a70:	40330395 	.word	0x40330395
    4a74:	0a3d70a4 	.word	0x0a3d70a4
    4a78:	403303d7 	.word	0x403303d7
    4a7c:	9374bc6a 	.word	0x9374bc6a
    4a80:	40330418 	.word	0x40330418
    4a84:	1cac0831 	.word	0x1cac0831
    4a88:	4033045a 	.word	0x4033045a
    4a8c:	a5e353f8 	.word	0xa5e353f8
    4a90:	4033049b 	.word	0x4033049b
    4a94:	2f1a9fbe 	.word	0x2f1a9fbe
    4a98:	403304dd 	.word	0x403304dd
    4a9c:	b851eb85 	.word	0xb851eb85
    4aa0:	4033051e 	.word	0x4033051e
    4aa4:	4189374c 	.word	0x4189374c
    4aa8:	40330560 	.word	0x40330560
    4aac:	cac08312 	.word	0xcac08312
    4ab0:	403305a1 	.word	0x403305a1
    4ab4:	53f7ced9 	.word	0x53f7ced9
    4ab8:	403305e3 	.word	0x403305e3
    4abc:	dd2f1aa0 	.word	0xdd2f1aa0
    4ac0:	40330624 	.word	0x40330624
    4ac4:	66666666 	.word	0x66666666
    4ac8:	40330666 	.word	0x40330666
    4acc:	ef9db22d 	.word	0xef9db22d
    4ad0:	403306a7 	.word	0x403306a7
    4ad4:	78d4fdf4 	.word	0x78d4fdf4
    4ad8:	403306e9 	.word	0x403306e9
    4adc:	020c49ba 	.word	0x020c49ba
    4ae0:	4033072b 	.word	0x4033072b
    4ae4:	8b439581 	.word	0x8b439581
    4ae8:	4033076c 	.word	0x4033076c
    4aec:	147ae148 	.word	0x147ae148
    4af0:	403307ae 	.word	0x403307ae
    4af4:	9db22d0e 	.word	0x9db22d0e
    4af8:	403307ef 	.word	0x403307ef
    4afc:	26e978d5 	.word	0x26e978d5
    4b00:	40330831 	.word	0x40330831
    4b04:	b020c49c 	.word	0xb020c49c
    4b08:	40330872 	.word	0x40330872
    4b0c:	39581062 	.word	0x39581062
    4b10:	403308b4 	.word	0x403308b4
    4b14:	c28f5c29 	.word	0xc28f5c29
    4b18:	403308f5 	.word	0x403308f5
    4b1c:	4bc6a7f0 	.word	0x4bc6a7f0
    4b20:	40330937 	.word	0x40330937
    4b24:	d4fdf3b6 	.word	0xd4fdf3b6
    4b28:	40330978 	.word	0x40330978
    4b2c:	5e353f7d 	.word	0x5e353f7d
    4b30:	403309ba 	.word	0x403309ba
    4b34:	e76c8b44 	.word	0xe76c8b44
    4b38:	403309fb 	.word	0x403309fb
    4b3c:	70a3d70a 	.word	0x70a3d70a
    4b40:	40330a3d 	.word	0x40330a3d
    4b44:	f9db22d1 	.word	0xf9db22d1
    4b48:	40330a7e 	.word	0x40330a7e
    4b4c:	83126e98 	.word	0x83126e98
    4b50:	40330ac0 	.word	0x40330ac0
    4b54:	0c49ba5e 	.word	0x0c49ba5e
    4b58:	40330b02 	.word	0x40330b02
    4b5c:	95810625 	.word	0x95810625
    4b60:	40330b43 	.word	0x40330b43
    4b64:	1eb851ec 	.word	0x1eb851ec
    4b68:	40330b85 	.word	0x40330b85
    4b6c:	a7ef9db2 	.word	0xa7ef9db2
    4b70:	40330bc6 	.word	0x40330bc6
    4b74:	3126e979 	.word	0x3126e979
    4b78:	40330c08 	.word	0x40330c08
    4b7c:	ba5e353f 	.word	0xba5e353f
    4b80:	40330c49 	.word	0x40330c49
    4b84:	43958106 	.word	0x43958106
    4b88:	40330c8b 	.word	0x40330c8b
    4b8c:	cccccccd 	.word	0xcccccccd
    4b90:	40330ccc 	.word	0x40330ccc
    4b94:	56041893 	.word	0x56041893
    4b98:	40330d0e 	.word	0x40330d0e
    4b9c:	df3b645a 	.word	0xdf3b645a
    4ba0:	40330d4f 	.word	0x40330d4f
    4ba4:	6872b021 	.word	0x6872b021
    4ba8:	40330d91 	.word	0x40330d91
    4bac:	f1a9fbe7 	.word	0xf1a9fbe7
    4bb0:	40330dd2 	.word	0x40330dd2
    4bb4:	7ae147ae 	.word	0x7ae147ae
    4bb8:	40330e14 	.word	0x40330e14
    4bbc:	04189375 	.word	0x04189375
    4bc0:	40330e56 	.word	0x40330e56
    4bc4:	8d4fdf3b 	.word	0x8d4fdf3b
    4bc8:	40330e97 	.word	0x40330e97
    4bcc:	16872b02 	.word	0x16872b02
    4bd0:	40330ed9 	.word	0x40330ed9
    4bd4:	9fbe76c9 	.word	0x9fbe76c9
    4bd8:	40330f1a 	.word	0x40330f1a
    4bdc:	28f5c28f 	.word	0x28f5c28f
    4be0:	40330f5c 	.word	0x40330f5c
    4be4:	b22d0e56 	.word	0xb22d0e56
    4be8:	40330f9d 	.word	0x40330f9d
    4bec:	3b645a1d 	.word	0x3b645a1d
    4bf0:	40330fdf 	.word	0x40330fdf
    4bf4:	c49ba5e3 	.word	0xc49ba5e3
    4bf8:	40331020 	.word	0x40331020
    4bfc:	4dd2f1aa 	.word	0x4dd2f1aa
    4c00:	40331062 	.word	0x40331062
    4c04:	d70a3d71 	.word	0xd70a3d71
    4c08:	403310a3 	.word	0x403310a3
    4c0c:	60418937 	.word	0x60418937
    4c10:	403310e5 	.word	0x403310e5
    4c14:	e978d4fe 	.word	0xe978d4fe
    4c18:	40331126 	.word	0x40331126
    4c1c:	72b020c5 	.word	0x72b020c5
    4c20:	40331168 	.word	0x40331168
    4c24:	fbe76c8b 	.word	0xfbe76c8b
    4c28:	403311a9 	.word	0x403311a9
    4c2c:	851eb852 	.word	0x851eb852
    4c30:	403311eb 	.word	0x403311eb
    4c34:	0e560419 	.word	0x0e560419
    4c38:	4033122d 	.word	0x4033122d
    4c3c:	978d4fdf 	.word	0x978d4fdf
    4c40:	4033126e 	.word	0x4033126e
    4c44:	20c49ba6 	.word	0x20c49ba6
    4c48:	403312b0 	.word	0x403312b0
    4c4c:	a9fbe76d 	.word	0xa9fbe76d
    4c50:	403312f1 	.word	0x403312f1
    4c54:	33333333 	.word	0x33333333
    4c58:	40331333 	.word	0x40331333
    4c5c:	bc6a7efa 	.word	0xbc6a7efa
    4c60:	40331374 	.word	0x40331374
    4c64:	45a1cac1 	.word	0x45a1cac1
    4c68:	403313b6 	.word	0x403313b6
    4c6c:	ced91687 	.word	0xced91687
    4c70:	403313f7 	.word	0x403313f7
    4c74:	5810624e 	.word	0x5810624e
    4c78:	40331439 	.word	0x40331439
    4c7c:	e147ae14 	.word	0xe147ae14
    4c80:	4033147a 	.word	0x4033147a
    4c84:	6a7ef9db 	.word	0x6a7ef9db
    4c88:	403314bc 	.word	0x403314bc
    4c8c:	f3b645a2 	.word	0xf3b645a2
    4c90:	403314fd 	.word	0x403314fd
    4c94:	7ced9168 	.word	0x7ced9168
    4c98:	4033153f 	.word	0x4033153f
    4c9c:	0624dd2f 	.word	0x0624dd2f
    4ca0:	40331581 	.word	0x40331581
    4ca4:	8f5c28f6 	.word	0x8f5c28f6
    4ca8:	403315c2 	.word	0x403315c2
    4cac:	189374bc 	.word	0x189374bc
    4cb0:	40331604 	.word	0x40331604
    4cb4:	a1cac083 	.word	0xa1cac083
    4cb8:	40331645 	.word	0x40331645
    4cbc:	2b020c4a 	.word	0x2b020c4a
    4cc0:	40331687 	.word	0x40331687
    4cc4:	b4395810 	.word	0xb4395810
    4cc8:	403316c8 	.word	0x403316c8
    4ccc:	3d70a3d7 	.word	0x3d70a3d7
    4cd0:	4033170a 	.word	0x4033170a
    4cd4:	c6a7ef9e 	.word	0xc6a7ef9e
    4cd8:	4033174b 	.word	0x4033174b
    4cdc:	4fdf3b64 	.word	0x4fdf3b64
    4ce0:	4033178d 	.word	0x4033178d
    4ce4:	d916872b 	.word	0xd916872b
    4ce8:	403317ce 	.word	0x403317ce
    4cec:	624dd2f2 	.word	0x624dd2f2
    4cf0:	40331810 	.word	0x40331810
    4cf4:	eb851eb8 	.word	0xeb851eb8
    4cf8:	40331851 	.word	0x40331851
    4cfc:	74bc6a7f 	.word	0x74bc6a7f
    4d00:	40331893 	.word	0x40331893
    4d04:	fdf3b646 	.word	0xfdf3b646
    4d08:	403318d4 	.word	0x403318d4
    4d0c:	872b020c 	.word	0x872b020c
    4d10:	40331916 	.word	0x40331916
    4d14:	10624dd3 	.word	0x10624dd3
    4d18:	40331958 	.word	0x40331958
    4d1c:	9999999a 	.word	0x9999999a
    4d20:	40331999 	.word	0x40331999
    4d24:	22d0e560 	.word	0x22d0e560
    4d28:	403319db 	.word	0x403319db
    4d2c:	ac083127 	.word	0xac083127
    4d30:	40331a1c 	.word	0x40331a1c
    4d34:	353f7cee 	.word	0x353f7cee
    4d38:	40331a5e 	.word	0x40331a5e
    4d3c:	be76c8b4 	.word	0xbe76c8b4
    4d40:	40331a9f 	.word	0x40331a9f
    4d44:	47ae147b 	.word	0x47ae147b
    4d48:	40331ae1 	.word	0x40331ae1
    4d4c:	d0e56042 	.word	0xd0e56042
    4d50:	40331b22 	.word	0x40331b22
    4d54:	5a1cac08 	.word	0x5a1cac08
    4d58:	40331b64 	.word	0x40331b64
    4d5c:	e353f7cf 	.word	0xe353f7cf
    4d60:	40331ba5 	.word	0x40331ba5
    4d64:	6c8b4396 	.word	0x6c8b4396
    4d68:	40331be7 	.word	0x40331be7
    4d6c:	f5c28f5c 	.word	0xf5c28f5c
    4d70:	40331c28 	.word	0x40331c28
    4d74:	7ef9db23 	.word	0x7ef9db23
    4d78:	40331c6a 	.word	0x40331c6a
    4d7c:	083126e9 	.word	0x083126e9
    4d80:	40331cac 	.word	0x40331cac
    4d84:	916872b0 	.word	0x916872b0
    4d88:	40331ced 	.word	0x40331ced
    4d8c:	1a9fbe77 	.word	0x1a9fbe77
    4d90:	40331d2f 	.word	0x40331d2f
    4d94:	a3d70a3d 	.word	0xa3d70a3d
    4d98:	40331d70 	.word	0x40331d70
    4d9c:	2d0e5604 	.word	0x2d0e5604
    4da0:	40331db2 	.word	0x40331db2
    4da4:	b645a1cb 	.word	0xb645a1cb
    4da8:	40331df3 	.word	0x40331df3
    4dac:	3f7ced91 	.word	0x3f7ced91
    4db0:	40331e35 	.word	0x40331e35
    4db4:	c8b43958 	.word	0xc8b43958
    4db8:	40331e76 	.word	0x40331e76
    4dbc:	51eb851f 	.word	0x51eb851f
    4dc0:	40331eb8 	.word	0x40331eb8
    4dc4:	db22d0e5 	.word	0xdb22d0e5
    4dc8:	40331ef9 	.word	0x40331ef9
    4dcc:	645a1cac 	.word	0x645a1cac
    4dd0:	40331f3b 	.word	0x40331f3b
    4dd4:	ed916873 	.word	0xed916873
    4dd8:	40331f7c 	.word	0x40331f7c
    4ddc:	76c8b439 	.word	0x76c8b439
    4de0:	40331fbe 	.word	0x40331fbe
    4de4:	00000000 	.word	0x00000000
    4de8:	40332000 	.word	0x40332000
    4dec:	89374bc7 	.word	0x89374bc7
    4df0:	40332041 	.word	0x40332041
    4df4:	126e978d 	.word	0x126e978d
    4df8:	40332083 	.word	0x40332083
    4dfc:	9ba5e354 	.word	0x9ba5e354
    4e00:	403320c4 	.word	0x403320c4
    4e04:	89374bc7 	.word	0x89374bc7
    4e08:	40340041 	.word	0x40340041
    4e0c:	126e978d 	.word	0x126e978d
    4e10:	40340083 	.word	0x40340083
    4e14:	9ba5e354 	.word	0x9ba5e354
    4e18:	403400c4 	.word	0x403400c4
    4e1c:	24dd2f1b 	.word	0x24dd2f1b
    4e20:	40340106 	.word	0x40340106
    4e24:	ae147ae1 	.word	0xae147ae1
    4e28:	40340147 	.word	0x40340147
    4e2c:	374bc6a8 	.word	0x374bc6a8
    4e30:	40340189 	.word	0x40340189
    4e34:	c083126f 	.word	0xc083126f
    4e38:	403401ca 	.word	0x403401ca
    4e3c:	49ba5e35 	.word	0x49ba5e35
    4e40:	4034020c 	.word	0x4034020c
    4e44:	d2f1a9fc 	.word	0xd2f1a9fc
    4e48:	4034024d 	.word	0x4034024d
    4e4c:	5c28f5c3 	.word	0x5c28f5c3
    4e50:	4034028f 	.word	0x4034028f
    4e54:	e5604189 	.word	0xe5604189
    4e58:	403402d0 	.word	0x403402d0
    4e5c:	6e978d50 	.word	0x6e978d50
    4e60:	40340312 	.word	0x40340312
    4e64:	f7ced917 	.word	0xf7ced917
    4e68:	40340353 	.word	0x40340353
    4e6c:	810624dd 	.word	0x810624dd
    4e70:	40340395 	.word	0x40340395
    4e74:	0a3d70a4 	.word	0x0a3d70a4
    4e78:	403403d7 	.word	0x403403d7
    4e7c:	9374bc6a 	.word	0x9374bc6a
    4e80:	40340418 	.word	0x40340418
    4e84:	1cac0831 	.word	0x1cac0831
    4e88:	4034045a 	.word	0x4034045a
    4e8c:	a5e353f8 	.word	0xa5e353f8
    4e90:	4034049b 	.word	0x4034049b
    4e94:	2f1a9fbe 	.word	0x2f1a9fbe
    4e98:	403404dd 	.word	0x403404dd
    4e9c:	b851eb85 	.word	0xb851eb85
    4ea0:	4034051e 	.word	0x4034051e
    4ea4:	4189374c 	.word	0x4189374c
    4ea8:	40340560 	.word	0x40340560
    4eac:	cac08312 	.word	0xcac08312
    4eb0:	403405a1 	.word	0x403405a1
    4eb4:	53f7ced9 	.word	0x53f7ced9
    4eb8:	403405e3 	.word	0x403405e3
    4ebc:	dd2f1aa0 	.word	0xdd2f1aa0
    4ec0:	40340624 	.word	0x40340624
    4ec4:	66666666 	.word	0x66666666
    4ec8:	40340666 	.word	0x40340666
    4ecc:	ef9db22d 	.word	0xef9db22d
    4ed0:	403406a7 	.word	0x403406a7
    4ed4:	78d4fdf4 	.word	0x78d4fdf4
    4ed8:	403406e9 	.word	0x403406e9
    4edc:	020c49ba 	.word	0x020c49ba
    4ee0:	4034072b 	.word	0x4034072b
    4ee4:	8b439581 	.word	0x8b439581
    4ee8:	4034076c 	.word	0x4034076c
    4eec:	147ae148 	.word	0x147ae148
    4ef0:	403407ae 	.word	0x403407ae
    4ef4:	9db22d0e 	.word	0x9db22d0e
    4ef8:	403407ef 	.word	0x403407ef
    4efc:	26e978d5 	.word	0x26e978d5
    4f00:	40340831 	.word	0x40340831
    4f04:	b020c49c 	.word	0xb020c49c
    4f08:	40340872 	.word	0x40340872
    4f0c:	39581062 	.word	0x39581062
    4f10:	403408b4 	.word	0x403408b4
    4f14:	c28f5c29 	.word	0xc28f5c29
    4f18:	403408f5 	.word	0x403408f5
    4f1c:	4bc6a7f0 	.word	0x4bc6a7f0
    4f20:	40340937 	.word	0x40340937
    4f24:	d4fdf3b6 	.word	0xd4fdf3b6
    4f28:	40340978 	.word	0x40340978
    4f2c:	5e353f7d 	.word	0x5e353f7d
    4f30:	403409ba 	.word	0x403409ba
    4f34:	e76c8b44 	.word	0xe76c8b44
    4f38:	403409fb 	.word	0x403409fb
    4f3c:	70a3d70a 	.word	0x70a3d70a
    4f40:	40340a3d 	.word	0x40340a3d
    4f44:	f9db22d1 	.word	0xf9db22d1
    4f48:	40340a7e 	.word	0x40340a7e
    4f4c:	83126e98 	.word	0x83126e98
    4f50:	40340ac0 	.word	0x40340ac0
    4f54:	0c49ba5e 	.word	0x0c49ba5e
    4f58:	40340b02 	.word	0x40340b02
    4f5c:	95810625 	.word	0x95810625
    4f60:	40340b43 	.word	0x40340b43
    4f64:	1eb851ec 	.word	0x1eb851ec
    4f68:	40340b85 	.word	0x40340b85
    4f6c:	a7ef9db2 	.word	0xa7ef9db2
    4f70:	40340bc6 	.word	0x40340bc6
    4f74:	3126e979 	.word	0x3126e979
    4f78:	40340c08 	.word	0x40340c08
    4f7c:	ba5e353f 	.word	0xba5e353f
    4f80:	40340c49 	.word	0x40340c49
    4f84:	43958106 	.word	0x43958106
    4f88:	40340c8b 	.word	0x40340c8b
    4f8c:	cccccccd 	.word	0xcccccccd
    4f90:	40340ccc 	.word	0x40340ccc
    4f94:	56041893 	.word	0x56041893
    4f98:	40340d0e 	.word	0x40340d0e
    4f9c:	df3b645a 	.word	0xdf3b645a
    4fa0:	40340d4f 	.word	0x40340d4f
    4fa4:	6872b021 	.word	0x6872b021
    4fa8:	40340d91 	.word	0x40340d91
    4fac:	f1a9fbe7 	.word	0xf1a9fbe7
    4fb0:	40340dd2 	.word	0x40340dd2
    4fb4:	7ae147ae 	.word	0x7ae147ae
    4fb8:	40340e14 	.word	0x40340e14
    4fbc:	04189375 	.word	0x04189375
    4fc0:	40340e56 	.word	0x40340e56
    4fc4:	8d4fdf3b 	.word	0x8d4fdf3b
    4fc8:	40340e97 	.word	0x40340e97
    4fcc:	16872b02 	.word	0x16872b02
    4fd0:	40340ed9 	.word	0x40340ed9
    4fd4:	9fbe76c9 	.word	0x9fbe76c9
    4fd8:	40340f1a 	.word	0x40340f1a
    4fdc:	28f5c28f 	.word	0x28f5c28f
    4fe0:	40340f5c 	.word	0x40340f5c
    4fe4:	b22d0e56 	.word	0xb22d0e56
    4fe8:	40340f9d 	.word	0x40340f9d
    4fec:	3b645a1d 	.word	0x3b645a1d
    4ff0:	40340fdf 	.word	0x40340fdf
    4ff4:	c49ba5e3 	.word	0xc49ba5e3
    4ff8:	40341020 	.word	0x40341020
    4ffc:	4dd2f1aa 	.word	0x4dd2f1aa
    5000:	40341062 	.word	0x40341062
    5004:	d70a3d71 	.word	0xd70a3d71
    5008:	403410a3 	.word	0x403410a3
    500c:	60418937 	.word	0x60418937
    5010:	403410e5 	.word	0x403410e5
    5014:	e978d4fe 	.word	0xe978d4fe
    5018:	40341126 	.word	0x40341126
    501c:	72b020c5 	.word	0x72b020c5
    5020:	40341168 	.word	0x40341168
    5024:	fbe76c8b 	.word	0xfbe76c8b
    5028:	403411a9 	.word	0x403411a9
    502c:	851eb852 	.word	0x851eb852
    5030:	403411eb 	.word	0x403411eb
    5034:	0e560419 	.word	0x0e560419
    5038:	4034122d 	.word	0x4034122d
    503c:	978d4fdf 	.word	0x978d4fdf
    5040:	4034126e 	.word	0x4034126e
    5044:	20c49ba6 	.word	0x20c49ba6
    5048:	403412b0 	.word	0x403412b0
    504c:	a9fbe76d 	.word	0xa9fbe76d
    5050:	403412f1 	.word	0x403412f1
    5054:	33333333 	.word	0x33333333
    5058:	40341333 	.word	0x40341333
    505c:	bc6a7efa 	.word	0xbc6a7efa
    5060:	40341374 	.word	0x40341374
    5064:	45a1cac1 	.word	0x45a1cac1
    5068:	403413b6 	.word	0x403413b6
    506c:	ced91687 	.word	0xced91687
    5070:	403413f7 	.word	0x403413f7
    5074:	5810624e 	.word	0x5810624e
    5078:	40341439 	.word	0x40341439
    507c:	e147ae14 	.word	0xe147ae14
    5080:	4034147a 	.word	0x4034147a
    5084:	6a7ef9db 	.word	0x6a7ef9db
    5088:	403414bc 	.word	0x403414bc
    508c:	f3b645a2 	.word	0xf3b645a2
    5090:	403414fd 	.word	0x403414fd
    5094:	7ced9168 	.word	0x7ced9168
    5098:	4034153f 	.word	0x4034153f
    509c:	0624dd2f 	.word	0x0624dd2f
    50a0:	40341581 	.word	0x40341581
    50a4:	8f5c28f6 	.word	0x8f5c28f6
    50a8:	403415c2 	.word	0x403415c2
    50ac:	189374bc 	.word	0x189374bc
    50b0:	40341604 	.word	0x40341604
    50b4:	a1cac083 	.word	0xa1cac083
    50b8:	40341645 	.word	0x40341645
    50bc:	2b020c4a 	.word	0x2b020c4a
    50c0:	40341687 	.word	0x40341687
    50c4:	b4395810 	.word	0xb4395810
    50c8:	403416c8 	.word	0x403416c8
    50cc:	3d70a3d7 	.word	0x3d70a3d7
    50d0:	4034170a 	.word	0x4034170a
    50d4:	c6a7ef9e 	.word	0xc6a7ef9e
    50d8:	4034174b 	.word	0x4034174b
    50dc:	4fdf3b64 	.word	0x4fdf3b64
    50e0:	4034178d 	.word	0x4034178d
    50e4:	d916872b 	.word	0xd916872b
    50e8:	403417ce 	.word	0x403417ce
    50ec:	624dd2f2 	.word	0x624dd2f2
    50f0:	40341810 	.word	0x40341810
    50f4:	eb851eb8 	.word	0xeb851eb8
    50f8:	40341851 	.word	0x40341851
    50fc:	74bc6a7f 	.word	0x74bc6a7f
    5100:	40341893 	.word	0x40341893
    5104:	fdf3b646 	.word	0xfdf3b646
    5108:	403418d4 	.word	0x403418d4
    510c:	872b020c 	.word	0x872b020c
    5110:	40341916 	.word	0x40341916
    5114:	10624dd3 	.word	0x10624dd3
    5118:	40341958 	.word	0x40341958
    511c:	9999999a 	.word	0x9999999a
    5120:	40341999 	.word	0x40341999
    5124:	22d0e560 	.word	0x22d0e560
    5128:	403419db 	.word	0x403419db
    512c:	ac083127 	.word	0xac083127
    5130:	40341a1c 	.word	0x40341a1c
    5134:	353f7cee 	.word	0x353f7cee
    5138:	40341a5e 	.word	0x40341a5e
    513c:	be76c8b4 	.word	0xbe76c8b4
    5140:	40341a9f 	.word	0x40341a9f
    5144:	47ae147b 	.word	0x47ae147b
    5148:	40341ae1 	.word	0x40341ae1
    514c:	d0e56042 	.word	0xd0e56042
    5150:	40341b22 	.word	0x40341b22
    5154:	5a1cac08 	.word	0x5a1cac08
    5158:	40341b64 	.word	0x40341b64
    515c:	e353f7cf 	.word	0xe353f7cf
    5160:	40341ba5 	.word	0x40341ba5
    5164:	6c8b4396 	.word	0x6c8b4396
    5168:	40341be7 	.word	0x40341be7
    516c:	f5c28f5c 	.word	0xf5c28f5c
    5170:	40341c28 	.word	0x40341c28
    5174:	7ef9db23 	.word	0x7ef9db23
    5178:	40341c6a 	.word	0x40341c6a
    517c:	083126e9 	.word	0x083126e9
    5180:	40341cac 	.word	0x40341cac
    5184:	916872b0 	.word	0x916872b0
    5188:	40341ced 	.word	0x40341ced
    518c:	1a9fbe77 	.word	0x1a9fbe77
    5190:	40341d2f 	.word	0x40341d2f
    5194:	a3d70a3d 	.word	0xa3d70a3d
    5198:	40341d70 	.word	0x40341d70
    519c:	2d0e5604 	.word	0x2d0e5604
    51a0:	40341db2 	.word	0x40341db2
    51a4:	b645a1cb 	.word	0xb645a1cb
    51a8:	40341df3 	.word	0x40341df3
    51ac:	3f7ced91 	.word	0x3f7ced91
    51b0:	40341e35 	.word	0x40341e35
    51b4:	c8b43958 	.word	0xc8b43958
    51b8:	40341e76 	.word	0x40341e76
    51bc:	51eb851f 	.word	0x51eb851f
    51c0:	40341eb8 	.word	0x40341eb8
    51c4:	db22d0e5 	.word	0xdb22d0e5
    51c8:	40341ef9 	.word	0x40341ef9
    51cc:	645a1cac 	.word	0x645a1cac
    51d0:	40341f3b 	.word	0x40341f3b
    51d4:	ed916873 	.word	0xed916873
    51d8:	40341f7c 	.word	0x40341f7c
    51dc:	76c8b439 	.word	0x76c8b439
    51e0:	40341fbe 	.word	0x40341fbe
    51e4:	00000000 	.word	0x00000000
    51e8:	40342000 	.word	0x40342000
    51ec:	89374bc7 	.word	0x89374bc7
    51f0:	40342041 	.word	0x40342041
    51f4:	126e978d 	.word	0x126e978d
    51f8:	40342083 	.word	0x40342083
    51fc:	9ba5e354 	.word	0x9ba5e354
    5200:	403420c4 	.word	0x403420c4
    5204:	89374bc7 	.word	0x89374bc7
    5208:	40350041 	.word	0x40350041
    520c:	126e978d 	.word	0x126e978d
    5210:	40350083 	.word	0x40350083
    5214:	9ba5e354 	.word	0x9ba5e354
    5218:	403500c4 	.word	0x403500c4
    521c:	24dd2f1b 	.word	0x24dd2f1b
    5220:	40350106 	.word	0x40350106
    5224:	ae147ae1 	.word	0xae147ae1
    5228:	40350147 	.word	0x40350147
    522c:	374bc6a8 	.word	0x374bc6a8
    5230:	40350189 	.word	0x40350189
    5234:	c083126f 	.word	0xc083126f
    5238:	403501ca 	.word	0x403501ca
    523c:	49ba5e35 	.word	0x49ba5e35
    5240:	4035020c 	.word	0x4035020c
    5244:	d2f1a9fc 	.word	0xd2f1a9fc
    5248:	4035024d 	.word	0x4035024d
    524c:	5c28f5c3 	.word	0x5c28f5c3
    5250:	4035028f 	.word	0x4035028f
    5254:	e5604189 	.word	0xe5604189
    5258:	403502d0 	.word	0x403502d0
    525c:	6e978d50 	.word	0x6e978d50
    5260:	40350312 	.word	0x40350312
    5264:	f7ced917 	.word	0xf7ced917
    5268:	40350353 	.word	0x40350353
    526c:	810624dd 	.word	0x810624dd
    5270:	40350395 	.word	0x40350395
    5274:	0a3d70a4 	.word	0x0a3d70a4
    5278:	403503d7 	.word	0x403503d7
    527c:	9374bc6a 	.word	0x9374bc6a
    5280:	40350418 	.word	0x40350418
    5284:	1cac0831 	.word	0x1cac0831
    5288:	4035045a 	.word	0x4035045a
    528c:	a5e353f8 	.word	0xa5e353f8
    5290:	4035049b 	.word	0x4035049b
    5294:	2f1a9fbe 	.word	0x2f1a9fbe
    5298:	403504dd 	.word	0x403504dd
    529c:	b851eb85 	.word	0xb851eb85
    52a0:	4035051e 	.word	0x4035051e
    52a4:	4189374c 	.word	0x4189374c
    52a8:	40350560 	.word	0x40350560
    52ac:	cac08312 	.word	0xcac08312
    52b0:	403505a1 	.word	0x403505a1
    52b4:	53f7ced9 	.word	0x53f7ced9
    52b8:	403505e3 	.word	0x403505e3
    52bc:	dd2f1aa0 	.word	0xdd2f1aa0
    52c0:	40350624 	.word	0x40350624
    52c4:	66666666 	.word	0x66666666
    52c8:	40350666 	.word	0x40350666
    52cc:	ef9db22d 	.word	0xef9db22d
    52d0:	403506a7 	.word	0x403506a7
    52d4:	78d4fdf4 	.word	0x78d4fdf4
    52d8:	403506e9 	.word	0x403506e9
    52dc:	020c49ba 	.word	0x020c49ba
    52e0:	4035072b 	.word	0x4035072b
    52e4:	8b439581 	.word	0x8b439581
    52e8:	4035076c 	.word	0x4035076c
    52ec:	147ae148 	.word	0x147ae148
    52f0:	403507ae 	.word	0x403507ae
    52f4:	9db22d0e 	.word	0x9db22d0e
    52f8:	403507ef 	.word	0x403507ef
    52fc:	26e978d5 	.word	0x26e978d5
    5300:	40350831 	.word	0x40350831
    5304:	b020c49c 	.word	0xb020c49c
    5308:	40350872 	.word	0x40350872
    530c:	39581062 	.word	0x39581062
    5310:	403508b4 	.word	0x403508b4
    5314:	c28f5c29 	.word	0xc28f5c29
    5318:	403508f5 	.word	0x403508f5
    531c:	4bc6a7f0 	.word	0x4bc6a7f0
    5320:	40350937 	.word	0x40350937
    5324:	d4fdf3b6 	.word	0xd4fdf3b6
    5328:	40350978 	.word	0x40350978
    532c:	5e353f7d 	.word	0x5e353f7d
    5330:	403509ba 	.word	0x403509ba
    5334:	e76c8b44 	.word	0xe76c8b44
    5338:	403509fb 	.word	0x403509fb
    533c:	70a3d70a 	.word	0x70a3d70a
    5340:	40350a3d 	.word	0x40350a3d
    5344:	f9db22d1 	.word	0xf9db22d1
    5348:	40350a7e 	.word	0x40350a7e
    534c:	83126e98 	.word	0x83126e98
    5350:	40350ac0 	.word	0x40350ac0
    5354:	0c49ba5e 	.word	0x0c49ba5e
    5358:	40350b02 	.word	0x40350b02
    535c:	95810625 	.word	0x95810625
    5360:	40350b43 	.word	0x40350b43
    5364:	1eb851ec 	.word	0x1eb851ec
    5368:	40350b85 	.word	0x40350b85
    536c:	a7ef9db2 	.word	0xa7ef9db2
    5370:	40350bc6 	.word	0x40350bc6
    5374:	3126e979 	.word	0x3126e979
    5378:	40350c08 	.word	0x40350c08
    537c:	ba5e353f 	.word	0xba5e353f
    5380:	40350c49 	.word	0x40350c49
    5384:	43958106 	.word	0x43958106
    5388:	40350c8b 	.word	0x40350c8b
    538c:	cccccccd 	.word	0xcccccccd
    5390:	40350ccc 	.word	0x40350ccc
    5394:	56041893 	.word	0x56041893
    5398:	40350d0e 	.word	0x40350d0e
    539c:	df3b645a 	.word	0xdf3b645a
    53a0:	40350d4f 	.word	0x40350d4f
    53a4:	6872b021 	.word	0x6872b021
    53a8:	40350d91 	.word	0x40350d91
    53ac:	f1a9fbe7 	.word	0xf1a9fbe7
    53b0:	40350dd2 	.word	0x40350dd2
    53b4:	7ae147ae 	.word	0x7ae147ae
    53b8:	40350e14 	.word	0x40350e14
    53bc:	04189375 	.word	0x04189375
    53c0:	40350e56 	.word	0x40350e56
    53c4:	8d4fdf3b 	.word	0x8d4fdf3b
    53c8:	40350e97 	.word	0x40350e97
    53cc:	16872b02 	.word	0x16872b02
    53d0:	40350ed9 	.word	0x40350ed9
    53d4:	9fbe76c9 	.word	0x9fbe76c9
    53d8:	40350f1a 	.word	0x40350f1a
    53dc:	28f5c28f 	.word	0x28f5c28f
    53e0:	40350f5c 	.word	0x40350f5c
    53e4:	b22d0e56 	.word	0xb22d0e56
    53e8:	40350f9d 	.word	0x40350f9d
    53ec:	3b645a1d 	.word	0x3b645a1d
    53f0:	40350fdf 	.word	0x40350fdf
    53f4:	c49ba5e3 	.word	0xc49ba5e3
    53f8:	40351020 	.word	0x40351020
    53fc:	4dd2f1aa 	.word	0x4dd2f1aa
    5400:	40351062 	.word	0x40351062
    5404:	d70a3d71 	.word	0xd70a3d71
    5408:	403510a3 	.word	0x403510a3
    540c:	60418937 	.word	0x60418937
    5410:	403510e5 	.word	0x403510e5
    5414:	e978d4fe 	.word	0xe978d4fe
    5418:	40351126 	.word	0x40351126
    541c:	72b020c5 	.word	0x72b020c5
    5420:	40351168 	.word	0x40351168
    5424:	fbe76c8b 	.word	0xfbe76c8b
    5428:	403511a9 	.word	0x403511a9
    542c:	851eb852 	.word	0x851eb852
    5430:	403511eb 	.word	0x403511eb
    5434:	0e560419 	.word	0x0e560419
    5438:	4035122d 	.word	0x4035122d
    543c:	978d4fdf 	.word	0x978d4fdf
    5440:	4035126e 	.word	0x4035126e
    5444:	20c49ba6 	.word	0x20c49ba6
    5448:	403512b0 	.word	0x403512b0
    544c:	a9fbe76d 	.word	0xa9fbe76d
    5450:	403512f1 	.word	0x403512f1
    5454:	33333333 	.word	0x33333333
    5458:	40351333 	.word	0x40351333
    545c:	bc6a7efa 	.word	0xbc6a7efa
    5460:	40351374 	.word	0x40351374
    5464:	45a1cac1 	.word	0x45a1cac1
    5468:	403513b6 	.word	0x403513b6
    546c:	ced91687 	.word	0xced91687
    5470:	403513f7 	.word	0x403513f7
    5474:	5810624e 	.word	0x5810624e
    5478:	40351439 	.word	0x40351439
    547c:	e147ae14 	.word	0xe147ae14
    5480:	4035147a 	.word	0x4035147a
    5484:	6a7ef9db 	.word	0x6a7ef9db
    5488:	403514bc 	.word	0x403514bc
    548c:	f3b645a2 	.word	0xf3b645a2
    5490:	403514fd 	.word	0x403514fd
    5494:	7ced9168 	.word	0x7ced9168
    5498:	4035153f 	.word	0x4035153f
    549c:	0624dd2f 	.word	0x0624dd2f
    54a0:	40351581 	.word	0x40351581
    54a4:	8f5c28f6 	.word	0x8f5c28f6
    54a8:	403515c2 	.word	0x403515c2
    54ac:	189374bc 	.word	0x189374bc
    54b0:	40351604 	.word	0x40351604
    54b4:	a1cac083 	.word	0xa1cac083
    54b8:	40351645 	.word	0x40351645
    54bc:	2b020c4a 	.word	0x2b020c4a
    54c0:	40351687 	.word	0x40351687
    54c4:	b4395810 	.word	0xb4395810
    54c8:	403516c8 	.word	0x403516c8
    54cc:	3d70a3d7 	.word	0x3d70a3d7
    54d0:	4035170a 	.word	0x4035170a
    54d4:	c6a7ef9e 	.word	0xc6a7ef9e
    54d8:	4035174b 	.word	0x4035174b
    54dc:	4fdf3b64 	.word	0x4fdf3b64
    54e0:	4035178d 	.word	0x4035178d
    54e4:	d916872b 	.word	0xd916872b
    54e8:	403517ce 	.word	0x403517ce
    54ec:	624dd2f2 	.word	0x624dd2f2
    54f0:	40351810 	.word	0x40351810
    54f4:	eb851eb8 	.word	0xeb851eb8
    54f8:	40351851 	.word	0x40351851
    54fc:	74bc6a7f 	.word	0x74bc6a7f
    5500:	40351893 	.word	0x40351893
    5504:	fdf3b646 	.word	0xfdf3b646
    5508:	403518d4 	.word	0x403518d4
    550c:	872b020c 	.word	0x872b020c
    5510:	40351916 	.word	0x40351916
    5514:	10624dd3 	.word	0x10624dd3
    5518:	40351958 	.word	0x40351958
    551c:	9999999a 	.word	0x9999999a
    5520:	40351999 	.word	0x40351999
    5524:	22d0e560 	.word	0x22d0e560
    5528:	403519db 	.word	0x403519db
    552c:	ac083127 	.word	0xac083127
    5530:	40351a1c 	.word	0x40351a1c
    5534:	353f7cee 	.word	0x353f7cee
    5538:	40351a5e 	.word	0x40351a5e
    553c:	be76c8b4 	.word	0xbe76c8b4
    5540:	40351a9f 	.word	0x40351a9f
    5544:	47ae147b 	.word	0x47ae147b
    5548:	40351ae1 	.word	0x40351ae1
    554c:	d0e56042 	.word	0xd0e56042
    5550:	40351b22 	.word	0x40351b22
    5554:	5a1cac08 	.word	0x5a1cac08
    5558:	40351b64 	.word	0x40351b64
    555c:	e353f7cf 	.word	0xe353f7cf
    5560:	40351ba5 	.word	0x40351ba5
    5564:	6c8b4396 	.word	0x6c8b4396
    5568:	40351be7 	.word	0x40351be7
    556c:	f5c28f5c 	.word	0xf5c28f5c
    5570:	40351c28 	.word	0x40351c28
    5574:	7ef9db23 	.word	0x7ef9db23
    5578:	40351c6a 	.word	0x40351c6a
    557c:	083126e9 	.word	0x083126e9
    5580:	40351cac 	.word	0x40351cac
    5584:	916872b0 	.word	0x916872b0
    5588:	40351ced 	.word	0x40351ced
    558c:	1a9fbe77 	.word	0x1a9fbe77
    5590:	40351d2f 	.word	0x40351d2f
    5594:	a3d70a3d 	.word	0xa3d70a3d
    5598:	40351d70 	.word	0x40351d70
    559c:	2d0e5604 	.word	0x2d0e5604
    55a0:	40351db2 	.word	0x40351db2
    55a4:	b645a1cb 	.word	0xb645a1cb
    55a8:	40351df3 	.word	0x40351df3
    55ac:	3f7ced91 	.word	0x3f7ced91
    55b0:	40351e35 	.word	0x40351e35
    55b4:	c8b43958 	.word	0xc8b43958
    55b8:	40351e76 	.word	0x40351e76
    55bc:	51eb851f 	.word	0x51eb851f
    55c0:	40351eb8 	.word	0x40351eb8
    55c4:	db22d0e5 	.word	0xdb22d0e5
    55c8:	40351ef9 	.word	0x40351ef9
    55cc:	645a1cac 	.word	0x645a1cac
    55d0:	40351f3b 	.word	0x40351f3b
    55d4:	ed916873 	.word	0xed916873
    55d8:	40351f7c 	.word	0x40351f7c
    55dc:	76c8b439 	.word	0x76c8b439
    55e0:	40351fbe 	.word	0x40351fbe
    55e4:	00000000 	.word	0x00000000
    55e8:	40352000 	.word	0x40352000
    55ec:	89374bc7 	.word	0x89374bc7
    55f0:	40352041 	.word	0x40352041
    55f4:	126e978d 	.word	0x126e978d
    55f8:	40352083 	.word	0x40352083
    55fc:	9ba5e354 	.word	0x9ba5e354
    5600:	403520c4 	.word	0x403520c4
    5604:	89374bc7 	.word	0x89374bc7
    5608:	40360041 	.word	0x40360041
    560c:	126e978d 	.word	0x126e978d
    5610:	40360083 	.word	0x40360083
    5614:	9ba5e354 	.word	0x9ba5e354
    5618:	403600c4 	.word	0x403600c4
    561c:	24dd2f1b 	.word	0x24dd2f1b
    5620:	40360106 	.word	0x40360106
    5624:	ae147ae1 	.word	0xae147ae1
    5628:	40360147 	.word	0x40360147
    562c:	374bc6a8 	.word	0x374bc6a8
    5630:	40360189 	.word	0x40360189
    5634:	c083126f 	.word	0xc083126f
    5638:	403601ca 	.word	0x403601ca
    563c:	49ba5e35 	.word	0x49ba5e35
    5640:	4036020c 	.word	0x4036020c
    5644:	d2f1a9fc 	.word	0xd2f1a9fc
    5648:	4036024d 	.word	0x4036024d
    564c:	5c28f5c3 	.word	0x5c28f5c3
    5650:	4036028f 	.word	0x4036028f
    5654:	e5604189 	.word	0xe5604189
    5658:	403602d0 	.word	0x403602d0
    565c:	6e978d50 	.word	0x6e978d50
    5660:	40360312 	.word	0x40360312
    5664:	f7ced917 	.word	0xf7ced917
    5668:	40360353 	.word	0x40360353
    566c:	810624dd 	.word	0x810624dd
    5670:	40360395 	.word	0x40360395
    5674:	0a3d70a4 	.word	0x0a3d70a4
    5678:	403603d7 	.word	0x403603d7
    567c:	9374bc6a 	.word	0x9374bc6a
    5680:	40360418 	.word	0x40360418
    5684:	1cac0831 	.word	0x1cac0831
    5688:	4036045a 	.word	0x4036045a
    568c:	a5e353f8 	.word	0xa5e353f8
    5690:	4036049b 	.word	0x4036049b
    5694:	2f1a9fbe 	.word	0x2f1a9fbe
    5698:	403604dd 	.word	0x403604dd
    569c:	b851eb85 	.word	0xb851eb85
    56a0:	4036051e 	.word	0x4036051e
    56a4:	4189374c 	.word	0x4189374c
    56a8:	40360560 	.word	0x40360560
    56ac:	cac08312 	.word	0xcac08312
    56b0:	403605a1 	.word	0x403605a1
    56b4:	53f7ced9 	.word	0x53f7ced9
    56b8:	403605e3 	.word	0x403605e3
    56bc:	dd2f1aa0 	.word	0xdd2f1aa0
    56c0:	40360624 	.word	0x40360624
    56c4:	66666666 	.word	0x66666666
    56c8:	40360666 	.word	0x40360666
    56cc:	ef9db22d 	.word	0xef9db22d
    56d0:	403606a7 	.word	0x403606a7
    56d4:	78d4fdf4 	.word	0x78d4fdf4
    56d8:	403606e9 	.word	0x403606e9
    56dc:	020c49ba 	.word	0x020c49ba
    56e0:	4036072b 	.word	0x4036072b
    56e4:	8b439581 	.word	0x8b439581
    56e8:	4036076c 	.word	0x4036076c
    56ec:	147ae148 	.word	0x147ae148
    56f0:	403607ae 	.word	0x403607ae
    56f4:	9db22d0e 	.word	0x9db22d0e
    56f8:	403607ef 	.word	0x403607ef
    56fc:	26e978d5 	.word	0x26e978d5
    5700:	40360831 	.word	0x40360831
    5704:	b020c49c 	.word	0xb020c49c
    5708:	40360872 	.word	0x40360872
    570c:	39581062 	.word	0x39581062
    5710:	403608b4 	.word	0x403608b4
    5714:	c28f5c29 	.word	0xc28f5c29
    5718:	403608f5 	.word	0x403608f5
    571c:	4bc6a7f0 	.word	0x4bc6a7f0
    5720:	40360937 	.word	0x40360937
    5724:	d4fdf3b6 	.word	0xd4fdf3b6
    5728:	40360978 	.word	0x40360978
    572c:	5e353f7d 	.word	0x5e353f7d
    5730:	403609ba 	.word	0x403609ba
    5734:	e76c8b44 	.word	0xe76c8b44
    5738:	403609fb 	.word	0x403609fb
    573c:	70a3d70a 	.word	0x70a3d70a
    5740:	40360a3d 	.word	0x40360a3d
    5744:	f9db22d1 	.word	0xf9db22d1
    5748:	40360a7e 	.word	0x40360a7e
    574c:	83126e98 	.word	0x83126e98
    5750:	40360ac0 	.word	0x40360ac0
    5754:	0c49ba5e 	.word	0x0c49ba5e
    5758:	40360b02 	.word	0x40360b02
    575c:	95810625 	.word	0x95810625
    5760:	40360b43 	.word	0x40360b43
    5764:	1eb851ec 	.word	0x1eb851ec
    5768:	40360b85 	.word	0x40360b85
    576c:	a7ef9db2 	.word	0xa7ef9db2
    5770:	40360bc6 	.word	0x40360bc6
    5774:	3126e979 	.word	0x3126e979
    5778:	40360c08 	.word	0x40360c08
    577c:	ba5e353f 	.word	0xba5e353f
    5780:	40360c49 	.word	0x40360c49
    5784:	43958106 	.word	0x43958106
    5788:	40360c8b 	.word	0x40360c8b
    578c:	cccccccd 	.word	0xcccccccd
    5790:	40360ccc 	.word	0x40360ccc
    5794:	56041893 	.word	0x56041893
    5798:	40360d0e 	.word	0x40360d0e
    579c:	df3b645a 	.word	0xdf3b645a
    57a0:	40360d4f 	.word	0x40360d4f
    57a4:	6872b021 	.word	0x6872b021
    57a8:	40360d91 	.word	0x40360d91
    57ac:	f1a9fbe7 	.word	0xf1a9fbe7
    57b0:	40360dd2 	.word	0x40360dd2
    57b4:	7ae147ae 	.word	0x7ae147ae
    57b8:	40360e14 	.word	0x40360e14
    57bc:	04189375 	.word	0x04189375
    57c0:	40360e56 	.word	0x40360e56
    57c4:	8d4fdf3b 	.word	0x8d4fdf3b
    57c8:	40360e97 	.word	0x40360e97
    57cc:	16872b02 	.word	0x16872b02
    57d0:	40360ed9 	.word	0x40360ed9
    57d4:	9fbe76c9 	.word	0x9fbe76c9
    57d8:	40360f1a 	.word	0x40360f1a
    57dc:	28f5c28f 	.word	0x28f5c28f
    57e0:	40360f5c 	.word	0x40360f5c
    57e4:	b22d0e56 	.word	0xb22d0e56
    57e8:	40360f9d 	.word	0x40360f9d
    57ec:	3b645a1d 	.word	0x3b645a1d
    57f0:	40360fdf 	.word	0x40360fdf
    57f4:	c49ba5e3 	.word	0xc49ba5e3
    57f8:	40361020 	.word	0x40361020
    57fc:	4dd2f1aa 	.word	0x4dd2f1aa
    5800:	40361062 	.word	0x40361062
    5804:	d70a3d71 	.word	0xd70a3d71
    5808:	403610a3 	.word	0x403610a3
    580c:	60418937 	.word	0x60418937
    5810:	403610e5 	.word	0x403610e5
    5814:	e978d4fe 	.word	0xe978d4fe
    5818:	40361126 	.word	0x40361126
    581c:	72b020c5 	.word	0x72b020c5
    5820:	40361168 	.word	0x40361168
    5824:	fbe76c8b 	.word	0xfbe76c8b
    5828:	403611a9 	.word	0x403611a9
    582c:	851eb852 	.word	0x851eb852
    5830:	403611eb 	.word	0x403611eb
    5834:	0e560419 	.word	0x0e560419
    5838:	4036122d 	.word	0x4036122d
    583c:	978d4fdf 	.word	0x978d4fdf
    5840:	4036126e 	.word	0x4036126e
    5844:	20c49ba6 	.word	0x20c49ba6
    5848:	403612b0 	.word	0x403612b0
    584c:	a9fbe76d 	.word	0xa9fbe76d
    5850:	403612f1 	.word	0x403612f1
    5854:	33333333 	.word	0x33333333
    5858:	40361333 	.word	0x40361333
    585c:	bc6a7efa 	.word	0xbc6a7efa
    5860:	40361374 	.word	0x40361374
    5864:	45a1cac1 	.word	0x45a1cac1
    5868:	403613b6 	.word	0x403613b6
    586c:	ced91687 	.word	0xced91687
    5870:	403613f7 	.word	0x403613f7
    5874:	5810624e 	.word	0x5810624e
    5878:	40361439 	.word	0x40361439
    587c:	e147ae14 	.word	0xe147ae14
    5880:	4036147a 	.word	0x4036147a
    5884:	6a7ef9db 	.word	0x6a7ef9db
    5888:	403614bc 	.word	0x403614bc
    588c:	f3b645a2 	.word	0xf3b645a2
    5890:	403614fd 	.word	0x403614fd
    5894:	7ced9168 	.word	0x7ced9168
    5898:	4036153f 	.word	0x4036153f
    589c:	0624dd2f 	.word	0x0624dd2f
    58a0:	40361581 	.word	0x40361581
    58a4:	8f5c28f6 	.word	0x8f5c28f6
    58a8:	403615c2 	.word	0x403615c2
    58ac:	189374bc 	.word	0x189374bc
    58b0:	40361604 	.word	0x40361604
    58b4:	a1cac083 	.word	0xa1cac083
    58b8:	40361645 	.word	0x40361645
    58bc:	2b020c4a 	.word	0x2b020c4a
    58c0:	40361687 	.word	0x40361687
    58c4:	b4395810 	.word	0xb4395810
    58c8:	403616c8 	.word	0x403616c8
    58cc:	3d70a3d7 	.word	0x3d70a3d7
    58d0:	4036170a 	.word	0x4036170a
    58d4:	c6a7ef9e 	.word	0xc6a7ef9e
    58d8:	4036174b 	.word	0x4036174b
    58dc:	4fdf3b64 	.word	0x4fdf3b64
    58e0:	4036178d 	.word	0x4036178d
    58e4:	d916872b 	.word	0xd916872b
    58e8:	403617ce 	.word	0x403617ce
    58ec:	624dd2f2 	.word	0x624dd2f2
    58f0:	40361810 	.word	0x40361810
    58f4:	eb851eb8 	.word	0xeb851eb8
    58f8:	40361851 	.word	0x40361851
    58fc:	74bc6a7f 	.word	0x74bc6a7f
    5900:	40361893 	.word	0x40361893
    5904:	fdf3b646 	.word	0xfdf3b646
    5908:	403618d4 	.word	0x403618d4
    590c:	872b020c 	.word	0x872b020c
    5910:	40361916 	.word	0x40361916
    5914:	10624dd3 	.word	0x10624dd3
    5918:	40361958 	.word	0x40361958
    591c:	9999999a 	.word	0x9999999a
    5920:	40361999 	.word	0x40361999
    5924:	22d0e560 	.word	0x22d0e560
    5928:	403619db 	.word	0x403619db
    592c:	ac083127 	.word	0xac083127
    5930:	40361a1c 	.word	0x40361a1c
    5934:	353f7cee 	.word	0x353f7cee
    5938:	40361a5e 	.word	0x40361a5e
    593c:	be76c8b4 	.word	0xbe76c8b4
    5940:	40361a9f 	.word	0x40361a9f
    5944:	47ae147b 	.word	0x47ae147b
    5948:	40361ae1 	.word	0x40361ae1
    594c:	d0e56042 	.word	0xd0e56042
    5950:	40361b22 	.word	0x40361b22
    5954:	5a1cac08 	.word	0x5a1cac08
    5958:	40361b64 	.word	0x40361b64
    595c:	e353f7cf 	.word	0xe353f7cf
    5960:	40361ba5 	.word	0x40361ba5
    5964:	6c8b4396 	.word	0x6c8b4396
    5968:	40361be7 	.word	0x40361be7
    596c:	f5c28f5c 	.word	0xf5c28f5c
    5970:	40361c28 	.word	0x40361c28
    5974:	7ef9db23 	.word	0x7ef9db23
    5978:	40361c6a 	.word	0x40361c6a
    597c:	083126e9 	.word	0x083126e9
    5980:	40361cac 	.word	0x40361cac
    5984:	916872b0 	.word	0x916872b0
    5988:	40361ced 	.word	0x40361ced
    598c:	1a9fbe77 	.word	0x1a9fbe77
    5990:	40361d2f 	.word	0x40361d2f
    5994:	a3d70a3d 	.word	0xa3d70a3d
    5998:	40361d70 	.word	0x40361d70
    599c:	2d0e5604 	.word	0x2d0e5604
    59a0:	40361db2 	.word	0x40361db2
    59a4:	b645a1cb 	.word	0xb645a1cb
    59a8:	40361df3 	.word	0x40361df3
    59ac:	3f7ced91 	.word	0x3f7ced91
    59b0:	40361e35 	.word	0x40361e35
    59b4:	c8b43958 	.word	0xc8b43958
    59b8:	40361e76 	.word	0x40361e76
    59bc:	51eb851f 	.word	0x51eb851f
    59c0:	40361eb8 	.word	0x40361eb8
    59c4:	db22d0e5 	.word	0xdb22d0e5
    59c8:	40361ef9 	.word	0x40361ef9
    59cc:	645a1cac 	.word	0x645a1cac
    59d0:	40361f3b 	.word	0x40361f3b
    59d4:	ed916873 	.word	0xed916873
    59d8:	40361f7c 	.word	0x40361f7c
    59dc:	76c8b439 	.word	0x76c8b439
    59e0:	40361fbe 	.word	0x40361fbe
    59e4:	00000000 	.word	0x00000000
    59e8:	40362000 	.word	0x40362000
    59ec:	89374bc7 	.word	0x89374bc7
    59f0:	40362041 	.word	0x40362041
    59f4:	126e978d 	.word	0x126e978d
    59f8:	40362083 	.word	0x40362083
    59fc:	9ba5e354 	.word	0x9ba5e354
    5a00:	403620c4 	.word	0x403620c4
    5a04:	89374bc7 	.word	0x89374bc7
    5a08:	40370041 	.word	0x40370041
    5a0c:	126e978d 	.word	0x126e978d
    5a10:	40370083 	.word	0x40370083
    5a14:	9ba5e354 	.word	0x9ba5e354
    5a18:	403700c4 	.word	0x403700c4
    5a1c:	24dd2f1b 	.word	0x24dd2f1b
    5a20:	40370106 	.word	0x40370106
    5a24:	ae147ae1 	.word	0xae147ae1
    5a28:	40370147 	.word	0x40370147
    5a2c:	374bc6a8 	.word	0x374bc6a8
    5a30:	40370189 	.word	0x40370189
    5a34:	c083126f 	.word	0xc083126f
    5a38:	403701ca 	.word	0x403701ca
    5a3c:	49ba5e35 	.word	0x49ba5e35
    5a40:	4037020c 	.word	0x4037020c
    5a44:	d2f1a9fc 	.word	0xd2f1a9fc
    5a48:	4037024d 	.word	0x4037024d
    5a4c:	5c28f5c3 	.word	0x5c28f5c3
    5a50:	4037028f 	.word	0x4037028f
    5a54:	e5604189 	.word	0xe5604189
    5a58:	403702d0 	.word	0x403702d0
    5a5c:	6e978d50 	.word	0x6e978d50
    5a60:	40370312 	.word	0x40370312
    5a64:	f7ced917 	.word	0xf7ced917
    5a68:	40370353 	.word	0x40370353
    5a6c:	810624dd 	.word	0x810624dd
    5a70:	40370395 	.word	0x40370395
    5a74:	0a3d70a4 	.word	0x0a3d70a4
    5a78:	403703d7 	.word	0x403703d7
    5a7c:	9374bc6a 	.word	0x9374bc6a
    5a80:	40370418 	.word	0x40370418
    5a84:	1cac0831 	.word	0x1cac0831
    5a88:	4037045a 	.word	0x4037045a
    5a8c:	a5e353f8 	.word	0xa5e353f8
    5a90:	4037049b 	.word	0x4037049b
    5a94:	2f1a9fbe 	.word	0x2f1a9fbe
    5a98:	403704dd 	.word	0x403704dd
    5a9c:	b851eb85 	.word	0xb851eb85
    5aa0:	4037051e 	.word	0x4037051e
    5aa4:	4189374c 	.word	0x4189374c
    5aa8:	40370560 	.word	0x40370560
    5aac:	cac08312 	.word	0xcac08312
    5ab0:	403705a1 	.word	0x403705a1
    5ab4:	53f7ced9 	.word	0x53f7ced9
    5ab8:	403705e3 	.word	0x403705e3
    5abc:	dd2f1aa0 	.word	0xdd2f1aa0
    5ac0:	40370624 	.word	0x40370624
    5ac4:	66666666 	.word	0x66666666
    5ac8:	40370666 	.word	0x40370666
    5acc:	ef9db22d 	.word	0xef9db22d
    5ad0:	403706a7 	.word	0x403706a7
    5ad4:	78d4fdf4 	.word	0x78d4fdf4
    5ad8:	403706e9 	.word	0x403706e9
    5adc:	020c49ba 	.word	0x020c49ba
    5ae0:	4037072b 	.word	0x4037072b
    5ae4:	8b439581 	.word	0x8b439581
    5ae8:	4037076c 	.word	0x4037076c
    5aec:	147ae148 	.word	0x147ae148
    5af0:	403707ae 	.word	0x403707ae
    5af4:	9db22d0e 	.word	0x9db22d0e
    5af8:	403707ef 	.word	0x403707ef
    5afc:	26e978d5 	.word	0x26e978d5
    5b00:	40370831 	.word	0x40370831
    5b04:	b020c49c 	.word	0xb020c49c
    5b08:	40370872 	.word	0x40370872
    5b0c:	39581062 	.word	0x39581062
    5b10:	403708b4 	.word	0x403708b4
    5b14:	c28f5c29 	.word	0xc28f5c29
    5b18:	403708f5 	.word	0x403708f5
    5b1c:	4bc6a7f0 	.word	0x4bc6a7f0
    5b20:	40370937 	.word	0x40370937
    5b24:	d4fdf3b6 	.word	0xd4fdf3b6
    5b28:	40370978 	.word	0x40370978
    5b2c:	5e353f7d 	.word	0x5e353f7d
    5b30:	403709ba 	.word	0x403709ba
    5b34:	e76c8b44 	.word	0xe76c8b44
    5b38:	403709fb 	.word	0x403709fb
    5b3c:	70a3d70a 	.word	0x70a3d70a
    5b40:	40370a3d 	.word	0x40370a3d
    5b44:	f9db22d1 	.word	0xf9db22d1
    5b48:	40370a7e 	.word	0x40370a7e
    5b4c:	83126e98 	.word	0x83126e98
    5b50:	40370ac0 	.word	0x40370ac0
    5b54:	0c49ba5e 	.word	0x0c49ba5e
    5b58:	40370b02 	.word	0x40370b02
    5b5c:	95810625 	.word	0x95810625
    5b60:	40370b43 	.word	0x40370b43
    5b64:	1eb851ec 	.word	0x1eb851ec
    5b68:	40370b85 	.word	0x40370b85
    5b6c:	a7ef9db2 	.word	0xa7ef9db2
    5b70:	40370bc6 	.word	0x40370bc6
    5b74:	3126e979 	.word	0x3126e979
    5b78:	40370c08 	.word	0x40370c08
    5b7c:	ba5e353f 	.word	0xba5e353f
    5b80:	40370c49 	.word	0x40370c49
    5b84:	43958106 	.word	0x43958106
    5b88:	40370c8b 	.word	0x40370c8b
    5b8c:	cccccccd 	.word	0xcccccccd
    5b90:	40370ccc 	.word	0x40370ccc
    5b94:	56041893 	.word	0x56041893
    5b98:	40370d0e 	.word	0x40370d0e
    5b9c:	df3b645a 	.word	0xdf3b645a
    5ba0:	40370d4f 	.word	0x40370d4f
    5ba4:	6872b021 	.word	0x6872b021
    5ba8:	40370d91 	.word	0x40370d91
    5bac:	f1a9fbe7 	.word	0xf1a9fbe7
    5bb0:	40370dd2 	.word	0x40370dd2
    5bb4:	7ae147ae 	.word	0x7ae147ae
    5bb8:	40370e14 	.word	0x40370e14
    5bbc:	04189375 	.word	0x04189375
    5bc0:	40370e56 	.word	0x40370e56
    5bc4:	8d4fdf3b 	.word	0x8d4fdf3b
    5bc8:	40370e97 	.word	0x40370e97
    5bcc:	16872b02 	.word	0x16872b02
    5bd0:	40370ed9 	.word	0x40370ed9
    5bd4:	9fbe76c9 	.word	0x9fbe76c9
    5bd8:	40370f1a 	.word	0x40370f1a
    5bdc:	28f5c28f 	.word	0x28f5c28f
    5be0:	40370f5c 	.word	0x40370f5c
    5be4:	b22d0e56 	.word	0xb22d0e56
    5be8:	40370f9d 	.word	0x40370f9d
    5bec:	3b645a1d 	.word	0x3b645a1d
    5bf0:	40370fdf 	.word	0x40370fdf
    5bf4:	c49ba5e3 	.word	0xc49ba5e3
    5bf8:	40371020 	.word	0x40371020
    5bfc:	4dd2f1aa 	.word	0x4dd2f1aa
    5c00:	40371062 	.word	0x40371062
    5c04:	d70a3d71 	.word	0xd70a3d71
    5c08:	403710a3 	.word	0x403710a3
    5c0c:	60418937 	.word	0x60418937
    5c10:	403710e5 	.word	0x403710e5
    5c14:	e978d4fe 	.word	0xe978d4fe
    5c18:	40371126 	.word	0x40371126
    5c1c:	72b020c5 	.word	0x72b020c5
    5c20:	40371168 	.word	0x40371168
    5c24:	fbe76c8b 	.word	0xfbe76c8b
    5c28:	403711a9 	.word	0x403711a9
    5c2c:	851eb852 	.word	0x851eb852
    5c30:	403711eb 	.word	0x403711eb
    5c34:	0e560419 	.word	0x0e560419
    5c38:	4037122d 	.word	0x4037122d
    5c3c:	978d4fdf 	.word	0x978d4fdf
    5c40:	4037126e 	.word	0x4037126e
    5c44:	20c49ba6 	.word	0x20c49ba6
    5c48:	403712b0 	.word	0x403712b0
    5c4c:	a9fbe76d 	.word	0xa9fbe76d
    5c50:	403712f1 	.word	0x403712f1
    5c54:	33333333 	.word	0x33333333
    5c58:	40371333 	.word	0x40371333
    5c5c:	bc6a7efa 	.word	0xbc6a7efa
    5c60:	40371374 	.word	0x40371374
    5c64:	45a1cac1 	.word	0x45a1cac1
    5c68:	403713b6 	.word	0x403713b6
    5c6c:	ced91687 	.word	0xced91687
    5c70:	403713f7 	.word	0x403713f7
    5c74:	5810624e 	.word	0x5810624e
    5c78:	40371439 	.word	0x40371439
    5c7c:	e147ae14 	.word	0xe147ae14
    5c80:	4037147a 	.word	0x4037147a
    5c84:	6a7ef9db 	.word	0x6a7ef9db
    5c88:	403714bc 	.word	0x403714bc
    5c8c:	f3b645a2 	.word	0xf3b645a2
    5c90:	403714fd 	.word	0x403714fd
    5c94:	7ced9168 	.word	0x7ced9168
    5c98:	4037153f 	.word	0x4037153f
    5c9c:	0624dd2f 	.word	0x0624dd2f
    5ca0:	40371581 	.word	0x40371581
    5ca4:	8f5c28f6 	.word	0x8f5c28f6
    5ca8:	403715c2 	.word	0x403715c2
    5cac:	189374bc 	.word	0x189374bc
    5cb0:	40371604 	.word	0x40371604
    5cb4:	a1cac083 	.word	0xa1cac083
    5cb8:	40371645 	.word	0x40371645
    5cbc:	2b020c4a 	.word	0x2b020c4a
    5cc0:	40371687 	.word	0x40371687
    5cc4:	b4395810 	.word	0xb4395810
    5cc8:	403716c8 	.word	0x403716c8
    5ccc:	3d70a3d7 	.word	0x3d70a3d7
    5cd0:	4037170a 	.word	0x4037170a
    5cd4:	c6a7ef9e 	.word	0xc6a7ef9e
    5cd8:	4037174b 	.word	0x4037174b
    5cdc:	4fdf3b64 	.word	0x4fdf3b64
    5ce0:	4037178d 	.word	0x4037178d
    5ce4:	d916872b 	.word	0xd916872b
    5ce8:	403717ce 	.word	0x403717ce
    5cec:	624dd2f2 	.word	0x624dd2f2
    5cf0:	40371810 	.word	0x40371810
    5cf4:	eb851eb8 	.word	0xeb851eb8
    5cf8:	40371851 	.word	0x40371851
    5cfc:	74bc6a7f 	.word	0x74bc6a7f
    5d00:	40371893 	.word	0x40371893
    5d04:	fdf3b646 	.word	0xfdf3b646
    5d08:	403718d4 	.word	0x403718d4
    5d0c:	872b020c 	.word	0x872b020c
    5d10:	40371916 	.word	0x40371916
    5d14:	10624dd3 	.word	0x10624dd3
    5d18:	40371958 	.word	0x40371958
    5d1c:	9999999a 	.word	0x9999999a
    5d20:	40371999 	.word	0x40371999
    5d24:	22d0e560 	.word	0x22d0e560
    5d28:	403719db 	.word	0x403719db
    5d2c:	ac083127 	.word	0xac083127
    5d30:	40371a1c 	.word	0x40371a1c
    5d34:	353f7cee 	.word	0x353f7cee
    5d38:	40371a5e 	.word	0x40371a5e
    5d3c:	be76c8b4 	.word	0xbe76c8b4
    5d40:	40371a9f 	.word	0x40371a9f
    5d44:	47ae147b 	.word	0x47ae147b
    5d48:	40371ae1 	.word	0x40371ae1
    5d4c:	d0e56042 	.word	0xd0e56042
    5d50:	40371b22 	.word	0x40371b22
    5d54:	5a1cac08 	.word	0x5a1cac08
    5d58:	40371b64 	.word	0x40371b64
    5d5c:	e353f7cf 	.word	0xe353f7cf
    5d60:	40371ba5 	.word	0x40371ba5
    5d64:	6c8b4396 	.word	0x6c8b4396
    5d68:	40371be7 	.word	0x40371be7
    5d6c:	f5c28f5c 	.word	0xf5c28f5c
    5d70:	40371c28 	.word	0x40371c28
    5d74:	7ef9db23 	.word	0x7ef9db23
    5d78:	40371c6a 	.word	0x40371c6a
    5d7c:	083126e9 	.word	0x083126e9
    5d80:	40371cac 	.word	0x40371cac
    5d84:	916872b0 	.word	0x916872b0
    5d88:	40371ced 	.word	0x40371ced
    5d8c:	1a9fbe77 	.word	0x1a9fbe77
    5d90:	40371d2f 	.word	0x40371d2f
    5d94:	a3d70a3d 	.word	0xa3d70a3d
    5d98:	40371d70 	.word	0x40371d70
    5d9c:	2d0e5604 	.word	0x2d0e5604
    5da0:	40371db2 	.word	0x40371db2
    5da4:	b645a1cb 	.word	0xb645a1cb
    5da8:	40371df3 	.word	0x40371df3
    5dac:	3f7ced91 	.word	0x3f7ced91
    5db0:	40371e35 	.word	0x40371e35
    5db4:	c8b43958 	.word	0xc8b43958
    5db8:	40371e76 	.word	0x40371e76
    5dbc:	51eb851f 	.word	0x51eb851f
    5dc0:	40371eb8 	.word	0x40371eb8
    5dc4:	db22d0e5 	.word	0xdb22d0e5
    5dc8:	40371ef9 	.word	0x40371ef9
    5dcc:	645a1cac 	.word	0x645a1cac
    5dd0:	40371f3b 	.word	0x40371f3b
    5dd4:	ed916873 	.word	0xed916873
    5dd8:	40371f7c 	.word	0x40371f7c
    5ddc:	76c8b439 	.word	0x76c8b439
    5de0:	40371fbe 	.word	0x40371fbe
    5de4:	00000000 	.word	0x00000000
    5de8:	40372000 	.word	0x40372000
    5dec:	89374bc7 	.word	0x89374bc7
    5df0:	40372041 	.word	0x40372041
    5df4:	126e978d 	.word	0x126e978d
    5df8:	40372083 	.word	0x40372083
    5dfc:	9ba5e354 	.word	0x9ba5e354
    5e00:	403720c4 	.word	0x403720c4
    5e04:	89374bc7 	.word	0x89374bc7
    5e08:	40380041 	.word	0x40380041
    5e0c:	126e978d 	.word	0x126e978d
    5e10:	40380083 	.word	0x40380083
    5e14:	9ba5e354 	.word	0x9ba5e354
    5e18:	403800c4 	.word	0x403800c4
    5e1c:	24dd2f1b 	.word	0x24dd2f1b
    5e20:	40380106 	.word	0x40380106
    5e24:	ae147ae1 	.word	0xae147ae1
    5e28:	40380147 	.word	0x40380147
    5e2c:	374bc6a8 	.word	0x374bc6a8
    5e30:	40380189 	.word	0x40380189
    5e34:	c083126f 	.word	0xc083126f
    5e38:	403801ca 	.word	0x403801ca
    5e3c:	49ba5e35 	.word	0x49ba5e35
    5e40:	4038020c 	.word	0x4038020c
    5e44:	d2f1a9fc 	.word	0xd2f1a9fc
    5e48:	4038024d 	.word	0x4038024d
    5e4c:	5c28f5c3 	.word	0x5c28f5c3
    5e50:	4038028f 	.word	0x4038028f
    5e54:	e5604189 	.word	0xe5604189
    5e58:	403802d0 	.word	0x403802d0
    5e5c:	6e978d50 	.word	0x6e978d50
    5e60:	40380312 	.word	0x40380312
    5e64:	f7ced917 	.word	0xf7ced917
    5e68:	40380353 	.word	0x40380353
    5e6c:	810624dd 	.word	0x810624dd
    5e70:	40380395 	.word	0x40380395
    5e74:	0a3d70a4 	.word	0x0a3d70a4
    5e78:	403803d7 	.word	0x403803d7
    5e7c:	9374bc6a 	.word	0x9374bc6a
    5e80:	40380418 	.word	0x40380418
    5e84:	1cac0831 	.word	0x1cac0831
    5e88:	4038045a 	.word	0x4038045a
    5e8c:	a5e353f8 	.word	0xa5e353f8
    5e90:	4038049b 	.word	0x4038049b
    5e94:	2f1a9fbe 	.word	0x2f1a9fbe
    5e98:	403804dd 	.word	0x403804dd
    5e9c:	b851eb85 	.word	0xb851eb85
    5ea0:	4038051e 	.word	0x4038051e
    5ea4:	4189374c 	.word	0x4189374c
    5ea8:	40380560 	.word	0x40380560
    5eac:	cac08312 	.word	0xcac08312
    5eb0:	403805a1 	.word	0x403805a1
    5eb4:	53f7ced9 	.word	0x53f7ced9
    5eb8:	403805e3 	.word	0x403805e3
    5ebc:	dd2f1aa0 	.word	0xdd2f1aa0
    5ec0:	40380624 	.word	0x40380624
    5ec4:	66666666 	.word	0x66666666
    5ec8:	40380666 	.word	0x40380666
    5ecc:	ef9db22d 	.word	0xef9db22d
    5ed0:	403806a7 	.word	0x403806a7
    5ed4:	78d4fdf4 	.word	0x78d4fdf4
    5ed8:	403806e9 	.word	0x403806e9
    5edc:	020c49ba 	.word	0x020c49ba
    5ee0:	4038072b 	.word	0x4038072b
    5ee4:	8b439581 	.word	0x8b439581
    5ee8:	4038076c 	.word	0x4038076c
    5eec:	147ae148 	.word	0x147ae148
    5ef0:	403807ae 	.word	0x403807ae
    5ef4:	9db22d0e 	.word	0x9db22d0e
    5ef8:	403807ef 	.word	0x403807ef
    5efc:	26e978d5 	.word	0x26e978d5
    5f00:	40380831 	.word	0x40380831
    5f04:	b020c49c 	.word	0xb020c49c
    5f08:	40380872 	.word	0x40380872
    5f0c:	39581062 	.word	0x39581062
    5f10:	403808b4 	.word	0x403808b4
    5f14:	c28f5c29 	.word	0xc28f5c29
    5f18:	403808f5 	.word	0x403808f5
    5f1c:	4bc6a7f0 	.word	0x4bc6a7f0
    5f20:	40380937 	.word	0x40380937
    5f24:	d4fdf3b6 	.word	0xd4fdf3b6
    5f28:	40380978 	.word	0x40380978
    5f2c:	5e353f7d 	.word	0x5e353f7d
    5f30:	403809ba 	.word	0x403809ba
    5f34:	e76c8b44 	.word	0xe76c8b44
    5f38:	403809fb 	.word	0x403809fb
    5f3c:	70a3d70a 	.word	0x70a3d70a
    5f40:	40380a3d 	.word	0x40380a3d
    5f44:	f9db22d1 	.word	0xf9db22d1
    5f48:	40380a7e 	.word	0x40380a7e
    5f4c:	83126e98 	.word	0x83126e98
    5f50:	40380ac0 	.word	0x40380ac0
    5f54:	0c49ba5e 	.word	0x0c49ba5e
    5f58:	40380b02 	.word	0x40380b02
    5f5c:	95810625 	.word	0x95810625
    5f60:	40380b43 	.word	0x40380b43
    5f64:	1eb851ec 	.word	0x1eb851ec
    5f68:	40380b85 	.word	0x40380b85
    5f6c:	a7ef9db2 	.word	0xa7ef9db2
    5f70:	40380bc6 	.word	0x40380bc6
    5f74:	3126e979 	.word	0x3126e979
    5f78:	40380c08 	.word	0x40380c08
    5f7c:	ba5e353f 	.word	0xba5e353f
    5f80:	40380c49 	.word	0x40380c49
    5f84:	43958106 	.word	0x43958106
    5f88:	40380c8b 	.word	0x40380c8b
    5f8c:	cccccccd 	.word	0xcccccccd
    5f90:	40380ccc 	.word	0x40380ccc
    5f94:	56041893 	.word	0x56041893
    5f98:	40380d0e 	.word	0x40380d0e
    5f9c:	df3b645a 	.word	0xdf3b645a
    5fa0:	40380d4f 	.word	0x40380d4f
    5fa4:	6872b021 	.word	0x6872b021
    5fa8:	40380d91 	.word	0x40380d91
    5fac:	f1a9fbe7 	.word	0xf1a9fbe7
    5fb0:	40380dd2 	.word	0x40380dd2
    5fb4:	7ae147ae 	.word	0x7ae147ae
    5fb8:	40380e14 	.word	0x40380e14
    5fbc:	04189375 	.word	0x04189375
    5fc0:	40380e56 	.word	0x40380e56
    5fc4:	8d4fdf3b 	.word	0x8d4fdf3b
    5fc8:	40380e97 	.word	0x40380e97
    5fcc:	16872b02 	.word	0x16872b02
    5fd0:	40380ed9 	.word	0x40380ed9
    5fd4:	9fbe76c9 	.word	0x9fbe76c9
    5fd8:	40380f1a 	.word	0x40380f1a
    5fdc:	28f5c28f 	.word	0x28f5c28f
    5fe0:	40380f5c 	.word	0x40380f5c
    5fe4:	b22d0e56 	.word	0xb22d0e56
    5fe8:	40380f9d 	.word	0x40380f9d
    5fec:	3b645a1d 	.word	0x3b645a1d
    5ff0:	40380fdf 	.word	0x40380fdf
    5ff4:	c49ba5e3 	.word	0xc49ba5e3
    5ff8:	40381020 	.word	0x40381020
    5ffc:	4dd2f1aa 	.word	0x4dd2f1aa
    6000:	40381062 	.word	0x40381062
    6004:	d70a3d71 	.word	0xd70a3d71
    6008:	403810a3 	.word	0x403810a3
    600c:	60418937 	.word	0x60418937
    6010:	403810e5 	.word	0x403810e5
    6014:	e978d4fe 	.word	0xe978d4fe
    6018:	40381126 	.word	0x40381126
    601c:	72b020c5 	.word	0x72b020c5
    6020:	40381168 	.word	0x40381168
    6024:	fbe76c8b 	.word	0xfbe76c8b
    6028:	403811a9 	.word	0x403811a9
    602c:	851eb852 	.word	0x851eb852
    6030:	403811eb 	.word	0x403811eb
    6034:	0e560419 	.word	0x0e560419
    6038:	4038122d 	.word	0x4038122d
    603c:	978d4fdf 	.word	0x978d4fdf
    6040:	4038126e 	.word	0x4038126e
    6044:	20c49ba6 	.word	0x20c49ba6
    6048:	403812b0 	.word	0x403812b0
    604c:	a9fbe76d 	.word	0xa9fbe76d
    6050:	403812f1 	.word	0x403812f1
    6054:	33333333 	.word	0x33333333
    6058:	40381333 	.word	0x40381333
    605c:	bc6a7efa 	.word	0xbc6a7efa
    6060:	40381374 	.word	0x40381374
    6064:	45a1cac1 	.word	0x45a1cac1
    6068:	403813b6 	.word	0x403813b6
    606c:	ced91687 	.word	0xced91687
    6070:	403813f7 	.word	0x403813f7
    6074:	5810624e 	.word	0x5810624e
    6078:	40381439 	.word	0x40381439
    607c:	e147ae14 	.word	0xe147ae14
    6080:	4038147a 	.word	0x4038147a
    6084:	6a7ef9db 	.word	0x6a7ef9db
    6088:	403814bc 	.word	0x403814bc
    608c:	f3b645a2 	.word	0xf3b645a2
    6090:	403814fd 	.word	0x403814fd
    6094:	7ced9168 	.word	0x7ced9168
    6098:	4038153f 	.word	0x4038153f
    609c:	0624dd2f 	.word	0x0624dd2f
    60a0:	40381581 	.word	0x40381581
    60a4:	8f5c28f6 	.word	0x8f5c28f6
    60a8:	403815c2 	.word	0x403815c2
    60ac:	189374bc 	.word	0x189374bc
    60b0:	40381604 	.word	0x40381604
    60b4:	a1cac083 	.word	0xa1cac083
    60b8:	40381645 	.word	0x40381645
    60bc:	2b020c4a 	.word	0x2b020c4a
    60c0:	40381687 	.word	0x40381687
    60c4:	b4395810 	.word	0xb4395810
    60c8:	403816c8 	.word	0x403816c8
    60cc:	3d70a3d7 	.word	0x3d70a3d7
    60d0:	4038170a 	.word	0x4038170a
    60d4:	c6a7ef9e 	.word	0xc6a7ef9e
    60d8:	4038174b 	.word	0x4038174b
    60dc:	4fdf3b64 	.word	0x4fdf3b64
    60e0:	4038178d 	.word	0x4038178d
    60e4:	d916872b 	.word	0xd916872b
    60e8:	403817ce 	.word	0x403817ce
    60ec:	624dd2f2 	.word	0x624dd2f2
    60f0:	40381810 	.word	0x40381810
    60f4:	eb851eb8 	.word	0xeb851eb8
    60f8:	40381851 	.word	0x40381851
    60fc:	74bc6a7f 	.word	0x74bc6a7f
    6100:	40381893 	.word	0x40381893
    6104:	fdf3b646 	.word	0xfdf3b646
    6108:	403818d4 	.word	0x403818d4
    610c:	872b020c 	.word	0x872b020c
    6110:	40381916 	.word	0x40381916
    6114:	10624dd3 	.word	0x10624dd3
    6118:	40381958 	.word	0x40381958
    611c:	9999999a 	.word	0x9999999a
    6120:	40381999 	.word	0x40381999
    6124:	22d0e560 	.word	0x22d0e560
    6128:	403819db 	.word	0x403819db
    612c:	ac083127 	.word	0xac083127
    6130:	40381a1c 	.word	0x40381a1c
    6134:	353f7cee 	.word	0x353f7cee
    6138:	40381a5e 	.word	0x40381a5e
    613c:	be76c8b4 	.word	0xbe76c8b4
    6140:	40381a9f 	.word	0x40381a9f
    6144:	47ae147b 	.word	0x47ae147b
    6148:	40381ae1 	.word	0x40381ae1
    614c:	d0e56042 	.word	0xd0e56042
    6150:	40381b22 	.word	0x40381b22
    6154:	5a1cac08 	.word	0x5a1cac08
    6158:	40381b64 	.word	0x40381b64
    615c:	e353f7cf 	.word	0xe353f7cf
    6160:	40381ba5 	.word	0x40381ba5
    6164:	6c8b4396 	.word	0x6c8b4396
    6168:	40381be7 	.word	0x40381be7
    616c:	f5c28f5c 	.word	0xf5c28f5c
    6170:	40381c28 	.word	0x40381c28
    6174:	7ef9db23 	.word	0x7ef9db23
    6178:	40381c6a 	.word	0x40381c6a
    617c:	083126e9 	.word	0x083126e9
    6180:	40381cac 	.word	0x40381cac
    6184:	916872b0 	.word	0x916872b0
    6188:	40381ced 	.word	0x40381ced
    618c:	1a9fbe77 	.word	0x1a9fbe77
    6190:	40381d2f 	.word	0x40381d2f
    6194:	a3d70a3d 	.word	0xa3d70a3d
    6198:	40381d70 	.word	0x40381d70
    619c:	2d0e5604 	.word	0x2d0e5604
    61a0:	40381db2 	.word	0x40381db2
    61a4:	b645a1cb 	.word	0xb645a1cb
    61a8:	40381df3 	.word	0x40381df3
    61ac:	3f7ced91 	.word	0x3f7ced91
    61b0:	40381e35 	.word	0x40381e35
    61b4:	c8b43958 	.word	0xc8b43958
    61b8:	40381e76 	.word	0x40381e76
    61bc:	51eb851f 	.word	0x51eb851f
    61c0:	40381eb8 	.word	0x40381eb8
    61c4:	db22d0e5 	.word	0xdb22d0e5
    61c8:	40381ef9 	.word	0x40381ef9
    61cc:	645a1cac 	.word	0x645a1cac
    61d0:	40381f3b 	.word	0x40381f3b
    61d4:	ed916873 	.word	0xed916873
    61d8:	40381f7c 	.word	0x40381f7c
    61dc:	76c8b439 	.word	0x76c8b439
    61e0:	40381fbe 	.word	0x40381fbe
    61e4:	00000000 	.word	0x00000000
    61e8:	40382000 	.word	0x40382000
    61ec:	89374bc7 	.word	0x89374bc7
    61f0:	40382041 	.word	0x40382041
    61f4:	126e978d 	.word	0x126e978d
    61f8:	40382083 	.word	0x40382083
    61fc:	9ba5e354 	.word	0x9ba5e354
    6200:	403820c4 	.word	0x403820c4
    6204:	89374bc7 	.word	0x89374bc7
    6208:	40390041 	.word	0x40390041
    620c:	126e978d 	.word	0x126e978d
    6210:	40390083 	.word	0x40390083
    6214:	9ba5e354 	.word	0x9ba5e354
    6218:	403900c4 	.word	0x403900c4
    621c:	24dd2f1b 	.word	0x24dd2f1b
    6220:	40390106 	.word	0x40390106
    6224:	ae147ae1 	.word	0xae147ae1
    6228:	40390147 	.word	0x40390147
    622c:	374bc6a8 	.word	0x374bc6a8
    6230:	40390189 	.word	0x40390189
    6234:	c083126f 	.word	0xc083126f
    6238:	403901ca 	.word	0x403901ca
    623c:	49ba5e35 	.word	0x49ba5e35
    6240:	4039020c 	.word	0x4039020c
    6244:	d2f1a9fc 	.word	0xd2f1a9fc
    6248:	4039024d 	.word	0x4039024d
    624c:	5c28f5c3 	.word	0x5c28f5c3
    6250:	4039028f 	.word	0x4039028f
    6254:	e5604189 	.word	0xe5604189
    6258:	403902d0 	.word	0x403902d0
    625c:	6e978d50 	.word	0x6e978d50
    6260:	40390312 	.word	0x40390312
    6264:	f7ced917 	.word	0xf7ced917
    6268:	40390353 	.word	0x40390353
    626c:	810624dd 	.word	0x810624dd
    6270:	40390395 	.word	0x40390395
    6274:	0a3d70a4 	.word	0x0a3d70a4
    6278:	403903d7 	.word	0x403903d7
    627c:	9374bc6a 	.word	0x9374bc6a
    6280:	40390418 	.word	0x40390418
    6284:	1cac0831 	.word	0x1cac0831
    6288:	4039045a 	.word	0x4039045a
    628c:	a5e353f8 	.word	0xa5e353f8
    6290:	4039049b 	.word	0x4039049b
    6294:	2f1a9fbe 	.word	0x2f1a9fbe
    6298:	403904dd 	.word	0x403904dd
    629c:	b851eb85 	.word	0xb851eb85
    62a0:	4039051e 	.word	0x4039051e
    62a4:	4189374c 	.word	0x4189374c
    62a8:	40390560 	.word	0x40390560
    62ac:	cac08312 	.word	0xcac08312
    62b0:	403905a1 	.word	0x403905a1
    62b4:	53f7ced9 	.word	0x53f7ced9
    62b8:	403905e3 	.word	0x403905e3
    62bc:	dd2f1aa0 	.word	0xdd2f1aa0
    62c0:	40390624 	.word	0x40390624
    62c4:	66666666 	.word	0x66666666
    62c8:	40390666 	.word	0x40390666
    62cc:	ef9db22d 	.word	0xef9db22d
    62d0:	403906a7 	.word	0x403906a7
    62d4:	78d4fdf4 	.word	0x78d4fdf4
    62d8:	403906e9 	.word	0x403906e9
    62dc:	020c49ba 	.word	0x020c49ba
    62e0:	4039072b 	.word	0x4039072b
    62e4:	8b439581 	.word	0x8b439581
    62e8:	4039076c 	.word	0x4039076c
    62ec:	147ae148 	.word	0x147ae148
    62f0:	403907ae 	.word	0x403907ae
    62f4:	9db22d0e 	.word	0x9db22d0e
    62f8:	403907ef 	.word	0x403907ef
    62fc:	26e978d5 	.word	0x26e978d5
    6300:	40390831 	.word	0x40390831
    6304:	b020c49c 	.word	0xb020c49c
    6308:	40390872 	.word	0x40390872
    630c:	39581062 	.word	0x39581062
    6310:	403908b4 	.word	0x403908b4
    6314:	c28f5c29 	.word	0xc28f5c29
    6318:	403908f5 	.word	0x403908f5
    631c:	4bc6a7f0 	.word	0x4bc6a7f0
    6320:	40390937 	.word	0x40390937
    6324:	d4fdf3b6 	.word	0xd4fdf3b6
    6328:	40390978 	.word	0x40390978
    632c:	5e353f7d 	.word	0x5e353f7d
    6330:	403909ba 	.word	0x403909ba
    6334:	e76c8b44 	.word	0xe76c8b44
    6338:	403909fb 	.word	0x403909fb
    633c:	70a3d70a 	.word	0x70a3d70a
    6340:	40390a3d 	.word	0x40390a3d
    6344:	f9db22d1 	.word	0xf9db22d1
    6348:	40390a7e 	.word	0x40390a7e
    634c:	83126e98 	.word	0x83126e98
    6350:	40390ac0 	.word	0x40390ac0
    6354:	0c49ba5e 	.word	0x0c49ba5e
    6358:	40390b02 	.word	0x40390b02
    635c:	95810625 	.word	0x95810625
    6360:	40390b43 	.word	0x40390b43
    6364:	1eb851ec 	.word	0x1eb851ec
    6368:	40390b85 	.word	0x40390b85
    636c:	a7ef9db2 	.word	0xa7ef9db2
    6370:	40390bc6 	.word	0x40390bc6
    6374:	3126e979 	.word	0x3126e979
    6378:	40390c08 	.word	0x40390c08
    637c:	ba5e353f 	.word	0xba5e353f
    6380:	40390c49 	.word	0x40390c49
    6384:	43958106 	.word	0x43958106
    6388:	40390c8b 	.word	0x40390c8b
    638c:	cccccccd 	.word	0xcccccccd
    6390:	40390ccc 	.word	0x40390ccc
    6394:	56041893 	.word	0x56041893
    6398:	40390d0e 	.word	0x40390d0e
    639c:	df3b645a 	.word	0xdf3b645a
    63a0:	40390d4f 	.word	0x40390d4f
    63a4:	6872b021 	.word	0x6872b021
    63a8:	40390d91 	.word	0x40390d91
    63ac:	f1a9fbe7 	.word	0xf1a9fbe7
    63b0:	40390dd2 	.word	0x40390dd2
    63b4:	7ae147ae 	.word	0x7ae147ae
    63b8:	40390e14 	.word	0x40390e14
    63bc:	04189375 	.word	0x04189375
    63c0:	40390e56 	.word	0x40390e56
    63c4:	8d4fdf3b 	.word	0x8d4fdf3b
    63c8:	40390e97 	.word	0x40390e97
    63cc:	16872b02 	.word	0x16872b02
    63d0:	40390ed9 	.word	0x40390ed9
    63d4:	9fbe76c9 	.word	0x9fbe76c9
    63d8:	40390f1a 	.word	0x40390f1a
    63dc:	28f5c28f 	.word	0x28f5c28f
    63e0:	40390f5c 	.word	0x40390f5c
    63e4:	b22d0e56 	.word	0xb22d0e56
    63e8:	40390f9d 	.word	0x40390f9d
    63ec:	3b645a1d 	.word	0x3b645a1d
    63f0:	40390fdf 	.word	0x40390fdf
    63f4:	c49ba5e3 	.word	0xc49ba5e3
    63f8:	40391020 	.word	0x40391020
    63fc:	4dd2f1aa 	.word	0x4dd2f1aa
    6400:	40391062 	.word	0x40391062
    6404:	d70a3d71 	.word	0xd70a3d71
    6408:	403910a3 	.word	0x403910a3
    640c:	60418937 	.word	0x60418937
    6410:	403910e5 	.word	0x403910e5
    6414:	e978d4fe 	.word	0xe978d4fe
    6418:	40391126 	.word	0x40391126
    641c:	72b020c5 	.word	0x72b020c5
    6420:	40391168 	.word	0x40391168
    6424:	fbe76c8b 	.word	0xfbe76c8b
    6428:	403911a9 	.word	0x403911a9
    642c:	851eb852 	.word	0x851eb852
    6430:	403911eb 	.word	0x403911eb
    6434:	0e560419 	.word	0x0e560419
    6438:	4039122d 	.word	0x4039122d
    643c:	978d4fdf 	.word	0x978d4fdf
    6440:	4039126e 	.word	0x4039126e
    6444:	20c49ba6 	.word	0x20c49ba6
    6448:	403912b0 	.word	0x403912b0
    644c:	a9fbe76d 	.word	0xa9fbe76d
    6450:	403912f1 	.word	0x403912f1
    6454:	33333333 	.word	0x33333333
    6458:	40391333 	.word	0x40391333
    645c:	bc6a7efa 	.word	0xbc6a7efa
    6460:	40391374 	.word	0x40391374
    6464:	45a1cac1 	.word	0x45a1cac1
    6468:	403913b6 	.word	0x403913b6
    646c:	ced91687 	.word	0xced91687
    6470:	403913f7 	.word	0x403913f7
    6474:	5810624e 	.word	0x5810624e
    6478:	40391439 	.word	0x40391439
    647c:	e147ae14 	.word	0xe147ae14
    6480:	4039147a 	.word	0x4039147a
    6484:	6a7ef9db 	.word	0x6a7ef9db
    6488:	403914bc 	.word	0x403914bc
    648c:	f3b645a2 	.word	0xf3b645a2
    6490:	403914fd 	.word	0x403914fd
    6494:	7ced9168 	.word	0x7ced9168
    6498:	4039153f 	.word	0x4039153f
    649c:	0624dd2f 	.word	0x0624dd2f
    64a0:	40391581 	.word	0x40391581
    64a4:	8f5c28f6 	.word	0x8f5c28f6
    64a8:	403915c2 	.word	0x403915c2
    64ac:	189374bc 	.word	0x189374bc
    64b0:	40391604 	.word	0x40391604
    64b4:	a1cac083 	.word	0xa1cac083
    64b8:	40391645 	.word	0x40391645
    64bc:	2b020c4a 	.word	0x2b020c4a
    64c0:	40391687 	.word	0x40391687
    64c4:	b4395810 	.word	0xb4395810
    64c8:	403916c8 	.word	0x403916c8
    64cc:	3d70a3d7 	.word	0x3d70a3d7
    64d0:	4039170a 	.word	0x4039170a
    64d4:	c6a7ef9e 	.word	0xc6a7ef9e
    64d8:	4039174b 	.word	0x4039174b
    64dc:	4fdf3b64 	.word	0x4fdf3b64
    64e0:	4039178d 	.word	0x4039178d
    64e4:	d916872b 	.word	0xd916872b
    64e8:	403917ce 	.word	0x403917ce
    64ec:	624dd2f2 	.word	0x624dd2f2
    64f0:	40391810 	.word	0x40391810
    64f4:	eb851eb8 	.word	0xeb851eb8
    64f8:	40391851 	.word	0x40391851
    64fc:	74bc6a7f 	.word	0x74bc6a7f
    6500:	40391893 	.word	0x40391893
    6504:	fdf3b646 	.word	0xfdf3b646
    6508:	403918d4 	.word	0x403918d4
    650c:	872b020c 	.word	0x872b020c
    6510:	40391916 	.word	0x40391916
    6514:	10624dd3 	.word	0x10624dd3
    6518:	40391958 	.word	0x40391958
    651c:	9999999a 	.word	0x9999999a
    6520:	40391999 	.word	0x40391999
    6524:	22d0e560 	.word	0x22d0e560
    6528:	403919db 	.word	0x403919db
    652c:	ac083127 	.word	0xac083127
    6530:	40391a1c 	.word	0x40391a1c
    6534:	353f7cee 	.word	0x353f7cee
    6538:	40391a5e 	.word	0x40391a5e
    653c:	be76c8b4 	.word	0xbe76c8b4
    6540:	40391a9f 	.word	0x40391a9f
    6544:	47ae147b 	.word	0x47ae147b
    6548:	40391ae1 	.word	0x40391ae1
    654c:	d0e56042 	.word	0xd0e56042
    6550:	40391b22 	.word	0x40391b22
    6554:	5a1cac08 	.word	0x5a1cac08
    6558:	40391b64 	.word	0x40391b64
    655c:	e353f7cf 	.word	0xe353f7cf
    6560:	40391ba5 	.word	0x40391ba5
    6564:	6c8b4396 	.word	0x6c8b4396
    6568:	40391be7 	.word	0x40391be7
    656c:	f5c28f5c 	.word	0xf5c28f5c
    6570:	40391c28 	.word	0x40391c28
    6574:	7ef9db23 	.word	0x7ef9db23
    6578:	40391c6a 	.word	0x40391c6a
    657c:	083126e9 	.word	0x083126e9
    6580:	40391cac 	.word	0x40391cac
    6584:	916872b0 	.word	0x916872b0
    6588:	40391ced 	.word	0x40391ced
    658c:	1a9fbe77 	.word	0x1a9fbe77
    6590:	40391d2f 	.word	0x40391d2f
    6594:	a3d70a3d 	.word	0xa3d70a3d
    6598:	40391d70 	.word	0x40391d70
    659c:	2d0e5604 	.word	0x2d0e5604
    65a0:	40391db2 	.word	0x40391db2
    65a4:	b645a1cb 	.word	0xb645a1cb
    65a8:	40391df3 	.word	0x40391df3
    65ac:	3f7ced91 	.word	0x3f7ced91
    65b0:	40391e35 	.word	0x40391e35
    65b4:	c8b43958 	.word	0xc8b43958
    65b8:	40391e76 	.word	0x40391e76
    65bc:	51eb851f 	.word	0x51eb851f
    65c0:	40391eb8 	.word	0x40391eb8
    65c4:	db22d0e5 	.word	0xdb22d0e5
    65c8:	40391ef9 	.word	0x40391ef9
    65cc:	645a1cac 	.word	0x645a1cac
    65d0:	40391f3b 	.word	0x40391f3b
    65d4:	ed916873 	.word	0xed916873
    65d8:	40391f7c 	.word	0x40391f7c
    65dc:	76c8b439 	.word	0x76c8b439
    65e0:	40391fbe 	.word	0x40391fbe
    65e4:	00000000 	.word	0x00000000
    65e8:	40392000 	.word	0x40392000
    65ec:	89374bc7 	.word	0x89374bc7
    65f0:	40392041 	.word	0x40392041
    65f4:	126e978d 	.word	0x126e978d
    65f8:	40392083 	.word	0x40392083
    65fc:	9ba5e354 	.word	0x9ba5e354
    6600:	403920c4 	.word	0x403920c4
    6604:	89374bc7 	.word	0x89374bc7
    6608:	403a0041 	.word	0x403a0041
    660c:	126e978d 	.word	0x126e978d
    6610:	403a0083 	.word	0x403a0083
    6614:	9ba5e354 	.word	0x9ba5e354
    6618:	403a00c4 	.word	0x403a00c4
    661c:	24dd2f1b 	.word	0x24dd2f1b
    6620:	403a0106 	.word	0x403a0106
    6624:	ae147ae1 	.word	0xae147ae1
    6628:	403a0147 	.word	0x403a0147
    662c:	374bc6a8 	.word	0x374bc6a8
    6630:	403a0189 	.word	0x403a0189
    6634:	c083126f 	.word	0xc083126f
    6638:	403a01ca 	.word	0x403a01ca
    663c:	49ba5e35 	.word	0x49ba5e35
    6640:	403a020c 	.word	0x403a020c
    6644:	d2f1a9fc 	.word	0xd2f1a9fc
    6648:	403a024d 	.word	0x403a024d
    664c:	5c28f5c3 	.word	0x5c28f5c3
    6650:	403a028f 	.word	0x403a028f
    6654:	e5604189 	.word	0xe5604189
    6658:	403a02d0 	.word	0x403a02d0
    665c:	6e978d50 	.word	0x6e978d50
    6660:	403a0312 	.word	0x403a0312
    6664:	f7ced917 	.word	0xf7ced917
    6668:	403a0353 	.word	0x403a0353
    666c:	810624dd 	.word	0x810624dd
    6670:	403a0395 	.word	0x403a0395
    6674:	0a3d70a4 	.word	0x0a3d70a4
    6678:	403a03d7 	.word	0x403a03d7
    667c:	9374bc6a 	.word	0x9374bc6a
    6680:	403a0418 	.word	0x403a0418
    6684:	1cac0831 	.word	0x1cac0831
    6688:	403a045a 	.word	0x403a045a
    668c:	a5e353f8 	.word	0xa5e353f8
    6690:	403a049b 	.word	0x403a049b
    6694:	2f1a9fbe 	.word	0x2f1a9fbe
    6698:	403a04dd 	.word	0x403a04dd
    669c:	b851eb85 	.word	0xb851eb85
